 node-librdkafka

 Timestamp is 5bb23334 (Mon Oct  1 10:46:12 2018)

 Preferred load address is 0000000180000000

 Start         Length     Name                   Class
 0001:00000000 00000240H .text$di                CODE
 0001:00000240 0003a5b0H .text$mn                CODE
 0001:0003a7f0 00000020H .text$mn$00             CODE
 0001:0003a810 000004f0H .text$x                 CODE
 0001:0003ad00 0000021cH .text$yd                CODE
 0002:00000000 00000370H .idata$5                DATA
 0002:00000370 00000010H .00cfg                  DATA
 0002:00000380 00000008H .CRT$XCA                DATA
 0002:00000388 00000058H .CRT$XCC                DATA
 0002:000003e0 00000010H .CRT$XCL                DATA
 0002:000003f0 00000020H .CRT$XCU                DATA
 0002:00000410 00000008H .CRT$XCZ                DATA
 0002:00000418 00000008H .CRT$XIA                DATA
 0002:00000420 00000030H .CRT$XIC                DATA
 0002:00000450 00000008H .CRT$XIZ                DATA
 0002:00000458 00000008H .CRT$XLA                DATA
 0002:00000460 00000008H .CRT$XLZ                DATA
 0002:00000468 00000008H .CRT$XPA                DATA
 0002:00000470 00000010H .CRT$XPX                DATA
 0002:00000480 00000008H .CRT$XPXA               DATA
 0002:00000488 00000008H .CRT$XPZ                DATA
 0002:00000490 00000008H .CRT$XTA                DATA
 0002:00000498 00000008H .CRT$XTZ                DATA
 0002:000004a0 00011df0H .rdata                  DATA
 0002:00012290 00000028H .rdata$T                DATA
 0002:000122b8 0000226cH .rdata$r                DATA
 0002:00014524 0000048cH .rdata$zzzdbg           DATA
 0002:000149b0 00000008H .rtc$IAA                DATA
 0002:000149b8 00000008H .rtc$IZZ                DATA
 0002:000149c0 00000008H .rtc$TAA                DATA
 0002:000149c8 00000008H .rtc$TZZ                DATA
 0002:000149d0 00003748H .xdata                  DATA
 0002:00018118 00000334H .xdata$x                DATA
 0002:0001844c 00000020H .didat$2                DATA
 0002:0001846c 00000024H .didat$3                DATA
 0002:00018490 00000308H .didat$4                DATA
 0002:00018798 000016b8H .didat$6                DATA
 0002:00019e50 00000310H .didat$7                DATA
 0002:0001a160 00000058H .edata                  DATA
 0002:0001a1b8 00000028H .idata$2                DATA
 0002:0001a1e0 00000018H .idata$3                DATA
 0002:0001a1f8 00000370H .idata$4                DATA
 0002:0001a568 00000bc6H .idata$6                DATA
 0003:00000000 00000b90H .data                   DATA
 0003:00000b90 00000e90H .data$r                 DATA
 0003:00001a20 00000310H .didat$5                DATA
 0003:00001d30 00001ab4H .bss                    DATA
 0004:00000000 00003594H .pdata                  DATA
 0005:00000000 000000b8H .gfids$x                DATA
 0005:000000b8 00000200H .gfids$y                DATA
 0006:00000000 00000004H .tls                    DATA
 0006:00000004 00000004H .tls$                   DATA
 0006:00000008 00000001H .tls$ZZZ                DATA
 0007:00000000 00000060H .rsrc$01                DATA
 0007:00000060 00000180H .rsrc$02                DATA

  Address         Publics by Value              Rva+Base               Lib:Object

 0000:00000000       __guard_iat_table          0000000000000000     <absolute>
 0000:00000000       __dynamic_value_reloc_table 0000000000000000     <absolute>
 0000:00000000       __guard_iat_count          0000000000000000     <absolute>
 0000:00000000       __guard_longjmp_table      0000000000000000     <absolute>
 0000:00000000       __guard_longjmp_count      0000000000000000     <absolute>
 0000:00000000       __guard_fids_count         0000000000000000     <absolute>
 0000:00000000       ___safe_se_handler_table   0000000000000000     <absolute>
 0000:00000000       ___safe_se_handler_count   0000000000000000     <absolute>
 0000:00000000       __guard_fids_table         0000000000000000     <absolute>
 0000:00000100       __guard_flags              0000000000000100     <absolute>
 0000:00000000       __ImageBase                0000000180000000     <linker-defined>
 0001:00000240       ?_Deallocate@std@@YAXPEAX_K1@Z 0000000180001240 f i binding.obj
 0001:00000390       ?New@?$Factory@VFunctionTemplate@v8@@@imp@Nan@@SA?AV?$Local@VFunctionTemplate@v8@@@v8@@P6AXAEBV?$FunctionCallbackInfo@VValue@v8@@@3@@ZV?$Local@VValue@v8@@@5@V?$Local@VSignature@v8@@@5@@Z 0000000180001390 f i binding.obj
 0001:00000590       ?NodeRdKafkaErr2Str@@YAXAEBV?$FunctionCallbackInfo@VValue@v8@@@Nan@@@Z 0000000180001590 f   binding.obj
 0001:00000770       ?NodeRdKafkaBuildInFeatures@@YAXAEBV?$FunctionCallbackInfo@VValue@v8@@@Nan@@@Z 0000000180001770 f   binding.obj
 0001:000009d0       ?ConstantsInit@@YAXV?$Local@VObject@v8@@@v8@@@Z 00000001800019d0 f   binding.obj
 0001:00003790       ?Init@@YAXV?$Local@VObject@v8@@@v8@@0@Z 0000000180004790 f   binding.obj
 0001:00003910       ??1?$basic_string@DU?$char_traits@D@std@@V?$allocator@D@2@@std@@QEAA@XZ 0000000180004910 f i binding.obj
 0001:000039a0       ??0?$basic_string@DU?$char_traits@D@std@@V?$allocator@D@2@@std@@QEAA@PEBD@Z 00000001800049a0 f i binding.obj
 0001:000039e0       ?assign@?$basic_string@DU?$char_traits@D@std@@V?$allocator@D@2@@std@@QEAAAEAV12@PEBD_K@Z 00000001800049e0 f i binding.obj
 0001:00003b10       ?assign@?$basic_string@DU?$char_traits@D@std@@V?$allocator@D@2@@std@@QEAAAEAV12@AEBV12@_K1@Z 0000000180004b10 f i binding.obj
 0001:00003c40       ?erase@?$basic_string@DU?$char_traits@D@std@@V?$allocator@D@2@@std@@QEAAAEAV12@_K0@Z 0000000180004c40 f i binding.obj
 0001:00003d10       ?_Copy@?$basic_string@DU?$char_traits@D@std@@V?$allocator@D@2@@std@@QEAAX_K0@Z 0000000180004d10 f i binding.obj
 0001:00003e90       ?New@Nan@@YA?AV?$MaybeLocal@VString@v8@@@v8@@AEBV?$basic_string@DU?$char_traits@D@std@@V?$allocator@D@2@@std@@@Z 0000000180004e90 f i callbacks.obj
 0001:00003f40       ??0AsyncResource@Nan@@QEAA@PEBDV?$Local@VObject@v8@@@v8@@@Z 0000000180004f40 f i callbacks.obj
 0001:00004000       ??RCallback@Nan@@QEBA?AV?$Local@VValue@v8@@@v8@@V?$Local@VObject@v8@@@3@HQEAV23@@Z 0000000180005000 f i callbacks.obj
 0001:000041c0       ?Call@Callback@Nan@@QEBA?AV?$Local@VValue@v8@@@v8@@HQEAV34@@Z 00000001800051c0 f i callbacks.obj
 0001:000043d0       ?Call_@Callback@Nan@@AEBA?AV?$MaybeLocal@VValue@v8@@@v8@@PEAVIsolate@4@V?$Local@VObject@v8@@@4@HQEAV?$Local@VValue@v8@@@4@PEAVAsyncResource@2@@Z 00000001800053d0 f i callbacks.obj
 0001:000044b0       ?AsyncMessage_@Dispatcher@Callbacks@NodeKafka@@CAXPEAUuv_async_s@@@Z 00000001800054b0 f i callbacks.obj
 0001:000044c0       ??0rebalance_event_t@Callbacks@NodeKafka@@QEAA@W4ErrorCode@RdKafka@@V?$vector@PEAVTopicPartition@RdKafka@@V?$allocator@PEAVTopicPartition@RdKafka@@@std@@@std@@@Z 00000001800054c0 f i callbacks.obj
 0001:00004730       ??0offset_commit_event_t@Callbacks@NodeKafka@@QEAA@W4ErrorCode@RdKafka@@AEBV?$vector@PEAVTopicPartition@RdKafka@@V?$allocator@PEAVTopicPartition@RdKafka@@@std@@@std@@@Z 0000000180005730 f i callbacks.obj
 0001:00004970       ?TopicPartitionListToV8Array@Callbacks@NodeKafka@@YA?AV?$Local@VArray@v8@@@v8@@V?$vector@Uevent_topic_partition_t@Callbacks@NodeKafka@@V?$allocator@Uevent_topic_partition_t@Callbacks@NodeKafka@@@std@@@std@@@Z 0000000180005970 f   callbacks.obj
 0001:00004d40       ??1Dispatcher@Callbacks@NodeKafka@@QEAA@XZ 0000000180005d40 f   callbacks.obj
 0001:00004df0       ?Dispatch@Dispatcher@Callbacks@NodeKafka@@QEAAXHQEAV?$Local@VValue@v8@@@v8@@@Z 0000000180005df0 f   callbacks.obj
 0001:00004ee0       ?AddCallback@Dispatcher@Callbacks@NodeKafka@@QEAAXV?$Local@VFunction@v8@@@v8@@@Z 0000000180005ee0 f   callbacks.obj
 0001:00004ee0       ?AddCallback@DeliveryReportDispatcher@Callbacks@NodeKafka@@QEAAXV?$Local@VFunction@v8@@@v8@@@Z 0000000180005ee0 f   callbacks.obj
 0001:00004f70       ??0event_t@Callbacks@NodeKafka@@QEAA@AEBVEvent@RdKafka@@@Z 0000000180005f70 f   callbacks.obj
 0001:00005410       ??_EEvent@Callbacks@NodeKafka@@UEAAPEAXI@Z 0000000180006410 f i * CIL library *:* CIL module *
 0001:00005410       ??_GEvent@Callbacks@NodeKafka@@UEAAPEAXI@Z 0000000180006410 f i callbacks.obj
 0001:00005480       ?event_cb@Event@Callbacks@NodeKafka@@UEAAXAEAV1RdKafka@@@Z 0000000180006480 f   callbacks.obj
 0001:00005510       ?Add@EventDispatcher@Callbacks@NodeKafka@@QEAAXAEBUevent_t@23@@Z 0000000180006510 f   callbacks.obj
 0001:000055e0       ?Flush@EventDispatcher@Callbacks@NodeKafka@@UEAAXXZ 00000001800065e0 f   callbacks.obj
 0001:000060a0       ?Add@DeliveryReportDispatcher@Callbacks@NodeKafka@@QEAAXAEBVDeliveryReport@23@@Z 00000001800070a0 f   callbacks.obj
 0001:00006160       ?Flush@DeliveryReportDispatcher@Callbacks@NodeKafka@@UEAAXXZ 0000000180007160 f   callbacks.obj
 0001:00006c60       ??0DeliveryReport@Callbacks@NodeKafka@@QEAA@AEBV012@@Z 0000000180007c60 f i callbacks.obj
 0001:00006d30       ??0DeliveryReport@Callbacks@NodeKafka@@QEAA@AEAVMessage@RdKafka@@_N@Z 0000000180007d30 f   callbacks.obj
 0001:00006ff0       ??_GDelivery@Callbacks@NodeKafka@@UEAAPEAXI@Z 0000000180007ff0 f i callbacks.obj
 0001:00006ff0       ??_EDelivery@Callbacks@NodeKafka@@UEAAPEAXI@Z 0000000180007ff0 f i * CIL library *:* CIL module *
 0001:00007060       ?dr_cb@Delivery@Callbacks@NodeKafka@@UEAAXAEAVMessage@RdKafka@@@Z 0000000180008060 f   callbacks.obj
 0001:000070f0       ??1RebalanceDispatcher@Callbacks@NodeKafka@@QEAA@XZ 00000001800080f0 f   callbacks.obj
 0001:00007170       ?Add@RebalanceDispatcher@Callbacks@NodeKafka@@QEAAXAEBUrebalance_event_t@23@@Z 0000000180008170 f   callbacks.obj
 0001:00007170       ?Add@OffsetCommitDispatcher@Callbacks@NodeKafka@@QEAAXAEBUoffset_commit_event_t@23@@Z 0000000180008170 f   callbacks.obj
 0001:00007210       ?Flush@RebalanceDispatcher@Callbacks@NodeKafka@@UEAAXXZ 0000000180008210 f   callbacks.obj
 0001:00007480       ??_GRebalance@Callbacks@NodeKafka@@UEAAPEAXI@Z 0000000180008480 f i callbacks.obj
 0001:00007480       ??_ERebalance@Callbacks@NodeKafka@@UEAAPEAXI@Z 0000000180008480 f i * CIL library *:* CIL module *
 0001:000074d0       ?rebalance_cb@Rebalance@Callbacks@NodeKafka@@UEAAXPEAVKafkaConsumer@RdKafka@@W4ErrorCode@5@AEAV?$vector@PEAVTopicPartition@RdKafka@@V?$allocator@PEAVTopicPartition@RdKafka@@@std@@@std@@@Z 00000001800084d0 f   callbacks.obj
 0001:00007530       ??1OffsetCommitDispatcher@Callbacks@NodeKafka@@QEAA@XZ 0000000180008530 f   callbacks.obj
 0001:000075b0       ?Flush@OffsetCommitDispatcher@Callbacks@NodeKafka@@UEAAXXZ 00000001800085b0 f   callbacks.obj
 0001:000077e0       ??_EOffsetCommit@Callbacks@NodeKafka@@UEAAPEAXI@Z 00000001800087e0 f i * CIL library *:* CIL module *
 0001:000077e0       ??_GOffsetCommit@Callbacks@NodeKafka@@UEAAPEAXI@Z 00000001800087e0 f i callbacks.obj
 0001:00007830       ?offset_commit_cb@OffsetCommit@Callbacks@NodeKafka@@UEAAXW4ErrorCode@RdKafka@@AEAV?$vector@PEAVTopicPartition@RdKafka@@V?$allocator@PEAVTopicPartition@RdKafka@@@std@@@std@@@Z 0000000180008830 f   callbacks.obj
 0001:00007880       ??_EPartitioner@Callbacks@NodeKafka@@UEAAPEAXI@Z 0000000180008880 f i * CIL library *:* CIL module *
 0001:00007880       ??_GPartitioner@Callbacks@NodeKafka@@UEAAPEAXI@Z 0000000180008880 f i callbacks.obj
 0001:000078e0       ?partitioner_cb@Partitioner@Callbacks@NodeKafka@@UEAAHPEBVTopic@RdKafka@@PEBV?$basic_string@DU?$char_traits@D@std@@V?$allocator@D@2@@std@@HPEAX@Z 00000001800088e0 f   callbacks.obj
 0001:00007b80       ??0?$vector@Uevent_topic_partition_t@Callbacks@NodeKafka@@V?$allocator@Uevent_topic_partition_t@Callbacks@NodeKafka@@@std@@@std@@QEAA@AEBV01@@Z 0000000180008b80 f i callbacks.obj
 0001:00007c40       ?push_back@?$vector@V?$Persistent@VFunction@v8@@U?$CopyablePersistentTraits@VFunction@v8@@@2@@v8@@V?$allocator@V?$Persistent@VFunction@v8@@U?$CopyablePersistentTraits@VFunction@v8@@@2@@v8@@@std@@@std@@QEAAX$$QEAV?$Persistent@VFunction@v8@@U?$CopyablePersistentTraits@VFunction@v8@@@2@@v8@@@Z 0000000180008c40 f i callbacks.obj
 0001:00007d00       ??0?$vector@PEAVTopicPartition@RdKafka@@V?$allocator@PEAVTopicPartition@RdKafka@@@std@@@std@@QEAA@AEBV01@@Z 0000000180008d00 f i callbacks.obj
 0001:00007db0       ??4?$basic_string@DU?$char_traits@D@std@@V?$allocator@D@2@@std@@QEAAAEAV01@$$QEAV01@@Z 0000000180008db0 f i callbacks.obj
 0001:00007e60       ?_Reserve@?$vector@Uoffset_commit_event_t@Callbacks@NodeKafka@@V?$allocator@Uoffset_commit_event_t@Callbacks@NodeKafka@@@std@@@std@@IEAAX_K@Z 0000000180008e60 f i callbacks.obj
 0001:00007e60       ?_Reserve@?$vector@Urebalance_event_t@Callbacks@NodeKafka@@V?$allocator@Urebalance_event_t@Callbacks@NodeKafka@@@std@@@std@@IEAAX_K@Z 0000000180008e60 f i callbacks.obj
 0001:00007ef0       ?_Tidy@?$vector@Uevent_topic_partition_t@Callbacks@NodeKafka@@V?$allocator@Uevent_topic_partition_t@Callbacks@NodeKafka@@@std@@@std@@IEAAXXZ 0000000180008ef0 f i callbacks.obj
 0001:00007f70       ?_Reserve@?$vector@Uevent_topic_partition_t@Callbacks@NodeKafka@@V?$allocator@Uevent_topic_partition_t@Callbacks@NodeKafka@@@std@@@std@@IEAAX_K@Z 0000000180008f70 f i callbacks.obj
 0001:00008040       ?_Tidy@?$vector@VDeliveryReport@Callbacks@NodeKafka@@V?$allocator@VDeliveryReport@Callbacks@NodeKafka@@@std@@@std@@IEAAXXZ 0000000180009040 f i callbacks.obj
 0001:000080d0       ?_Reserve@?$vector@VDeliveryReport@Callbacks@NodeKafka@@V?$allocator@VDeliveryReport@Callbacks@NodeKafka@@@std@@@std@@IEAAX_K@Z 00000001800090d0 f i callbacks.obj
 0001:000081a0       ?_Tidy@?$vector@Uevent_t@Callbacks@NodeKafka@@V?$allocator@Uevent_t@Callbacks@NodeKafka@@@std@@@std@@IEAAXXZ 00000001800091a0 f i callbacks.obj
 0001:00008240       ?_Reserve@?$vector@Uevent_t@Callbacks@NodeKafka@@V?$allocator@Uevent_t@Callbacks@NodeKafka@@@std@@@std@@IEAAX_K@Z 0000000180009240 f i callbacks.obj
 0001:00008310       ?_Tidy@?$vector@V?$Persistent@VFunction@v8@@U?$CopyablePersistentTraits@VFunction@v8@@@2@@v8@@V?$allocator@V?$Persistent@VFunction@v8@@U?$CopyablePersistentTraits@VFunction@v8@@@2@@v8@@@std@@@std@@IEAAXXZ 0000000180009310 f i callbacks.obj
 0001:00008390       ?_Reserve@?$vector@V?$Persistent@VFunction@v8@@U?$CopyablePersistentTraits@VFunction@v8@@@2@@v8@@V?$allocator@V?$Persistent@VFunction@v8@@U?$CopyablePersistentTraits@VFunction@v8@@@2@@v8@@@std@@@std@@IEAAX_K@Z 0000000180009390 f i callbacks.obj
 0001:00008420       ?_Assign_rv@?$basic_string@DU?$char_traits@D@std@@V?$allocator@D@2@@std@@QEAAX$$QEAV12@@Z 0000000180009420 f i callbacks.obj
 0001:000084a0       ?deallocate@?$_Wrap_alloc@V?$allocator@V?$basic_string@DU?$char_traits@D@std@@V?$allocator@D@2@@std@@@std@@@std@@QEAAXPEAV?$basic_string@DU?$char_traits@D@std@@V?$allocator@D@2@@2@_K@Z 00000001800094a0 f i common.obj
 0001:000084a0       ?deallocate@?$_Wrap_alloc@V?$allocator@Urebalance_event_t@Callbacks@NodeKafka@@@std@@@std@@QEAAXPEAUrebalance_event_t@Callbacks@NodeKafka@@_K@Z 00000001800094a0 f i callbacks.obj
 0001:000084a0       ?deallocate@?$_Wrap_alloc@V?$allocator@Uoffset_commit_event_t@Callbacks@NodeKafka@@@std@@@std@@QEAAXPEAUoffset_commit_event_t@Callbacks@NodeKafka@@_K@Z 00000001800094a0 f i callbacks.obj
 0001:00008510       ?_Reallocate@?$vector@Urebalance_event_t@Callbacks@NodeKafka@@V?$allocator@Urebalance_event_t@Callbacks@NodeKafka@@@std@@@std@@IEAAX_K@Z 0000000180009510 f i callbacks.obj
 0001:00008510       ?_Reallocate@?$vector@Uoffset_commit_event_t@Callbacks@NodeKafka@@V?$allocator@Uoffset_commit_event_t@Callbacks@NodeKafka@@@std@@@std@@IEAAX_K@Z 0000000180009510 f i callbacks.obj
 0001:00008670       ?deallocate@?$_Wrap_alloc@V?$allocator@V?$Persistent@VFunction@v8@@U?$CopyablePersistentTraits@VFunction@v8@@@2@@v8@@@std@@@std@@QEAAXPEAV?$Persistent@VFunction@v8@@U?$CopyablePersistentTraits@VFunction@v8@@@2@@v8@@_K@Z 0000000180009670 f i callbacks.obj
 0001:00008670       ?deallocate@?$_Wrap_alloc@V?$allocator@PEAVMessage@RdKafka@@@std@@@std@@QEAAXPEAPEAVMessage@RdKafka@@_K@Z 0000000180009670 f i workers.obj
 0001:00008670       ?deallocate@?$_Wrap_alloc@V?$allocator@PEAVTopicPartition@RdKafka@@@std@@@std@@QEAAXPEAPEAVTopicPartition@RdKafka@@_K@Z 0000000180009670 f i callbacks.obj
 0001:000086e0       ?allocate@?$_Wrap_alloc@V?$allocator@PEAVTopicPartition@RdKafka@@@std@@@std@@QEAAPEAPEAVTopicPartition@RdKafka@@_K@Z 00000001800096e0 f i callbacks.obj
 0001:00008750       ?deallocate@?$_Wrap_alloc@V?$allocator@Uevent_topic_partition_t@Callbacks@NodeKafka@@@std@@@std@@QEAAXPEAUevent_topic_partition_t@Callbacks@NodeKafka@@_K@Z 0000000180009750 f i callbacks.obj
 0001:000087c0       ?allocate@?$_Wrap_alloc@V?$allocator@Uevent_topic_partition_t@Callbacks@NodeKafka@@@std@@@std@@QEAAPEAUevent_topic_partition_t@Callbacks@NodeKafka@@_K@Z 00000001800097c0 f i callbacks.obj
 0001:00008830       ?_Reallocate@?$vector@Uevent_topic_partition_t@Callbacks@NodeKafka@@V?$allocator@Uevent_topic_partition_t@Callbacks@NodeKafka@@@std@@@std@@IEAAX_K@Z 0000000180009830 f i callbacks.obj
 0001:00008970       ?deallocate@?$_Wrap_alloc@V?$allocator@VDeliveryReport@Callbacks@NodeKafka@@@std@@@std@@QEAAXPEAVDeliveryReport@Callbacks@NodeKafka@@_K@Z 0000000180009970 f i callbacks.obj
 0001:000089e0       ?_Reallocate@?$vector@VDeliveryReport@Callbacks@NodeKafka@@V?$allocator@VDeliveryReport@Callbacks@NodeKafka@@@std@@@std@@IEAAX_K@Z 00000001800099e0 f i callbacks.obj
 0001:00008b60       ?deallocate@?$_Wrap_alloc@V?$allocator@Uevent_t@Callbacks@NodeKafka@@@std@@@std@@QEAAXPEAUevent_t@Callbacks@NodeKafka@@_K@Z 0000000180009b60 f i callbacks.obj
 0001:00008bd0       ?_Reallocate@?$vector@Uevent_t@Callbacks@NodeKafka@@V?$allocator@Uevent_t@Callbacks@NodeKafka@@@std@@@std@@IEAAX_K@Z 0000000180009bd0 f i callbacks.obj
 0001:00008d40       ?_Reallocate@?$vector@V?$Persistent@VFunction@v8@@U?$CopyablePersistentTraits@VFunction@v8@@@2@@v8@@V?$allocator@V?$Persistent@VFunction@v8@@U?$CopyablePersistentTraits@VFunction@v8@@@2@@v8@@@std@@@std@@IEAAX_K@Z 0000000180009d40 f i callbacks.obj
 0001:00008e80       ??$_Uninitialized_copy_al_unchecked@PEBUevent_topic_partition_t@Callbacks@NodeKafka@@PEAU123@V?$allocator@Uevent_topic_partition_t@Callbacks@NodeKafka@@@std@@@std@@YAPEAUevent_topic_partition_t@Callbacks@NodeKafka@@PEBU123@0PEAU123@AEAU?$_Wrap_alloc@V?$allocator@Uevent_topic_partition_t@Callbacks@NodeKafka@@@std@@@0@@Z 0000000180009e80 f i callbacks.obj
 0001:00008f20       ??$_Uninitialized_move_al_unchecked@PEAUevent_topic_partition_t@Callbacks@NodeKafka@@PEAU123@V?$allocator@Uevent_topic_partition_t@Callbacks@NodeKafka@@@std@@@std@@YAPEAUevent_topic_partition_t@Callbacks@NodeKafka@@PEAU123@00AEAU?$_Wrap_alloc@V?$allocator@Uevent_topic_partition_t@Callbacks@NodeKafka@@@std@@@0@@Z 0000000180009f20 f i callbacks.obj
 0001:00008fb0       ??0event_t@Callbacks@NodeKafka@@QEAA@AEBU012@@Z 0000000180009fb0 f i callbacks.obj
 0001:00009060       ?what@exception@stdext@@UEBAPEBDXZ 000000018000a060 f i common.obj
 0001:00009080       ?imbue@?$basic_streambuf@DU?$char_traits@D@std@@@std@@MEAAXAEBVlocale@2@@Z 000000018000a080 f i libcpmt:cerr.obj
 0001:00009080       _guard_check_icall_nop     000000018000a080 f i LIBCMT:guard_support.obj
 0001:00009080       ?_Unlock@?$basic_streambuf@DU?$char_traits@D@std@@@std@@UEAAXXZ 000000018000a080 f i libcpmt:cerr.obj
 0001:00009080       __except_validate_context_record 000000018000a080 f i libvcruntime:jbcxrval.obj
 0001:00009080       ?_Lock@?$basic_streambuf@DU?$char_traits@D@std@@@std@@UEAAXXZ 000000018000a080 f i libcpmt:cerr.obj
 0001:00009080       ?_Doraise@exception@stdext@@MEBAXXZ 000000018000a080 f i common.obj
 0001:00009090       ??_Gexception@stdext@@UEAAPEAXI@Z 000000018000a090 f i common.obj
 0001:00009090       ??_Eruntime_error@std@@UEAAPEAXI@Z 000000018000a090 f i * CIL library *:* CIL module *
 0001:00009090       ??_Eexception@stdext@@UEAAPEAXI@Z 000000018000a090 f i * CIL library *:* CIL module *
 0001:00009090       ??_Gruntime_error@std@@UEAAPEAXI@Z 000000018000a090 f i common.obj
 0001:000090c0       ?_Doraise@runtime_error@std@@MEBAXXZ 000000018000a0c0 f i common.obj
 0001:000090c0       ?_Doraise@system_error@std@@MEBAXXZ 000000018000a0c0 f i common.obj
 0001:000090c0       ?_Doraise@failure@ios_base@std@@MEBAXXZ 000000018000a0c0 f i common.obj
 0001:000090e0       ??0_Locinfo@std@@QEAA@PEBD@Z 000000018000a0e0 f i common.obj
 0001:000091a0       ??1_Locinfo@std@@QEAA@XZ   000000018000a1a0 f i common.obj
 0001:00009240       ??_E_Facet_base@std@@UEAAPEAXI@Z 000000018000a240 f i * CIL library *:* CIL module *
 0001:00009240       ??_G_Facet_base@std@@UEAAPEAXI@Z 000000018000a240 f i common.obj
 0001:00009270       ?_Incref@facet@locale@std@@UEAAXXZ 000000018000a270 f i common.obj
 0001:00009280       ?_Decref@facet@locale@std@@UEAAPEAV_Facet_base@3@XZ 000000018000a280 f i common.obj
 0001:00009290       ?_Getcat@?$ctype@D@std@@SA_KPEAPEBVfacet@locale@2@PEBV42@@Z 000000018000a290 f i common.obj
 0001:00009350       ?do_tolower@?$ctype@D@std@@MEBADD@Z 000000018000a350 f i common.obj
 0001:00009360       ?do_tolower@?$ctype@D@std@@MEBAPEBDPEADPEBD@Z 000000018000a360 f i common.obj
 0001:000093c0       ?do_toupper@?$ctype@D@std@@MEBADD@Z 000000018000a3c0 f i common.obj
 0001:000093d0       ?do_toupper@?$ctype@D@std@@MEBAPEBDPEADPEBD@Z 000000018000a3d0 f i common.obj
 0001:00009430       ?do_widen@?$ctype@D@std@@MEBADD@Z 000000018000a430 f i common.obj
 0001:00009430       ?do_narrow@?$ctype@D@std@@MEBADDD@Z 000000018000a430 f i common.obj
 0001:00009440       ?do_widen@?$ctype@D@std@@MEBAPEBDPEBD0PEAD@Z 000000018000a440 f i common.obj
 0001:00009460       ?do_narrow@?$ctype@D@std@@MEBAPEBDPEBD0DPEAD@Z 000000018000a460 f i common.obj
 0001:00009480       ??_E?$ctype@D@std@@MEAAPEAXI@Z 000000018000a480 f i * CIL library *:* CIL module *
 0001:00009480       ??_G?$ctype@D@std@@MEAAPEAXI@Z 000000018000a480 f i common.obj
 0001:000094f0       ??_Eerror_category@std@@UEAAPEAXI@Z 000000018000a4f0 f i * CIL library *:* CIL module *
 0001:000094f0       ??_G_Iostream_error_category@std@@UEAAPEAXI@Z 000000018000a4f0 f i common.obj
 0001:000094f0       ??_E_Iostream_error_category@std@@UEAAPEAXI@Z 000000018000a4f0 f i * CIL library *:* CIL module *
 0001:000094f0       ??_Gerror_category@std@@UEAAPEAXI@Z 000000018000a4f0 f i common.obj
 0001:00009520       ?default_error_condition@error_category@std@@UEBA?AVerror_condition@2@H@Z 000000018000a520 f i common.obj
 0001:00009530       ?equivalent@error_category@std@@UEBA_NHAEBVerror_condition@2@@Z 000000018000a530 f i common.obj
 0001:00009570       ?equivalent@error_category@std@@UEBA_NAEBVerror_code@2@H@Z 000000018000a570 f i common.obj
 0001:00009590       ?_Makestr@_System_error@std@@CA?AV?$basic_string@DU?$char_traits@D@std@@V?$allocator@D@2@@2@Verror_code@2@V32@@Z 000000018000a590 f i common.obj
 0001:00009690       ??0_System_error@std@@IEAA@Verror_code@1@AEBV?$basic_string@DU?$char_traits@D@std@@V?$allocator@D@2@@1@@Z 000000018000a690 f i common.obj
 0001:000097a0       ??_G_System_error@std@@UEAAPEAXI@Z 000000018000a7a0 f i common.obj
 0001:000097a0       ??_E_System_error@std@@UEAAPEAXI@Z 000000018000a7a0 f i * CIL library *:* CIL module *
 0001:000097a0       ??_Gfailure@ios_base@std@@UEAAPEAXI@Z 000000018000a7a0 f i common.obj
 0001:000097a0       ??_Esystem_error@std@@UEAAPEAXI@Z 000000018000a7a0 f i * CIL library *:* CIL module *
 0001:000097a0       ??_Efailure@ios_base@std@@UEAAPEAXI@Z 000000018000a7a0 f i * CIL library *:* CIL module *
 0001:000097a0       ??_Gsystem_error@std@@UEAAPEAXI@Z 000000018000a7a0 f i common.obj
 0001:000097d0       ??0system_error@std@@QEAA@Verror_code@1@PEBD@Z 000000018000a7d0 f i common.obj
 0001:000098d0       ?name@_Iostream_error_category@std@@UEBAPEBDXZ 000000018000a8d0 f i common.obj
 0001:000098e0       ?message@_Iostream_error_category@std@@UEBA?AV?$basic_string@DU?$char_traits@D@std@@V?$allocator@D@2@@2@H@Z 000000018000a8e0 f i common.obj
 0001:00009960       ?clear@ios_base@std@@QEAAXH_N@Z 000000018000a960 f i common.obj
 0001:00009ae0       ??0Utf8String@Nan@@QEAA@V?$Local@VValue@v8@@@v8@@@Z 000000018000aae0 f i common.obj
 0001:00009bf0       ??$GetParameter@_J@NodeKafka@@YA_JV?$Local@VObject@v8@@@v8@@V?$basic_string@DU?$char_traits@D@std@@V?$allocator@D@2@@std@@_J@Z 000000018000abf0 f   common.obj
 0001:00009db0       ??$GetParameter@_N@NodeKafka@@YA_NV?$Local@VObject@v8@@@v8@@V?$basic_string@DU?$char_traits@D@std@@V?$allocator@D@2@@std@@_N@Z 000000018000adb0 f   common.obj
 0001:00009f60       ??$GetParameter@V?$basic_string@DU?$char_traits@D@std@@V?$allocator@D@2@@std@@@NodeKafka@@YA?AV?$basic_string@DU?$char_traits@D@std@@V?$allocator@D@2@@std@@V?$Local@VObject@v8@@@v8@@V12@1@Z 000000018000af60 f   common.obj
 0001:0000a240       ?ToStringVector@Topic@Conversion@NodeKafka@@YA?AV?$vector@V?$basic_string@DU?$char_traits@D@std@@V?$allocator@D@2@@std@@V?$allocator@V?$basic_string@DU?$char_traits@D@std@@V?$allocator@D@2@@std@@@2@@std@@V?$Local@VArray@v8@@@v8@@@Z 000000018000b240 f   common.obj
 0001:0000a5a0       ?ToV8Array@Topic@Conversion@NodeKafka@@YA?AV?$Local@VArray@v8@@@v8@@V?$vector@V?$basic_string@DU?$char_traits@D@std@@V?$allocator@D@2@@std@@V?$allocator@V?$basic_string@DU?$char_traits@D@std@@V?$allocator@D@2@@std@@@2@@std@@@Z 000000018000b5a0 f   common.obj
 0001:0000a7d0       ?ToV8Array@TopicPartition@Conversion@NodeKafka@@YA?AV?$Local@VArray@v8@@@v8@@AEAV?$vector@PEAVTopicPartition@RdKafka@@V?$allocator@PEAVTopicPartition@RdKafka@@@std@@@std@@@Z 000000018000b7d0 f   common.obj
 0001:0000ac60       ?FromV8Array@TopicPartition@Conversion@NodeKafka@@YA?AV?$vector@PEAVTopicPartition@RdKafka@@V?$allocator@PEAVTopicPartition@RdKafka@@@std@@@std@@AEBV?$Local@VArray@v8@@@v8@@@Z 000000018000bc60 f   common.obj
 0001:0000ad80       ?FromV8Object@TopicPartition@Conversion@NodeKafka@@YAPEAV1RdKafka@@V?$Local@VObject@v8@@@v8@@@Z 000000018000bd80 f   common.obj
 0001:0000af40       ?ToV8Object@Metadata@Conversion@NodeKafka@@YA?AV?$Local@VObject@v8@@@v8@@PEAV1RdKafka@@@Z 000000018000bf40 f   common.obj
 0001:0000bcd0       ?ToV8Object@Message@Conversion@NodeKafka@@YA?AV?$Local@VObject@v8@@@v8@@PEAV1RdKafka@@_N@Z 000000018000ccd0 f   common.obj
 0001:0000c400       ?push_back@?$vector@V?$basic_string@DU?$char_traits@D@std@@V?$allocator@D@2@@std@@V?$allocator@V?$basic_string@DU?$char_traits@D@std@@V?$allocator@D@2@@std@@@2@@std@@QEAAXAEBV?$basic_string@DU?$char_traits@D@std@@V?$allocator@D@2@@2@@Z 000000018000d400 f i common.obj
 0001:0000c560       ??1?$vector@V?$basic_string@DU?$char_traits@D@std@@V?$allocator@D@2@@std@@V?$allocator@V?$basic_string@DU?$char_traits@D@std@@V?$allocator@D@2@@std@@@2@@std@@QEAA@XZ 000000018000d560 f i common.obj
 0001:0000c5d0       ?push_back@?$vector@PEAVTopicPartition@RdKafka@@V?$allocator@PEAVTopicPartition@RdKafka@@@std@@@std@@QEAAX$$QEAPEAVTopicPartition@RdKafka@@@Z 000000018000d5d0 f i common.obj
 0001:0000c5d0       ?push_back@?$vector@PEAVTopicPartition@RdKafka@@V?$allocator@PEAVTopicPartition@RdKafka@@@std@@@std@@QEAAXAEBQEAVTopicPartition@RdKafka@@@Z 000000018000d5d0 f i kafka-consumer.obj
 0001:0000c5d0       ?push_back@?$vector@PEAVMessage@RdKafka@@V?$allocator@PEAVMessage@RdKafka@@@std@@@std@@QEAAX$$QEAPEAVMessage@RdKafka@@@Z 000000018000d5d0 f i workers.obj
 0001:0000c5d0       ?push_back@?$vector@PEAVMessage@RdKafka@@V?$allocator@PEAVMessage@RdKafka@@@std@@@std@@QEAAXAEBQEAVMessage@RdKafka@@@Z 000000018000d5d0 f i workers.obj
 0001:0000c740       ?append@?$basic_string@DU?$char_traits@D@std@@V?$allocator@D@2@@std@@QEAAAEAV12@PEBD_K@Z 000000018000d740 f i common.obj
 0001:0000c890       ?append@?$basic_string@DU?$char_traits@D@std@@V?$allocator@D@2@@std@@QEAAAEAV12@AEBV12@_K1@Z 000000018000d890 f i common.obj
 0001:0000c9c0       ?_Reallocate@?$vector@V?$basic_string@DU?$char_traits@D@std@@V?$allocator@D@2@@std@@V?$allocator@V?$basic_string@DU?$char_traits@D@std@@V?$allocator@D@2@@std@@@2@@std@@IEAAX_K@Z 000000018000d9c0 f i common.obj
 0001:0000cb00       ?_Reallocate@?$vector@PEAVTopicPartition@RdKafka@@V?$allocator@PEAVTopicPartition@RdKafka@@@std@@@std@@IEAAX_K@Z 000000018000db00 f i common.obj
 0001:0000cb00       ?_Reallocate@?$vector@PEAVMessage@RdKafka@@V?$allocator@PEAVMessage@RdKafka@@@std@@@std@@IEAAX_K@Z 000000018000db00 f i workers.obj
 0001:0000cbe0       ?allocate@?$_Wrap_alloc@V?$allocator@V?$basic_string@DU?$char_traits@D@std@@V?$allocator@D@2@@std@@@std@@@std@@QEAAPEAV?$basic_string@DU?$char_traits@D@std@@V?$allocator@D@2@@2@_K@Z 000000018000dbe0 f i common.obj
 0001:0000cc50       ??$use_facet@V?$ctype@D@std@@@std@@YAAEBV?$ctype@D@0@AEBVlocale@0@@Z 000000018000dc50 f i common.obj
 0001:0000cd60       ??$_Immortalize@V_Iostream_error_category@std@@@std@@YAAEAV_Iostream_error_category@0@XZ 000000018000dd60 f i common.obj
 0001:0000cde0       ??$?6U?$char_traits@D@std@@@std@@YAAEAV?$basic_ostream@DU?$char_traits@D@std@@@0@AEAV10@PEBD@Z 000000018000dde0 f i common.obj
 0001:0000d030       ??$endl@DU?$char_traits@D@std@@@std@@YAAEAV?$basic_ostream@DU?$char_traits@D@std@@@0@AEAV10@@Z 000000018000e030 f i common.obj
 0001:0000d0c0       ??0sentry@?$basic_ostream@DU?$char_traits@D@std@@@std@@QEAA@AEAV12@@Z 000000018000e0c0 f i common.obj
 0001:0000d130       ?flush@?$basic_ostream@DU?$char_traits@D@std@@@std@@QEAAAEAV12@XZ 000000018000e130 f i common.obj
 0001:0000d220       ?put@?$basic_ostream@DU?$char_traits@D@std@@@std@@QEAAAEAV12@D@Z 000000018000e220 f i common.obj
 0001:0000d370       ?widen@?$basic_ios@DU?$char_traits@D@std@@@std@@QEBADD@Z 000000018000e370 f i common.obj
 0001:0000d3e0       ?create@Conf@NodeKafka@@SAPEAV12@W4ConfType@1RdKafka@@V?$Local@VObject@v8@@@v8@@AEAV?$basic_string@DU?$char_traits@D@std@@V?$allocator@D@2@@std@@@Z 000000018000e3e0 f   config.obj
 0001:0000dc40       ?listen@Conf@NodeKafka@@QEAAXXZ 000000018000ec40 f   config.obj
 0001:0000dcf0       ?ThrowError@Nan@@YAXPEBD@Z 000000018000ecf0 f i connection.obj
 0001:0000dd80       ?AsyncExecute@Nan@@YAXPEAUuv_work_s@@@Z 000000018000ed80 f i connection.obj
 0001:0000dd90       ?AsyncExecuteComplete@Nan@@YAXPEAUuv_work_s@@@Z 000000018000ed90 f i connection.obj
 0001:0000ddc0       ?AsyncQueueWorker@Nan@@YAXPEAVAsyncWorker@1@@Z 000000018000edc0 f i connection.obj
 0001:0000de00       ??1ObjectWrap@Nan@@UEAA@XZ 000000018000ee00 f i connection.obj
 0001:0000de70       ?Ref@ObjectWrap@Nan@@MEAAXXZ 000000018000ee70 f i connection.obj
 0001:0000deb0       ?Unref@ObjectWrap@Nan@@MEAAXXZ 000000018000eeb0 f i connection.obj
 0001:0000df60       ?WeakCallback@ObjectWrap@Nan@@CAXAEBV?$WeakCallbackInfo@VObjectWrap@Nan@@@v8@@@Z 000000018000ef60 f i connection.obj
 0001:0000dff0       ??_GObjectWrap@Nan@@UEAAPEAXI@Z 000000018000eff0 f i connection.obj
 0001:0000dff0       ??_EObjectWrap@Nan@@UEAAPEAXI@Z 000000018000eff0 f i * CIL library *:* CIL module *
 0001:0000e030       ??0Connection@NodeKafka@@IEAA@PEAVConf@1@0@Z 000000018000f030 f   connection.obj
 0001:0000e230       ??_GConnection@NodeKafka@@MEAAPEAXI@Z 000000018000f230 f i connection.obj
 0001:0000e230       ??_EConnection@NodeKafka@@MEAAPEAXI@Z 000000018000f230 f i * CIL library *:* CIL module *
 0001:0000e270       ??1Connection@NodeKafka@@MEAA@XZ 000000018000f270 f   connection.obj
 0001:0000e320       ?CreateTopic@Connection@NodeKafka@@QEAA?AVBaton@2@V?$basic_string@DU?$char_traits@D@std@@V?$allocator@D@2@@std@@PEAVConf@RdKafka@@@Z 000000018000f320 f   connection.obj
 0001:0000e5b0       ?QueryWatermarkOffsets@Connection@NodeKafka@@QEAA?AVBaton@2@V?$basic_string@DU?$char_traits@D@std@@V?$allocator@D@2@@std@@HPEA_J1H@Z 000000018000f5b0 f   connection.obj
 0001:0000e6a0       ?OffsetsForTimes@Connection@NodeKafka@@QEAA?AVBaton@2@AEAV?$vector@PEAVTopicPartition@RdKafka@@V?$allocator@PEAVTopicPartition@RdKafka@@@std@@@std@@H@Z 000000018000f6a0 f   connection.obj
 0001:0000e770       ?GetMetadata@Connection@NodeKafka@@QEAA?AVBaton@2@_NV?$basic_string@DU?$char_traits@D@std@@V?$allocator@D@2@@std@@H@Z 000000018000f770 f   connection.obj
 0001:0000e930       ?NodeGetMetadata@Connection@NodeKafka@@KAXAEBV?$FunctionCallbackInfo@VValue@v8@@@Nan@@@Z 000000018000f930 f   connection.obj
 0001:0000eca0       ?NodeOffsetsForTimes@Connection@NodeKafka@@KAXAEBV?$FunctionCallbackInfo@VValue@v8@@@Nan@@@Z 000000018000fca0 f   connection.obj
 0001:0000ef40       ?NodeQueryWatermarkOffsets@Connection@NodeKafka@@KAXAEBV?$FunctionCallbackInfo@VValue@v8@@@Nan@@@Z 000000018000ff40 f   connection.obj
 0001:0000f310       ?NodeOnEvent@Connection@NodeKafka@@KAXAEBV?$FunctionCallbackInfo@VValue@v8@@@Nan@@@Z 0000000180010310 f   connection.obj
 0001:0000f400       ??$Unwrap@VConnection@NodeKafka@@@ObjectWrap@Nan@@SAPEAVConnection@NodeKafka@@V?$Local@VObject@v8@@@v8@@@Z 0000000180010400 f i connection.obj
 0001:0000f400       ??$Unwrap@VKafkaConsumer@NodeKafka@@@ObjectWrap@Nan@@SAPEAVKafkaConsumer@NodeKafka@@V?$Local@VObject@v8@@@v8@@@Z 0000000180010400 f i kafka-consumer.obj
 0001:0000f400       ??$Unwrap@VTopic@NodeKafka@@@ObjectWrap@Nan@@SAPEAVTopic@NodeKafka@@V?$Local@VObject@v8@@@v8@@@Z 0000000180010400 f i producer.obj
 0001:0000f400       ??$Unwrap@VProducer@NodeKafka@@@ObjectWrap@Nan@@SAPEAVProducer@NodeKafka@@V?$Local@VObject@v8@@@v8@@@Z 0000000180010400 f i producer.obj
 0001:0000f490       ?RdKafkaError@NodeKafka@@YA?AV?$Local@VObject@v8@@@v8@@AEBW4ErrorCode@RdKafka@@V?$basic_string@DU?$char_traits@D@std@@V?$allocator@D@2@@std@@@Z 0000000180010490 f   errors.obj
 0001:0000f650       __local_stdio_printf_options 0000000180010650 f i kafka-consumer.obj
 0001:0000f660       ?SetPrototypeMethod@Nan@@YAXV?$Local@VFunctionTemplate@v8@@@v8@@PEBDP6AXAEBV?$FunctionCallbackInfo@VValue@v8@@@1@@Z@Z 0000000180010660 f i kafka-consumer.obj
 0001:0000f750       ?Wrap@ObjectWrap@Nan@@IEAAXV?$Local@VObject@v8@@@v8@@@Z 0000000180010750 f i kafka-consumer.obj
 0001:0000f830       ??0KafkaConsumer@NodeKafka@@IEAA@PEAVConf@1@0@Z 0000000180010830 f   kafka-consumer.obj
 0001:0000f9a0       ??_EKafkaConsumer@NodeKafka@@MEAAPEAXI@Z 00000001800109a0 f i * CIL library *:* CIL module *
 0001:0000f9a0       ??_GKafkaConsumer@NodeKafka@@MEAAPEAXI@Z 00000001800109a0 f i kafka-consumer.obj
 0001:0000f9e0       ??1KafkaConsumer@NodeKafka@@MEAA@XZ 00000001800109e0 f   kafka-consumer.obj
 0001:0000fa70       ?Connect@KafkaConsumer@NodeKafka@@QEAA?AVBaton@2@XZ 0000000180010a70 f   kafka-consumer.obj
 0001:0000fc60       ?ActivateDispatchers@KafkaConsumer@NodeKafka@@UEAAXXZ 0000000180010c60 f   kafka-consumer.obj
 0001:0000fcc0       ?Disconnect@KafkaConsumer@NodeKafka@@QEAA?AVBaton@2@XZ 0000000180010cc0 f   kafka-consumer.obj
 0001:0000fda0       ?DeactivateDispatchers@KafkaConsumer@NodeKafka@@UEAAXXZ 0000000180010da0 f   kafka-consumer.obj
 0001:0000fe30       ?Assign@KafkaConsumer@NodeKafka@@QEAA?AVBaton@2@V?$vector@PEAVTopicPartition@RdKafka@@V?$allocator@PEAVTopicPartition@RdKafka@@@std@@@std@@@Z 0000000180010e30 f   kafka-consumer.obj
 0001:0000ffc0       ?Unassign@KafkaConsumer@NodeKafka@@QEAA?AVBaton@2@XZ 0000000180010fc0 f   kafka-consumer.obj
 0001:000100c0       ?Commit@KafkaConsumer@NodeKafka@@QEAA?AVBaton@2@V?$vector@PEAVTopicPartition@RdKafka@@V?$allocator@PEAVTopicPartition@RdKafka@@@std@@@std@@@Z 00000001800110c0 f   kafka-consumer.obj
 0001:00010190       ?Commit@KafkaConsumer@NodeKafka@@QEAA?AVBaton@2@PEAVTopicPartition@RdKafka@@@Z 0000000180011190 f   kafka-consumer.obj
 0001:00010300       ?Commit@KafkaConsumer@NodeKafka@@QEAA?AVBaton@2@XZ 0000000180011300 f   kafka-consumer.obj
 0001:000103e0       ?CommitSync@KafkaConsumer@NodeKafka@@QEAA?AVBaton@2@V?$vector@PEAVTopicPartition@RdKafka@@V?$allocator@PEAVTopicPartition@RdKafka@@@std@@@std@@@Z 00000001800113e0 f   kafka-consumer.obj
 0001:000104f0       ?CommitSync@KafkaConsumer@NodeKafka@@QEAA?AVBaton@2@PEAVTopicPartition@RdKafka@@@Z 00000001800114f0 f   kafka-consumer.obj
 0001:00010620       ?CommitSync@KafkaConsumer@NodeKafka@@QEAA?AVBaton@2@XZ 0000000180011620 f   kafka-consumer.obj
 0001:00010700       ?Seek@KafkaConsumer@NodeKafka@@QEAA?AVBaton@2@AEBVTopicPartition@RdKafka@@H@Z 0000000180011700 f   kafka-consumer.obj
 0001:00010810       ?Committed@KafkaConsumer@NodeKafka@@QEAA?AVBaton@2@AEAV?$vector@PEAVTopicPartition@RdKafka@@V?$allocator@PEAVTopicPartition@RdKafka@@@std@@@std@@H@Z 0000000180011810 f   kafka-consumer.obj
 0001:00010920       ?Subscription@KafkaConsumer@NodeKafka@@QEAA?AVBaton@2@XZ 0000000180011920 f   kafka-consumer.obj
 0001:00010a60       ?Subscribe@KafkaConsumer@NodeKafka@@QEAA?AVBaton@2@V?$vector@V?$basic_string@DU?$char_traits@D@std@@V?$allocator@D@2@@std@@V?$allocator@V?$basic_string@DU?$char_traits@D@std@@V?$allocator@D@2@@std@@@2@@std@@@Z 0000000180011a60 f   kafka-consumer.obj
 0001:00010b30       ?Consume@KafkaConsumer@NodeKafka@@QEAA?AVBaton@2@H@Z 0000000180011b30 f   kafka-consumer.obj
 0001:00010d30       ?RefreshAssignments@KafkaConsumer@NodeKafka@@QEAA?AVBaton@2@XZ 0000000180011d30 f   kafka-consumer.obj
 0001:00010e90       ?Name@KafkaConsumer@NodeKafka@@QEAA?AV?$basic_string@DU?$char_traits@D@std@@V?$allocator@D@2@@std@@XZ 0000000180011e90 f   kafka-consumer.obj
 0001:00010e90       ?Name@Producer@NodeKafka@@QEAA?AV?$basic_string@DU?$char_traits@D@std@@V?$allocator@D@2@@std@@XZ 0000000180011e90 f   producer.obj
 0001:00010f80       ?Init@KafkaConsumer@NodeKafka@@SAXV?$Local@VObject@v8@@@v8@@@Z 0000000180011f80 f   kafka-consumer.obj
 0001:00011380       ?New@KafkaConsumer@NodeKafka@@KAXAEBV?$FunctionCallbackInfo@VValue@v8@@@Nan@@@Z 0000000180012380 f   kafka-consumer.obj
 0001:000115d0       ?NodeCommitted@KafkaConsumer@NodeKafka@@CAXAEBV?$FunctionCallbackInfo@VValue@v8@@@Nan@@@Z 00000001800125d0 f   kafka-consumer.obj
 0001:00011870       ?NodeSubscription@KafkaConsumer@NodeKafka@@CAXAEBV?$FunctionCallbackInfo@VValue@v8@@@Nan@@@Z 0000000180012870 f   kafka-consumer.obj
 0001:00011a30       ??_G?$vector@V?$basic_string@DU?$char_traits@D@std@@V?$allocator@D@2@@std@@V?$allocator@V?$basic_string@DU?$char_traits@D@std@@V?$allocator@D@2@@std@@@2@@std@@QEAAPEAXI@Z 0000000180012a30 f i kafka-consumer.obj
 0001:00011ab0       ?NodePosition@KafkaConsumer@NodeKafka@@CAXAEBV?$FunctionCallbackInfo@VValue@v8@@@Nan@@@Z 0000000180012ab0 f   kafka-consumer.obj
 0001:00011d10       ?NodeAssignments@KafkaConsumer@NodeKafka@@CAXAEBV?$FunctionCallbackInfo@VValue@v8@@@Nan@@@Z 0000000180012d10 f   kafka-consumer.obj
 0001:00011e20       ?NodeAssign@KafkaConsumer@NodeKafka@@CAXAEBV?$FunctionCallbackInfo@VValue@v8@@@Nan@@@Z 0000000180012e20 f   kafka-consumer.obj
 0001:000122c0       ?NodeUnassign@KafkaConsumer@NodeKafka@@CAXAEBV?$FunctionCallbackInfo@VValue@v8@@@Nan@@@Z 00000001800132c0 f   kafka-consumer.obj
 0001:00012440       ?NodeUnsubscribe@KafkaConsumer@NodeKafka@@CAXAEBV?$FunctionCallbackInfo@VValue@v8@@@Nan@@@Z 0000000180013440 f   kafka-consumer.obj
 0001:00012570       ?NodeCommit@KafkaConsumer@NodeKafka@@CAXAEBV?$FunctionCallbackInfo@VValue@v8@@@Nan@@@Z 0000000180013570 f   kafka-consumer.obj
 0001:00012860       ?NodeCommitSync@KafkaConsumer@NodeKafka@@CAXAEBV?$FunctionCallbackInfo@VValue@v8@@@Nan@@@Z 0000000180013860 f   kafka-consumer.obj
 0001:00012b50       ?NodeSubscribe@KafkaConsumer@NodeKafka@@CAXAEBV?$FunctionCallbackInfo@VValue@v8@@@Nan@@@Z 0000000180013b50 f   kafka-consumer.obj
 0001:00012d90       ?NodeSeek@KafkaConsumer@NodeKafka@@CAXAEBV?$FunctionCallbackInfo@VValue@v8@@@Nan@@@Z 0000000180013d90 f   kafka-consumer.obj
 0001:00013090       ?NodeOffsetsStore@KafkaConsumer@NodeKafka@@CAXAEBV?$FunctionCallbackInfo@VValue@v8@@@Nan@@@Z 0000000180014090 f   kafka-consumer.obj
 0001:000132c0       ?NodePause@KafkaConsumer@NodeKafka@@CAXAEBV?$FunctionCallbackInfo@VValue@v8@@@Nan@@@Z 00000001800142c0 f   kafka-consumer.obj
 0001:000134f0       ?NodeResume@KafkaConsumer@NodeKafka@@CAXAEBV?$FunctionCallbackInfo@VValue@v8@@@Nan@@@Z 00000001800144f0 f   kafka-consumer.obj
 0001:00013730       ?NodeConsumeLoop@KafkaConsumer@NodeKafka@@CAXAEBV?$FunctionCallbackInfo@VValue@v8@@@Nan@@@Z 0000000180014730 f   kafka-consumer.obj
 0001:000139a0       ?NodeConsume@KafkaConsumer@NodeKafka@@CAXAEBV?$FunctionCallbackInfo@VValue@v8@@@Nan@@@Z 00000001800149a0 f   kafka-consumer.obj
 0001:00013d60       ?NodeConnect@KafkaConsumer@NodeKafka@@CAXAEBV?$FunctionCallbackInfo@VValue@v8@@@Nan@@@Z 0000000180014d60 f   kafka-consumer.obj
 0001:00013f10       ?NodeDisconnect@KafkaConsumer@NodeKafka@@CAXAEBV?$FunctionCallbackInfo@VValue@v8@@@Nan@@@Z 0000000180014f10 f   kafka-consumer.obj
 0001:000140c0       ?NodeGetWatermarkOffsets@KafkaConsumer@NodeKafka@@CAXAEBV?$FunctionCallbackInfo@VValue@v8@@@Nan@@@Z 00000001800150c0 f   kafka-consumer.obj
 0001:00014590       ?append@?$basic_string@DU?$char_traits@D@std@@V?$allocator@D@2@@std@@QEAAAEAV12@_KD@Z 0000000180015590 f i kafka-consumer.obj
 0001:000146a0       ??$_Uninitialized_copy_al_unchecked@PEBV?$basic_string@DU?$char_traits@D@std@@V?$allocator@D@2@@std@@PEAV12@V?$allocator@V?$basic_string@DU?$char_traits@D@std@@V?$allocator@D@2@@std@@@2@@std@@YAPEAV?$basic_string@DU?$char_traits@D@std@@V?$allocator@D@2@@0@PEBV10@0PEAV10@AEAU?$_Wrap_alloc@V?$allocator@V?$basic_string@DU?$char_traits@D@std@@V?$allocator@D@2@@std@@@std@@@0@@Z 00000001800156a0 f i kafka-consumer.obj
 0001:00014730       ??0Producer@NodeKafka@@IEAA@PEAVConf@1@0@Z 0000000180015730 f   producer.obj
 0001:000149b0       ??_GProducer@NodeKafka@@MEAAPEAXI@Z 00000001800159b0 f i producer.obj
 0001:000149b0       ??_EProducer@NodeKafka@@MEAAPEAXI@Z 00000001800159b0 f i * CIL library *:* CIL module *
 0001:000149f0       ??1Producer@NodeKafka@@MEAA@XZ 00000001800159f0 f   producer.obj
 0001:00014af0       ?Init@Producer@NodeKafka@@SAXV?$Local@VObject@v8@@@v8@@@Z 0000000180015af0 f   producer.obj
 0001:00014dd0       ?New@Producer@NodeKafka@@KAXAEBV?$FunctionCallbackInfo@VValue@v8@@@Nan@@@Z 0000000180015dd0 f   producer.obj
 0001:00015020       ?Connect@Producer@NodeKafka@@QEAA?AVBaton@2@XZ 0000000180016020 f   producer.obj
 0001:00015240       ?ActivateDispatchers@Producer@NodeKafka@@UEAAXXZ 0000000180016240 f   producer.obj
 0001:000152e0       ?DeactivateDispatchers@Producer@NodeKafka@@UEAAXXZ 00000001800162e0 f   producer.obj
 0001:00015330       ?Produce@Producer@NodeKafka@@QEAA?AVBaton@2@PEAX_KPEAVTopic@RdKafka@@HPEBX10@Z 0000000180016330 f   producer.obj
 0001:00015470       ?Produce@Producer@NodeKafka@@QEAA?AVBaton@2@PEAX_KV?$basic_string@DU?$char_traits@D@std@@V?$allocator@D@2@@std@@HPEBX1_J0@Z 0000000180016470 f   producer.obj
 0001:00015600       ?NodeProduce@Producer@NodeKafka@@CAXAEBV?$FunctionCallbackInfo@VValue@v8@@@Nan@@@Z 0000000180016600 f   producer.obj
 0001:00015f10       ?NodeOnDelivery@Producer@NodeKafka@@CAXAEBV?$FunctionCallbackInfo@VValue@v8@@@Nan@@@Z 0000000180016f10 f   producer.obj
 0001:00016090       ?NodeSetPartitioner@Producer@NodeKafka@@CAXAEBV?$FunctionCallbackInfo@VValue@v8@@@Nan@@@Z 0000000180017090 f   producer.obj
 0001:00016180       ?NodeConnect@Producer@NodeKafka@@CAXAEBV?$FunctionCallbackInfo@VValue@v8@@@Nan@@@Z 0000000180017180 f   producer.obj
 0001:00016330       ?NodePoll@Producer@NodeKafka@@CAXAEBV?$FunctionCallbackInfo@VValue@v8@@@Nan@@@Z 0000000180017330 f   producer.obj
 0001:000163e0       ?Flush@Producer@NodeKafka@@QEAA?AVBaton@2@H@Z 00000001800173e0 f   producer.obj
 0001:000164c0       ?NodeFlush@Producer@NodeKafka@@CAXAEBV?$FunctionCallbackInfo@VValue@v8@@@Nan@@@Z 00000001800174c0 f   producer.obj
 0001:00016710       ?NodeDisconnect@Producer@NodeKafka@@CAXAEBV?$FunctionCallbackInfo@VValue@v8@@@Nan@@@Z 0000000180017710 f   producer.obj
 0001:000168c0       ??0Topic@NodeKafka@@AEAA@V?$basic_string@DU?$char_traits@D@std@@V?$allocator@D@2@@std@@PEAVConf@RdKafka@@@Z 00000001800178c0 f   topic.obj
 0001:00016940       ??_GTopic@NodeKafka@@EEAAPEAXI@Z 0000000180017940 f i topic.obj
 0001:00016940       ??_ETopic@NodeKafka@@EEAAPEAXI@Z 0000000180017940 f i * CIL library *:* CIL module *
 0001:000169b0       ?toRDKafkaTopic@Topic@NodeKafka@@QEAA?AVBaton@2@PEAVConnection@2@@Z 00000001800179b0 f   topic.obj
 0001:00016a90       ?Init@Topic@NodeKafka@@SAXV?$Local@VObject@v8@@@v8@@@Z 0000000180017a90 f   topic.obj
 0001:00016ca0       ?New@Topic@NodeKafka@@KAXAEBV?$FunctionCallbackInfo@VValue@v8@@@Nan@@@Z 0000000180017ca0 f   topic.obj
 0001:00017010       ?NodeGetName@Topic@NodeKafka@@CAXAEBV?$FunctionCallbackInfo@VValue@v8@@@Nan@@@Z 0000000180018010 f   topic.obj
 0001:000171e0       ??0AsyncWorker@Nan@@QEAA@PEAVCallback@1@PEBD@Z 00000001800181e0 f i workers.obj
 0001:000172d0       ??1AsyncWorker@Nan@@UEAA@XZ 00000001800182d0 f i workers.obj
 0001:000173b0       ?WorkComplete@AsyncWorker@Nan@@UEAAXXZ 00000001800183b0 f i workers.obj
 0001:00017440       ?Destroy@AsyncWorker@Nan@@UEAAXXZ 0000000180018440 f i workers.obj
 0001:00017460       ?HandleOKCallback@AsyncWorker@Nan@@MEAAXXZ 0000000180018460 f i workers.obj
 0001:00017500       ?HandleErrorCallback@AsyncWorker@Nan@@MEAAXXZ 0000000180018500 f i workers.obj
 0001:00017600       ??_GAsyncWorker@Nan@@UEAAPEAXI@Z 0000000180018600 f i workers.obj
 0001:00017600       ??_EAsyncWorker@Nan@@UEAAPEAXI@Z 0000000180018600 f i * CIL library *:* CIL module *
 0001:00017640       ?HandleErrorCallback@ErrorAwareWorker@Workers@NodeKafka@@UEAAXXZ 0000000180018640 f i workers.obj
 0001:00017640       ?HandleErrorCallback@KafkaConsumerConnect@Workers@NodeKafka@@UEAAXXZ 0000000180018640 f i workers.obj
 0001:00017640       ?HandleErrorCallback@KafkaConsumerConsumeLoop@Workers@NodeKafka@@UEAAXXZ 0000000180018640 f i workers.obj
 0001:00017730       ?SetErrorBaton@ErrorAwareWorker@Workers@NodeKafka@@IEAAXAEBVBaton@3@@Z 0000000180018730 f i workers.obj
 0001:00017890       ??_GErrorAwareWorker@Workers@NodeKafka@@UEAAPEAXI@Z 0000000180018890 f i workers.obj
 0001:00017890       ??_EErrorAwareWorker@Workers@NodeKafka@@UEAAPEAXI@Z 0000000180018890 f i * CIL library *:* CIL module *
 0001:000178e0       ??0MessageWorker@Workers@NodeKafka@@QEAA@PEAVCallback@Nan@@@Z 00000001800188e0 f i workers.obj
 0001:00017990       ??1MessageWorker@Workers@NodeKafka@@UEAA@XZ 0000000180018990 f i workers.obj
 0001:00017a10       ?WorkMessage@MessageWorker@Workers@NodeKafka@@QEAAXXZ 0000000180018a10 f i workers.obj
 0001:00017b00       ?Destroy@MessageWorker@Workers@NodeKafka@@UEAAXXZ 0000000180018b00 f i workers.obj
 0001:00017b20       ?Execute@MessageWorker@Workers@NodeKafka@@EEAAXXZ 0000000180018b20 f i workers.obj
 0001:00017b40       ?m_async_message@MessageWorker@Workers@NodeKafka@@CAXPEAUuv_async_s@@@Z 0000000180018b40 f i workers.obj
 0001:00017b50       ?AsyncClose_@MessageWorker@Workers@NodeKafka@@CAXPEAUuv_handle_s@@@Z 0000000180018b50 f i workers.obj
 0001:00017b90       ??_GMessageWorker@Workers@NodeKafka@@UEAAPEAXI@Z 0000000180018b90 f i workers.obj
 0001:00017b90       ??_EMessageWorker@Workers@NodeKafka@@UEAAPEAXI@Z 0000000180018b90 f i * CIL library *:* CIL module *
 0001:00017bd0       ??_EOffsetsForTimes@Handle@Workers@NodeKafka@@UEAAPEAXI@Z 0000000180018bd0 f i * CIL library *:* CIL module *
 0001:00017bd0       ??_GOffsetsForTimes@Handle@Workers@NodeKafka@@UEAAPEAXI@Z 0000000180018bd0 f i workers.obj
 0001:00017c10       ??1OffsetsForTimes@Handle@Workers@NodeKafka@@UEAA@XZ 0000000180018c10 f   workers.obj
 0001:00017c90       ?Execute@OffsetsForTimes@Handle@Workers@NodeKafka@@UEAAXXZ 0000000180018c90 f   workers.obj
 0001:00017d00       ?HandleOKCallback@OffsetsForTimes@Handle@Workers@NodeKafka@@UEAAXXZ 0000000180018d00 f   workers.obj
 0001:00017d00       ?HandleOKCallback@KafkaConsumerCommitted@Workers@NodeKafka@@UEAAXXZ 0000000180018d00 f   workers.obj
 0001:00017d80       ?HandleErrorCallback@ConnectionMetadata@Workers@NodeKafka@@UEAAXXZ 0000000180018d80 f   workers.obj
 0001:00017d80       ?HandleErrorCallback@KafkaConsumerSeek@Workers@NodeKafka@@UEAAXXZ 0000000180018d80 f   workers.obj
 0001:00017d80       ?HandleErrorCallback@KafkaConsumerConsume@Workers@NodeKafka@@UEAAXXZ 0000000180018d80 f   workers.obj
 0001:00017d80       ?HandleErrorCallback@ProducerConnect@Workers@NodeKafka@@UEAAXXZ 0000000180018d80 f   workers.obj
 0001:00017d80       ?HandleErrorCallback@ConnectionQueryWatermarkOffsets@Workers@NodeKafka@@UEAAXXZ 0000000180018d80 f   workers.obj
 0001:00017d80       ?HandleErrorCallback@OffsetsForTimes@Handle@Workers@NodeKafka@@UEAAXXZ 0000000180018d80 f   workers.obj
 0001:00017d80       ?HandleErrorCallback@KafkaConsumerCommitted@Workers@NodeKafka@@UEAAXXZ 0000000180018d80 f   workers.obj
 0001:00017e80       ??0ConnectionMetadata@Workers@NodeKafka@@QEAA@PEAVCallback@Nan@@PEAVConnection@2@V?$basic_string@DU?$char_traits@D@std@@V?$allocator@D@2@@std@@H_N@Z 0000000180018e80 f   workers.obj
 0001:00017f30       ??_EConnectionMetadata@Workers@NodeKafka@@UEAAPEAXI@Z 0000000180018f30 f i * CIL library *:* CIL module *
 0001:00017f30       ??_GConnectionMetadata@Workers@NodeKafka@@UEAAPEAXI@Z 0000000180018f30 f i workers.obj
 0001:00017fa0       ?Execute@ConnectionMetadata@Workers@NodeKafka@@UEAAXXZ 0000000180018fa0 f   workers.obj
 0001:00018060       ?HandleOKCallback@ConnectionMetadata@Workers@NodeKafka@@UEAAXXZ 0000000180019060 f   workers.obj
 0001:000180f0       ??0ConnectionQueryWatermarkOffsets@Workers@NodeKafka@@QEAA@PEAVCallback@Nan@@PEAVConnection@2@V?$basic_string@DU?$char_traits@D@std@@V?$allocator@D@2@@std@@HH@Z 00000001800190f0 f   workers.obj
 0001:000181a0       ??_GConnectionQueryWatermarkOffsets@Workers@NodeKafka@@UEAAPEAXI@Z 00000001800191a0 f i workers.obj
 0001:000181a0       ??_EConnectionQueryWatermarkOffsets@Workers@NodeKafka@@UEAAPEAXI@Z 00000001800191a0 f i * CIL library *:* CIL module *
 0001:00018210       ?Execute@ConnectionQueryWatermarkOffsets@Workers@NodeKafka@@UEAAXXZ 0000000180019210 f   workers.obj
 0001:000182e0       ?HandleOKCallback@ConnectionQueryWatermarkOffsets@Workers@NodeKafka@@UEAAXXZ 00000001800192e0 f   workers.obj
 0001:000184d0       ??_GProducerDisconnect@Workers@NodeKafka@@UEAAPEAXI@Z 00000001800194d0 f i workers.obj
 0001:000184d0       ??_EKafkaConsumerDisconnect@Workers@NodeKafka@@UEAAPEAXI@Z 00000001800194d0 f i * CIL library *:* CIL module *
 0001:000184d0       ??_EProducerDisconnect@Workers@NodeKafka@@UEAAPEAXI@Z 00000001800194d0 f i * CIL library *:* CIL module *
 0001:000184d0       ??_EProducerConnect@Workers@NodeKafka@@UEAAPEAXI@Z 00000001800194d0 f i * CIL library *:* CIL module *
 0001:000184d0       ??_EKafkaConsumerConnect@Workers@NodeKafka@@UEAAPEAXI@Z 00000001800194d0 f i * CIL library *:* CIL module *
 0001:000184d0       ??_GKafkaConsumerDisconnect@Workers@NodeKafka@@UEAAPEAXI@Z 00000001800194d0 f i workers.obj
 0001:000184d0       ??_GKafkaConsumerConnect@Workers@NodeKafka@@UEAAPEAXI@Z 00000001800194d0 f i workers.obj
 0001:000184d0       ??_GProducerConnect@Workers@NodeKafka@@UEAAPEAXI@Z 00000001800194d0 f i workers.obj
 0001:00018520       ?Execute@ProducerConnect@Workers@NodeKafka@@UEAAXXZ 0000000180019520 f   workers.obj
 0001:00018580       ?HandleOKCallback@KafkaConsumerConnect@Workers@NodeKafka@@UEAAXXZ 0000000180019580 f   workers.obj
 0001:00018580       ?HandleOKCallback@ProducerConnect@Workers@NodeKafka@@UEAAXXZ 0000000180019580 f   workers.obj
 0001:000187e0       ?Execute@ProducerDisconnect@Workers@NodeKafka@@UEAAXXZ 00000001800197e0 f   workers.obj
 0001:00018850       ?HandleOKCallback@ProducerDisconnect@Workers@NodeKafka@@UEAAXXZ 0000000180019850 f   workers.obj
 0001:00018850       ?HandleOKCallback@KafkaConsumerDisconnect@Workers@NodeKafka@@UEAAXXZ 0000000180019850 f   workers.obj
 0001:000188d0       ?HandleErrorCallback@ProducerDisconnect@Workers@NodeKafka@@UEAAXXZ 00000001800198d0 f   workers.obj
 0001:000188f0       ??_GProducerFlush@Workers@NodeKafka@@UEAAPEAXI@Z 00000001800198f0 f i workers.obj
 0001:000188f0       ??_EProducerFlush@Workers@NodeKafka@@UEAAPEAXI@Z 00000001800198f0 f i * CIL library *:* CIL module *
 0001:00018940       ?Execute@ProducerFlush@Workers@NodeKafka@@UEAAXXZ 0000000180019940 f   workers.obj
 0001:00018a10       ?HandleOKCallback@ProducerFlush@Workers@NodeKafka@@UEAAXXZ 0000000180019a10 f   workers.obj
 0001:00018a70       ?Execute@KafkaConsumerConnect@Workers@NodeKafka@@UEAAXXZ 0000000180019a70 f   workers.obj
 0001:00018ad0       ?Execute@KafkaConsumerDisconnect@Workers@NodeKafka@@UEAAXXZ 0000000180019ad0 f   workers.obj
 0001:00018b30       ?HandleErrorCallback@KafkaConsumerDisconnect@Workers@NodeKafka@@UEAAXXZ 0000000180019b30 f   workers.obj
 0001:00018c30       ??_EKafkaConsumerConsumeLoop@Workers@NodeKafka@@UEAAPEAXI@Z 0000000180019c30 f i * CIL library *:* CIL module *
 0001:00018c30       ??_GKafkaConsumerConsumeLoop@Workers@NodeKafka@@UEAAPEAXI@Z 0000000180019c30 f i workers.obj
 0001:00018c70       ?Execute@KafkaConsumerConsumeLoop@Workers@NodeKafka@@UEAAXAEBVExecutionMessageBus@MessageWorker@23@@Z 0000000180019c70 f   workers.obj
 0001:00018dd0       ?HandleMessageCallback@KafkaConsumerConsumeLoop@Workers@NodeKafka@@UEAAXPEAVMessage@RdKafka@@@Z 0000000180019dd0 f   workers.obj
 0001:00018e70       ?HandleOKCallback@KafkaConsumerConsumeLoop@Workers@NodeKafka@@UEAAXXZ 0000000180019e70 f   workers.obj
 0001:00018ea0       ??_GKafkaConsumerConsumeNum@Workers@NodeKafka@@UEAAPEAXI@Z 0000000180019ea0 f i workers.obj
 0001:00018ea0       ??_EKafkaConsumerConsumeNum@Workers@NodeKafka@@UEAAPEAXI@Z 0000000180019ea0 f i * CIL library *:* CIL module *
 0001:00018f30       ?Execute@KafkaConsumerConsumeNum@Workers@NodeKafka@@UEAAXXZ 0000000180019f30 f   workers.obj
 0001:00019060       ?HandleOKCallback@KafkaConsumerConsumeNum@Workers@NodeKafka@@UEAAXXZ 000000018001a060 f   workers.obj
 0001:00019180       ?HandleErrorCallback@KafkaConsumerConsumeNum@Workers@NodeKafka@@UEAAXXZ 000000018001a180 f   workers.obj
 0001:000192b0       ??_GKafkaConsumerConsume@Workers@NodeKafka@@UEAAPEAXI@Z 000000018001a2b0 f i workers.obj
 0001:000192b0       ??_EKafkaConsumerConsume@Workers@NodeKafka@@UEAAPEAXI@Z 000000018001a2b0 f i * CIL library *:* CIL module *
 0001:00019300       ?Execute@KafkaConsumerConsume@Workers@NodeKafka@@UEAAXXZ 000000018001a300 f   workers.obj
 0001:00019370       ?HandleOKCallback@KafkaConsumerConsume@Workers@NodeKafka@@UEAAXXZ 000000018001a370 f   workers.obj
 0001:00019410       ??_GKafkaConsumerCommitted@Workers@NodeKafka@@UEAAPEAXI@Z 000000018001a410 f i workers.obj
 0001:00019410       ??_EKafkaConsumerCommitted@Workers@NodeKafka@@UEAAPEAXI@Z 000000018001a410 f i * CIL library *:* CIL module *
 0001:00019450       ??1KafkaConsumerCommitted@Workers@NodeKafka@@UEAA@XZ 000000018001a450 f   workers.obj
 0001:000194d0       ?Execute@KafkaConsumerCommitted@Workers@NodeKafka@@UEAAXXZ 000000018001a4d0 f   workers.obj
 0001:00019540       ??_EKafkaConsumerSeek@Workers@NodeKafka@@UEAAPEAXI@Z 000000018001a540 f i * CIL library *:* CIL module *
 0001:00019540       ??_GKafkaConsumerSeek@Workers@NodeKafka@@UEAAPEAXI@Z 000000018001a540 f i workers.obj
 0001:000195c0       ?Execute@KafkaConsumerSeek@Workers@NodeKafka@@UEAAXXZ 000000018001a5c0 f   workers.obj
 0001:00019630       ?HandleOKCallback@KafkaConsumerSeek@Workers@NodeKafka@@UEAAXXZ 000000018001a630 f   workers.obj
 0001:000196ec       __imp_load_?Value@External@v8@@QEBAPEAXXZ 000000018001a6ec f   node:node.exe
 0001:000196f8       __tailMerge_node_exe       000000018001a6f8 f i node:node.exe
 0001:00019771       __imp_load_?New@External@v8@@SA?AV?$Local@VExternal@v8@@@2@PEAVIsolate@2@PEAX@Z 000000018001a771 f   node:node.exe
 0001:0001977d       __imp_load_?GetCurrentContext@Isolate@v8@@QEAA?AV?$Local@VContext@v8@@@2@XZ 000000018001a77d f   node:node.exe
 0001:00019789       __imp_load_?GetCurrent@Isolate@v8@@SAPEAV12@XZ 000000018001a789 f   node:node.exe
 0001:00019795       __imp_load_?CreateHandle@HandleScope@v8@@KAPEAPEAVObject@internal@2@PEAVIsolate@42@PEAV342@@Z 000000018001a795 f   node:node.exe
 0001:000197a1       __imp_load_?CreateHandle@HandleScope@v8@@CAPEAPEAVObject@internal@2@PEAVHeapObject@42@PEAV342@@Z 000000018001a7a1 f   node:node.exe
 0001:000197ad       __imp_load_??1HandleScope@v8@@QEAA@XZ 000000018001a7ad f   node:node.exe
 0001:000197b9       __imp_load_??0HandleScope@v8@@QEAA@PEAVIsolate@1@@Z 000000018001a7b9 f   node:node.exe
 0001:000197c5       __imp_load_?GetFunction@FunctionTemplate@v8@@QEAA?AV?$MaybeLocal@VFunction@v8@@@2@V?$Local@VContext@v8@@@2@@Z 000000018001a7c5 f   node:node.exe
 0001:000197d1       __imp_load_?New@FunctionTemplate@v8@@SA?AV?$Local@VFunctionTemplate@v8@@@2@PEAVIsolate@2@P6AXAEBV?$FunctionCallbackInfo@VValue@v8@@@2@@ZV?$Local@VValue@v8@@@2@V?$Local@VSignature@v8@@@2@HW4ConstructorBehavior@2@W4SideEffectType@2@@Z 000000018001a7d1 f   node:node.exe
 0001:000197dd       __imp_load_?ToLocalEmpty@V8@v8@@CAXXZ 000000018001a7dd f   node:node.exe
 0001:000197e9       __imp_load_?FromJustIsNothing@V8@v8@@CAXXZ 000000018001a7e9 f   node:node.exe
 0001:000197f5       __imp_load_?Int32Value@Value@v8@@QEBA?AV?$Maybe@H@2@V?$Local@VContext@v8@@@2@@Z 000000018001a7f5 f   node:node.exe
 0001:00019801       __imp_load_?Escape@EscapableHandleScope@v8@@AEAAPEAPEAVObject@internal@2@PEAPEAV342@@Z 000000018001a801 f   node:node.exe
 0001:0001980d       __imp_load_??0EscapableHandleScope@v8@@QEAA@PEAVIsolate@1@@Z 000000018001a80d f   node:node.exe
 0001:00019819       __imp_load_?NewFromUtf8@String@v8@@SA?AV?$MaybeLocal@VString@v8@@@2@PEAVIsolate@2@PEBDW4NewStringType@2@H@Z 000000018001a819 f   node:node.exe
 0001:00019825       __imp_load_?New@Number@v8@@SA?AV?$Local@VNumber@v8@@@2@PEAVIsolate@2@N@Z 000000018001a825 f   node:node.exe
 0001:00019831       __imp_load_?SlowGetInternalField@Object@v8@@AEAA?AV?$Local@VValue@v8@@@2@H@Z 000000018001a831 f   node:node.exe
 0001:0001983d       __imp_load_?New@Object@v8@@SA?AV?$Local@VObject@v8@@@2@PEAVIsolate@2@@Z 000000018001a83d f   node:node.exe
 0001:00019849       __imp_load_?GetIsolate@Object@v8@@QEAAPEAVIsolate@2@XZ 000000018001a849 f   node:node.exe
 0001:00019855       __imp_load_?SetInternalField@Object@v8@@QEAAXHV?$Local@VValue@v8@@@2@@Z 000000018001a855 f   node:node.exe
 0001:00019861       __imp_load_?DefineOwnProperty@Object@v8@@QEAA?AV?$Maybe@_N@2@V?$Local@VContext@v8@@@2@V?$Local@VName@v8@@@2@V?$Local@VValue@v8@@@2@W4PropertyAttribute@2@@Z 000000018001a861 f   node:node.exe
 0001:0001986d       __imp_load_?Set@Object@v8@@QEAA_NV?$Local@VValue@v8@@@2@0@Z 000000018001a86d f   node:node.exe
 0001:00019879       __imp_load_?SetInternalFieldCount@ObjectTemplate@v8@@QEAAXH@Z 000000018001a879 f   node:node.exe
 0001:00019885       __imp_load_?NewInstance@ObjectTemplate@v8@@QEAA?AV?$MaybeLocal@VObject@v8@@@2@V?$Local@VContext@v8@@@2@@Z 000000018001a885 f   node:node.exe
 0001:00019891       __imp_load_?New@ObjectTemplate@v8@@SA?AV?$Local@VObjectTemplate@v8@@@2@PEAVIsolate@2@V?$Local@VFunctionTemplate@v8@@@2@@Z 000000018001a891 f   node:node.exe
 0001:0001989d       __imp_load_?AtExit@node@@YAXP6AXPEAX@Z0@Z 000000018001a89d f   node:node.exe
 0001:000198a9       __imp_load_node_module_register 000000018001a8a9 f   node:node.exe
 0001:000198b5       __imp_load_uv_mutex_unlock 000000018001a8b5 f   node:node.exe
 0001:000198c1       __imp_load_?Global@Context@v8@@QEAA?AV?$Local@VObject@v8@@@2@XZ 000000018001a8c1 f   node:node.exe
 0001:000198cd       __imp_load_?New@Integer@v8@@SA?AV?$Local@VInteger@v8@@@2@PEAVIsolate@2@H@Z 000000018001a8cd f   node:node.exe
 0001:000198d9       __imp_load_?Error@Exception@v8@@SA?AV?$Local@VValue@v8@@@2@V?$Local@VString@v8@@@2@@Z 000000018001a8d9 f   node:node.exe
 0001:000198e5       __imp_load_?New@Array@v8@@SA?AV?$Local@VArray@v8@@@2@PEAVIsolate@2@H@Z 000000018001a8e5 f   node:node.exe
 0001:000198f1       __imp_load_?DisposeGlobal@V8@v8@@CAXPEAPEAVObject@internal@2@@Z 000000018001a8f1 f   node:node.exe
 0001:000198fd       __imp_load_?CopyPersistent@V8@v8@@CAPEAPEAVObject@internal@2@PEAPEAV342@@Z 000000018001a8fd f   node:node.exe
 0001:00019909       __imp_load_?GlobalizeReference@V8@v8@@CAPEAPEAVObject@internal@2@PEAVIsolate@42@PEAPEAV342@@Z 000000018001a909 f   node:node.exe
 0001:00019915       __imp_load_?ToInt32@Value@v8@@QEBA?AV?$MaybeLocal@VInt32@v8@@@2@V?$Local@VContext@v8@@@2@@Z 000000018001a915 f   node:node.exe
 0001:00019921       __imp_load_?Set@Object@v8@@QEAA?AV?$Maybe@_N@2@V?$Local@VContext@v8@@@2@V?$Local@VValue@v8@@@2@1@Z 000000018001a921 f   node:node.exe
 0001:0001992d       __imp_load_?Set@Object@v8@@QEAA_NIV?$Local@VValue@v8@@@2@@Z 000000018001a92d f   node:node.exe
 0001:00019939       __imp_load_uv_mutex_lock   000000018001a939 f   node:node.exe
 0001:00019945       __imp_load_uv_close        000000018001a945 f   node:node.exe
 0001:00019951       __imp_load_?EmitAsyncDestroy@node@@YAXPEAVIsolate@v8@@Uasync_context@1@@Z 000000018001a951 f   node:node.exe
 0001:0001995d       __imp_load_?New@Buffer@node@@YA?AV?$MaybeLocal@VObject@v8@@@v8@@PEAVIsolate@4@PEAD_K@Z 000000018001a95d f   node:node.exe
 0001:00019969       __imp_load_?MakeCallback@node@@YA?AV?$MaybeLocal@VValue@v8@@@v8@@PEAVIsolate@3@V?$Local@VObject@v8@@@3@V?$Local@VFunction@v8@@@3@HPEAV?$Local@VValue@v8@@@3@Uasync_context@1@@Z 000000018001a969 f   node:node.exe
 0001:00019975       __imp_load_?EmitAsyncInit@node@@YA?AUasync_context@1@PEAVIsolate@v8@@V?$Local@VObject@v8@@@4@V?$Local@VString@v8@@@4@N@Z 000000018001a975 f   node:node.exe
 0001:00019981       __imp_load_uv_mutex_destroy 000000018001a981 f   node:node.exe
 0001:0001998d       __imp_load_uv_mutex_init   000000018001a98d f   node:node.exe
 0001:00019999       __imp_load_uv_async_send   000000018001a999 f   node:node.exe
 0001:000199a5       __imp_load_uv_async_init   000000018001a9a5 f   node:node.exe
 0001:000199b1       __imp_load_uv_default_loop 000000018001a9b1 f   node:node.exe
 0001:000199bd       __imp_load_?GetSource@RegExp@v8@@QEBA?AV?$Local@VString@v8@@@2@XZ 000000018001a9bd f   node:node.exe
 0001:000199c9       __imp_load_?Length@Array@v8@@QEBAIXZ 000000018001a9c9 f   node:node.exe
 0001:000199d5       __imp_load_?IntegerValue@Value@v8@@QEBA?AV?$Maybe@_J@2@V?$Local@VContext@v8@@@2@@Z 000000018001a9d5 f   node:node.exe
 0001:000199e1       __imp_load_?BooleanValue@Value@v8@@QEBA?AV?$Maybe@_N@2@V?$Local@VContext@v8@@@2@@Z 000000018001a9e1 f   node:node.exe
 0001:000199ed       __imp_load_?ToObject@Value@v8@@QEBA?AV?$MaybeLocal@VObject@v8@@@2@V?$Local@VContext@v8@@@2@@Z 000000018001a9ed f   node:node.exe
 0001:000199f9       __imp_load_?ToString@Value@v8@@QEBA?AV?$MaybeLocal@VString@v8@@@2@V?$Local@VContext@v8@@@2@@Z 000000018001a9f9 f   node:node.exe
 0001:00019a05       __imp_load_?IsRegExp@Value@v8@@QEBA_NXZ 000000018001aa05 f   node:node.exe
 0001:00019a11       __imp_load_?IsNumber@Value@v8@@QEBA_NXZ 000000018001aa11 f   node:node.exe
 0001:00019a1d       __imp_load_?IsBoolean@Value@v8@@QEBA_NXZ 000000018001aa1d f   node:node.exe
 0001:00019a29       __imp_load_?IsObject@Value@v8@@QEBA_NXZ 000000018001aa29 f   node:node.exe
 0001:00019a35       __imp_load_?IsArray@Value@v8@@QEBA_NXZ 000000018001aa35 f   node:node.exe
 0001:00019a41       __imp_load_?WriteUtf8@String@v8@@QEBAHPEADHPEAHH@Z 000000018001aa41 f   node:node.exe
 0001:00019a4d       __imp_load_?Length@String@v8@@QEBAHXZ 000000018001aa4d f   node:node.exe
 0001:00019a59       __imp_load_?Has@Object@v8@@QEAA?AV?$Maybe@_N@2@V?$Local@VContext@v8@@@2@V?$Local@VValue@v8@@@2@@Z 000000018001aa59 f   node:node.exe
 0001:00019a65       __imp_load_?Get@Object@v8@@QEAA?AV?$MaybeLocal@VValue@v8@@@2@V?$Local@VContext@v8@@@2@V?$Local@VValue@v8@@@2@@Z 000000018001aa65 f   node:node.exe
 0001:00019a71       __imp_load_?Get@Object@v8@@QEAA?AV?$Local@VValue@v8@@@2@I@Z 000000018001aa71 f   node:node.exe
 0001:00019a7d       __imp_load_?Encode@node@@YA?AV?$Local@VValue@v8@@@v8@@PEAVIsolate@3@PEBD_KW4encoding@1@@Z 000000018001aa7d f   node:node.exe
 0001:00019a89       __imp_load_?ToString@Value@v8@@QEBA?AV?$Local@VString@v8@@@2@XZ 000000018001aa89 f   node:node.exe
 0001:00019a95       __imp_load_?IsFunction@Value@v8@@QEBA_NXZ 000000018001aa95 f   node:node.exe
 0001:00019aa1       __imp_load_?GetOwnPropertyNames@Object@v8@@QEAA?AV?$Local@VArray@v8@@@2@XZ 000000018001aaa1 f   node:node.exe
 0001:00019aad       __imp_load_?Get@Object@v8@@QEAA?AV?$Local@VValue@v8@@@2@V32@@Z 000000018001aaad f   node:node.exe
 0001:00019ab9       __imp_load_uv_queue_work   000000018001aab9 f   node:node.exe
 0001:00019ac5       __imp_load_?ThrowException@Isolate@v8@@QEAA?AV?$Local@VValue@v8@@@2@V32@@Z 000000018001aac5 f   node:node.exe
 0001:00019ad1       __imp_load_?ClearWeak@V8@v8@@CAPEAXPEAPEAVObject@internal@2@@Z 000000018001aad1 f   node:node.exe
 0001:00019add       __imp_load_?MakeWeak@V8@v8@@CAXPEAPEAVObject@internal@2@PEAXP6AXAEBV?$WeakCallbackInfo@X@2@@ZW4WeakCallbackType@2@@Z 000000018001aadd f   node:node.exe
 0001:00019ae9       __imp_load_?Uint32Value@Value@v8@@QEBA?AV?$Maybe@I@2@V?$Local@VContext@v8@@@2@@Z 000000018001aae9 f   node:node.exe
 0001:00019af5       __imp_load_?SlowGetAlignedPointerFromInternalField@Object@v8@@AEAAPEAXH@Z 000000018001aaf5 f   node:node.exe
 0001:00019b01       __imp_load_?InternalFieldCount@Object@v8@@QEAAHXZ 000000018001ab01 f   node:node.exe
 0001:00019b0d       __imp_load_?GetCurrentEventLoop@node@@YAPEAUuv_loop_s@@PEAVIsolate@v8@@@Z 000000018001ab0d f   node:node.exe
 0001:00019b19       __imp_load_uv_rwlock_rdlock 000000018001ab19 f   node:node.exe
 0001:00019b25       __imp_load_uv_rwlock_init  000000018001ab25 f   node:node.exe
 0001:00019b31       __imp_load_uv_rwlock_rdunlock 000000018001ab31 f   node:node.exe
 0001:00019b3d       __imp_load_uv_rwlock_destroy 000000018001ab3d f   node:node.exe
 0001:00019b49       __imp_load_?New@Signature@v8@@SA?AV?$Local@VSignature@v8@@@2@PEAVIsolate@2@V?$Local@VFunctionTemplate@v8@@@2@@Z 000000018001ab49 f   node:node.exe
 0001:00019b55       __imp_load_?Set@Template@v8@@QEAAXV?$Local@VName@v8@@@2@V?$Local@VData@v8@@@2@W4PropertyAttribute@2@@Z 000000018001ab55 f   node:node.exe
 0001:00019b61       __imp_load_?SetClassName@FunctionTemplate@v8@@QEAAXV?$Local@VString@v8@@@2@@Z 000000018001ab61 f   node:node.exe
 0001:00019b6d       __imp_load_?PrototypeTemplate@FunctionTemplate@v8@@QEAA?AV?$Local@VObjectTemplate@v8@@@2@XZ 000000018001ab6d f   node:node.exe
 0001:00019b79       __imp_load_?InstanceTemplate@FunctionTemplate@v8@@QEAA?AV?$Local@VObjectTemplate@v8@@@2@XZ 000000018001ab79 f   node:node.exe
 0001:00019b85       __imp_load_?GetFunction@FunctionTemplate@v8@@QEAA?AV?$Local@VFunction@v8@@@2@XZ 000000018001ab85 f   node:node.exe
 0001:00019b91       __imp_load_?SetAlignedPointerInInternalField@Object@v8@@QEAAXHPEAX@Z 000000018001ab91 f   node:node.exe
 0001:00019b9d       __imp_load_uv_rwlock_wrlock 000000018001ab9d f   node:node.exe
 0001:00019ba9       __imp_load_uv_rwlock_wrunlock 000000018001aba9 f   node:node.exe
 0001:00019bb5       __imp_load_?ToObject@Value@v8@@QEBA?AV?$Local@VObject@v8@@@2@XZ 000000018001abb5 f   node:node.exe
 0001:00019bc1       __imp_load_?HasInstance@Buffer@node@@YA_NV?$Local@VValue@v8@@@v8@@@Z 000000018001abc1 f   node:node.exe
 0001:00019bcd       __imp_load_?Data@Buffer@node@@YAPEADV?$Local@VObject@v8@@@v8@@@Z 000000018001abcd f   node:node.exe
 0001:00019bd9       __imp_load_?Length@Buffer@node@@YA_KV?$Local@VObject@v8@@@v8@@@Z 000000018001abd9 f   node:node.exe
 0001:00019be8       ??0bad_alloc@std@@QEAA@AEBV01@@Z 000000018001abe8 f i libcpmt:xthrow.obj
 0001:00019c28       ??0bad_alloc@std@@QEAA@XZ  000000018001ac28 f i libcpmt:xthrow.obj
 0001:00019c48       ??0exception@std@@QEAA@AEBV01@@Z 000000018001ac48 f i libcpmt:xthrow.obj
 0001:00019c80       ??0length_error@std@@QEAA@AEBV01@@Z 000000018001ac80 f i libcpmt:xthrow.obj
 0001:00019cc0       ??0length_error@std@@QEAA@PEBD@Z 000000018001acc0 f i libcpmt:xthrow.obj
 0001:00019d0c       ??0logic_error@std@@QEAA@AEBV01@@Z 000000018001ad0c f i libcpmt:xthrow.obj
 0001:00019d4c       ??0out_of_range@std@@QEAA@AEBV01@@Z 000000018001ad4c f i libcpmt:xthrow.obj
 0001:00019d8c       ??0out_of_range@std@@QEAA@PEBD@Z 000000018001ad8c f i libcpmt:xthrow.obj
 0001:00019dd8       ??_E__non_rtti_object@std@@UEAAPEAXI@Z 000000018001add8 f i libvcruntime:rtti.obj
 0001:00019dd8       ??_Ebad_cast@std@@UEAAPEAXI@Z 000000018001add8 f i libcpmt:cerr.obj
 0001:00019dd8       ??_Gbad_typeid@std@@UEAAPEAXI@Z 000000018001add8 f i libvcruntime:rtti.obj
 0001:00019dd8       ??_Eout_of_range@std@@UEAAPEAXI@Z 000000018001add8 f i libcpmt:xthrow.obj
 0001:00019dd8       ??_Elogic_error@std@@UEAAPEAXI@Z 000000018001add8 f i libcpmt:xthrow.obj
 0001:00019dd8       ??_Gout_of_range@std@@UEAAPEAXI@Z 000000018001add8 f i libcpmt:xthrow.obj
 0001:00019dd8       ??_Ebad_typeid@std@@UEAAPEAXI@Z 000000018001add8 f i libvcruntime:rtti.obj
 0001:00019dd8       ??_Ebad_alloc@std@@UEAAPEAXI@Z 000000018001add8 f i libcpmt:xthrow.obj
 0001:00019dd8       ??_Elength_error@std@@UEAAPEAXI@Z 000000018001add8 f i libcpmt:xthrow.obj
 0001:00019dd8       ??_Gbad_cast@std@@UEAAPEAXI@Z 000000018001add8 f i libcpmt:cerr.obj
 0001:00019dd8       ??_Eexception@std@@UEAAPEAXI@Z 000000018001add8 f i libcpmt:xthrow.obj
 0001:00019dd8       ??_G__non_rtti_object@std@@UEAAPEAXI@Z 000000018001add8 f i libvcruntime:rtti.obj
 0001:00019dd8       ??_Ebad_exception@std@@UEAAPEAXI@Z 000000018001add8 f i libvcruntime:frame.obj
 0001:00019dd8       ??_Glogic_error@std@@UEAAPEAXI@Z 000000018001add8 f i libcpmt:xthrow.obj
 0001:00019dd8       ??_Gbad_exception@std@@UEAAPEAXI@Z 000000018001add8 f i libvcruntime:frame.obj
 0001:00019dd8       ??_Gbad_alloc@std@@UEAAPEAXI@Z 000000018001add8 f i libcpmt:xthrow.obj
 0001:00019dd8       ??_Gbad_array_new_length@std@@UEAAPEAXI@Z 000000018001add8 f i LIBCMT:throw_bad_alloc.obj
 0001:00019dd8       ??_Glength_error@std@@UEAAPEAXI@Z 000000018001add8 f i libcpmt:xthrow.obj
 0001:00019dd8       ??_Gexception@std@@UEAAPEAXI@Z 000000018001add8 f i libcpmt:xthrow.obj
 0001:00019dd8       ??_Ebad_array_new_length@std@@UEAAPEAXI@Z 000000018001add8 f i LIBCMT:throw_bad_alloc.obj
 0001:00019e1c       ?_Xlength_error@std@@YAXPEBD@Z 000000018001ae1c f   libcpmt:xthrow.obj
 0001:00019e40       ?_Xout_of_range@std@@YAXPEBD@Z 000000018001ae40 f   libcpmt:xthrow.obj
 0001:00019e64       ?what@exception@std@@UEBAPEBDXZ 000000018001ae64 f i libcpmt:xthrow.obj
 0001:00019e78       ??0_Init_locks@std@@QEAA@XZ 000000018001ae78 f   libcpmt:xlock.obj
 0001:00019ec4       ??0_Lockit@std@@QEAA@H@Z   000000018001aec4 f   libcpmt:xlock.obj
 0001:00019f00       ??1_Init_locks@std@@QEAA@XZ 000000018001af00 f   libcpmt:xlock.obj
 0001:00019f44       ??1_Lockit@std@@QEAA@XZ    000000018001af44 f   libcpmt:xlock.obj
 0001:00019f78       ??4?$_Yarn@D@std@@QEAAAEAV01@PEBD@Z 000000018001af78 f i libcpmt:locale0.obj
 0001:00019ff0       ??_G_Fac_node@std@@QEAAPEAXI@Z 000000018001aff0 f i libcpmt:locale0.obj
 0001:0001a07c       ??_G_Locimp@locale@std@@MEAAPEAXI@Z 000000018001b07c f i libcpmt:locale0.obj
 0001:0001a07c       ??_E_Locimp@locale@std@@MEAAPEAXI@Z 000000018001b07c f i libcpmt:locale0.obj
 0001:0001a0e8       ?_Facet_Register@std@@YAXPEAV_Facet_base@1@@Z 000000018001b0e8 f   libcpmt:locale0.obj
 0001:0001a120       ?_Getgloballocale@locale@std@@CAPEAV_Locimp@12@XZ 000000018001b120 f   libcpmt:locale0.obj
 0001:0001a128       ?_Init@locale@std@@CAPEAV_Locimp@12@_N@Z 000000018001b128 f   libcpmt:locale0.obj
 0001:0001a1e4       ?_Locimp_dtor@_Locimp@locale@std@@CAXPEAV123@@Z 000000018001b1e4 f   libcpmt:locale0.obj
 0001:0001a28c       ?_Locinfo_ctor@_Locinfo@std@@SAXPEAV12@PEBD@Z 000000018001b28c f   libcpmt:locale0.obj
 0001:0001a2f8       ?_Locinfo_dtor@_Locinfo@std@@SAXPEAV12@@Z 000000018001b2f8 f   libcpmt:locale0.obj
 0001:0001a31c       ?_New_Locimp@_Locimp@locale@std@@CAPEAV123@_N@Z 000000018001b31c f   libcpmt:locale0.obj
 0001:0001a38c       ?_Setgloballocale@locale@std@@CAXPEAX@Z 000000018001b38c f   libcpmt:locale0.obj
 0001:0001a3c0       _Deletegloballocale        000000018001b3c0 f   libcpmt:locale0.obj
 0001:0001a448       ??$use_facet@V?$codecvt@DDU_Mbstatet@@@std@@@std@@YAAEBV?$codecvt@DDU_Mbstatet@@@0@AEBVlocale@0@@Z 000000018001b448 f i libcpmt:cerr.obj
 0001:0001a580       ??0?$basic_ostream@DU?$char_traits@D@std@@@std@@QEAA@PEAV?$basic_streambuf@DU?$char_traits@D@std@@@1@_N@Z 000000018001b580 f i libcpmt:cerr.obj
 0001:0001a648       ??0?$basic_streambuf@DU?$char_traits@D@std@@@std@@IEAA@XZ 000000018001b648 f i libcpmt:cerr.obj
 0001:0001a6f8       ??0bad_cast@std@@QEAA@AEBV01@@Z 000000018001b6f8 f i libcpmt:cerr.obj
 0001:0001a738       ??0bad_cast@std@@QEAA@XZ   000000018001b738 f i libcpmt:cerr.obj
 0001:0001a758       ??1?$basic_filebuf@DU?$char_traits@D@std@@@std@@UEAA@XZ 000000018001b758 f i libcpmt:cerr.obj
 0001:0001a804       ??1?$basic_ios@DU?$char_traits@D@std@@@std@@UEAA@XZ 000000018001b804 f i libcpmt:cerr.obj
 0001:0001a828       ??1bad_cast@std@@UEAA@XZ   000000018001b828 f i libcpmt:cerr.obj
 0001:0001a828       ??1bad_alloc@std@@UEAA@XZ  000000018001b828 f i libcpmt:xthrow.obj
 0001:0001a828       ??1bad_exception@std@@UEAA@XZ 000000018001b828 f i libvcruntime:frame.obj
 0001:0001a828       ??1__non_rtti_object@std@@UEAA@XZ 000000018001b828 f i libvcruntime:rtti.obj
 0001:0001a828       ??1bad_array_new_length@std@@UEAA@XZ 000000018001b828 f i LIBCMT:throw_bad_alloc.obj
 0001:0001a828       ??1length_error@std@@UEAA@XZ 000000018001b828 f i libcpmt:xthrow.obj
 0001:0001a828       ??1out_of_range@std@@UEAA@XZ 000000018001b828 f i libcpmt:xthrow.obj
 0001:0001a83c       ??_E?$basic_ostream@DU?$char_traits@D@std@@@std@@$4PPPPPPPM@A@EAAPEAXI@Z 000000018001b83c f i libcpmt:cerr.obj
 0001:0001a848       ??_G?$basic_filebuf@DU?$char_traits@D@std@@@std@@UEAAPEAXI@Z 000000018001b848 f i libcpmt:cerr.obj
 0001:0001a848       ??_E?$basic_filebuf@DU?$char_traits@D@std@@@std@@UEAAPEAXI@Z 000000018001b848 f i libcpmt:cerr.obj
 0001:0001a87c       ??_G?$basic_ios@DU?$char_traits@D@std@@@std@@UEAAPEAXI@Z 000000018001b87c f i libcpmt:cerr.obj
 0001:0001a87c       ??_E?$basic_ios@DU?$char_traits@D@std@@@std@@UEAAPEAXI@Z 000000018001b87c f i libcpmt:cerr.obj
 0001:0001a8c8       ??_E?$basic_ostream@DU?$char_traits@D@std@@@std@@UEAAPEAXI@Z 000000018001b8c8 f i libcpmt:cerr.obj
 0001:0001a8c8       ??_G?$basic_ostream@DU?$char_traits@D@std@@@std@@UEAAPEAXI@Z 000000018001b8c8 f i libcpmt:cerr.obj
 0001:0001a938       ??_E?$basic_streambuf@DU?$char_traits@D@std@@@std@@UEAAPEAXI@Z 000000018001b938 f i libcpmt:cerr.obj
 0001:0001a938       ??_G?$basic_streambuf@DU?$char_traits@D@std@@@std@@UEAAPEAXI@Z 000000018001b938 f i libcpmt:cerr.obj
 0001:0001a988       ??_G?$codecvt@DDU_Mbstatet@@@std@@MEAAPEAXI@Z 000000018001b988 f i libcpmt:cerr.obj
 0001:0001a988       ??_E?$codecvt@DDU_Mbstatet@@@std@@MEAAPEAXI@Z 000000018001b988 f i libcpmt:cerr.obj
 0001:0001a9b4       ??_Gios_base@std@@UEAAPEAXI@Z 000000018001b9b4 f i libcpmt:cerr.obj
 0001:0001a9b4       ??_Eios_base@std@@UEAAPEAXI@Z 000000018001b9b4 f i libcpmt:cerr.obj
 0001:0001aa00       ??_Glocale@std@@QEAAPEAXI@Z 000000018001ba00 f i libcpmt:cerr.obj
 0001:0001aa90       ?_Endwrite@?$basic_filebuf@DU?$char_traits@D@std@@@std@@IEAA_NXZ 000000018001ba90 f i libcpmt:cerr.obj
 0001:0001ac44       ?_Getcat@?$codecvt@DDU_Mbstatet@@@std@@SA_KPEAPEBVfacet@locale@2@PEBV42@@Z 000000018001bc44 f i libcpmt:cerr.obj
 0001:0001ad08       ?_Init@?$basic_filebuf@DU?$char_traits@D@std@@@std@@IEAAXPEAU_iobuf@@W4_Initfl@12@@Z 000000018001bd08 f i libcpmt:cerr.obj
 0001:0001adf4       ?_Init@ios_base@std@@IEAAXXZ 000000018001bdf4 f i libcpmt:cerr.obj
 0001:0001ae74       ?_Initcvt@?$basic_filebuf@DU?$char_traits@D@std@@@std@@IEAAXPEBV?$codecvt@DDU_Mbstatet@@@2@@Z 000000018001be74 f i libcpmt:cerr.obj
 0001:0001af14       ?_Lock@?$basic_filebuf@DU?$char_traits@D@std@@@std@@UEAAXXZ 000000018001bf14 f i libcpmt:cerr.obj
 0001:0001af30       ?_Unlock@?$basic_filebuf@DU?$char_traits@D@std@@@std@@UEAAXXZ 000000018001bf30 f i libcpmt:cerr.obj
 0001:0001af4c       ?do_in@?$codecvt@DDU_Mbstatet@@@std@@MEBAHAEAU_Mbstatet@@PEBD1AEAPEBDPEAD3AEAPEAD@Z 000000018001bf4c f i libcpmt:cerr.obj
 0001:0001af4c       ?do_out@?$codecvt@DDU_Mbstatet@@@std@@MEBAHAEAU_Mbstatet@@PEBD1AEAPEBDPEAD3AEAPEAD@Z 000000018001bf4c f i libcpmt:cerr.obj
 0001:0001af68       ?do_length@?$codecvt@DDU_Mbstatet@@@std@@MEBAHAEAU_Mbstatet@@PEBD1_K@Z 000000018001bf68 f i libcpmt:cerr.obj
 0001:0001af7c       ?do_unshift@?$codecvt@DDU_Mbstatet@@@std@@MEBAHAEAU_Mbstatet@@PEAD1AEAPEAD@Z 000000018001bf7c f i libcpmt:cerr.obj
 0001:0001af88       ?imbue@?$basic_filebuf@DU?$char_traits@D@std@@@std@@MEAAXAEBVlocale@2@@Z 000000018001bf88 f i libcpmt:cerr.obj
 0001:0001afac       ?overflow@?$basic_filebuf@DU?$char_traits@D@std@@@std@@MEAAHH@Z 000000018001bfac f i libcpmt:cerr.obj
 0001:0001b20c       ?overflow@?$basic_streambuf@DU?$char_traits@D@std@@@std@@MEAAHH@Z 000000018001c20c f i libcpmt:cerr.obj
 0001:0001b20c       ?underflow@?$basic_streambuf@DU?$char_traits@D@std@@@std@@MEAAHXZ 000000018001c20c f i libcpmt:cerr.obj
 0001:0001b20c       ?pbackfail@?$basic_streambuf@DU?$char_traits@D@std@@@std@@MEAAHH@Z 000000018001c20c f i libcpmt:cerr.obj
 0001:0001b210       ?pbackfail@?$basic_filebuf@DU?$char_traits@D@std@@@std@@MEAAHH@Z 000000018001c210 f i libcpmt:cerr.obj
 0001:0001b2e0       ?seekoff@?$basic_filebuf@DU?$char_traits@D@std@@@std@@MEAA?AV?$fpos@U_Mbstatet@@@2@_JHH@Z 000000018001c2e0 f i libcpmt:cerr.obj
 0001:0001b3cc       ?seekpos@?$basic_streambuf@DU?$char_traits@D@std@@@std@@MEAA?AV?$fpos@U_Mbstatet@@@2@V32@H@Z 000000018001c3cc f i libcpmt:cerr.obj
 0001:0001b3cc       ?seekoff@?$basic_streambuf@DU?$char_traits@D@std@@@std@@MEAA?AV?$fpos@U_Mbstatet@@@2@_JHH@Z 000000018001c3cc f i libcpmt:cerr.obj
 0001:0001b3e8       ?seekpos@?$basic_filebuf@DU?$char_traits@D@std@@@std@@MEAA?AV?$fpos@U_Mbstatet@@@2@V32@H@Z 000000018001c3e8 f i libcpmt:cerr.obj
 0001:0001b4e8       ?setbuf@?$basic_filebuf@DU?$char_traits@D@std@@@std@@MEAAPEAV?$basic_streambuf@DU?$char_traits@D@std@@@2@PEAD_J@Z 000000018001c4e8 f i libcpmt:cerr.obj
 0001:0001b53c       ?setbuf@?$basic_streambuf@DU?$char_traits@D@std@@@std@@MEAAPEAV12@PEAD_J@Z 000000018001c53c f i libcpmt:cerr.obj
 0001:0001b540       ?sync@?$basic_streambuf@DU?$char_traits@D@std@@@std@@MEAAHXZ 000000018001c540 f i libcpmt:cerr.obj
 0001:0001b540       ?showmanyc@?$basic_streambuf@DU?$char_traits@D@std@@@std@@MEAA_JXZ 000000018001c540 f i libcpmt:cerr.obj
 0001:0001b544       ?sync@?$basic_filebuf@DU?$char_traits@D@std@@@std@@MEAAHXZ 000000018001c544 f i libcpmt:cerr.obj
 0001:0001b5a4       ?uflow@?$basic_filebuf@DU?$char_traits@D@std@@@std@@MEAAHXZ 000000018001c5a4 f i libcpmt:cerr.obj
 0001:0001b83c       ?uflow@?$basic_streambuf@DU?$char_traits@D@std@@@std@@MEAAHXZ 000000018001c83c f i libcpmt:cerr.obj
 0001:0001b888       ?underflow@?$basic_filebuf@DU?$char_traits@D@std@@@std@@MEAAHXZ 000000018001c888 f i libcpmt:cerr.obj
 0001:0001b900       ?xsgetn@?$basic_streambuf@DU?$char_traits@D@std@@@std@@MEAA_JPEAD_J@Z 000000018001c900 f i libcpmt:cerr.obj
 0001:0001b9c0       ?xsputn@?$basic_streambuf@DU?$char_traits@D@std@@@std@@MEAA_JPEBD_J@Z 000000018001c9c0 f i libcpmt:cerr.obj
 0001:0001ba84       ?_Syserror_map@std@@YAPEBDH@Z 000000018001ca84 f   libcpmt:syserror.obj
 0001:0001baac       _Getctype                  000000018001caac f   libcpmt:_tolower.obj
 0001:0001bb6c       _Tolower                   000000018001cb6c f   libcpmt:_tolower.obj
 0001:0001bc94       _Toupper                   000000018001cc94 f   libcpmt:_toupper.obj
 0001:0001bdcc       ??0_Init_cout@std@@QEAA@XZ 000000018001cdcc f i libcpmt:cout.obj
 0001:0001be38       _Mtxdst                    000000018001ce38 f   libcpmt:xmtx.obj
 0001:0001be40       _Mtxinit                   000000018001ce40 f   libcpmt:xmtx.obj
 0001:0001be50       _Mtxlock                   000000018001ce50 f   libcpmt:xmtx.obj
 0001:0001be58       _Mtxunlock                 000000018001ce58 f   libcpmt:xmtx.obj
 0001:0001be60       ?_Atexit@@YAXP6AXXZ@Z      000000018001ce60 f   libcpmt:iosptrs.obj
 0001:0001bea0       ?_Addstd@ios_base@std@@SAXPEAV12@@Z 000000018001cea0 f   libcpmt:ios.obj
 0001:0001bf10       ?_Ios_base_dtor@ios_base@std@@CAXPEAV12@@Z 000000018001cf10 f   libcpmt:ios.obj
 0001:0001bf54       ?_Tidy@ios_base@std@@AEAAXXZ 000000018001cf54 f i libcpmt:ios.obj
 0001:0001bfe4       __crtLCMapStringA          000000018001cfe4 f   libcpmt:StlLCMapStringA.obj
 0001:0001c7a0       __crtInitializeCriticalSectionEx 000000018001d7a0 f   libcpmt:winapisupp.obj
 0001:0001c800       GetTableIndexFromLocaleName 000000018001d800 f   libcpmt:winapinls.obj
 0001:0001c88c       __crtDownlevelLocaleNameToLCID 000000018001d88c f   libcpmt:winapinls.obj
 0001:0001c8c0       __crtLCMapStringEx         000000018001d8c0 f   libcpmt:winapinls.obj
 0001:0001c97c       __wcsnicmp_ascii           000000018001d97c f   libcpmt:winapinls.obj
 0001:0001c9f0       __security_check_cookie    000000018001d9f0 f   LIBCMT:_amdsecgs_.obj
 0001:0001ca14       ??2@YAPEAX_K@Z             000000018001da14 f   LIBCMT:new_scalar.obj
 0001:0001ca50       ??3@YAXPEAX@Z              000000018001da50 f   LIBCMT:delete_scalar.obj
 0001:0001ca58       ??3@YAXPEAX_K@Z            000000018001da58 f   LIBCMT:delete_scalar_size.obj
 0001:0001ca58       ??_V@YAXPEAX@Z             000000018001da58 f   LIBCMT:delete_array.obj
 0001:0001ca60       ??_Etype_info@@UEAAPEAXI@Z 000000018001da60 f i LIBCMT:std_type_info_static.obj
 0001:0001ca60       ??_Gtype_info@@UEAAPEAXI@Z 000000018001da60 f i LIBCMT:std_type_info_static.obj
 0001:0001cbd4       _Init_thread_footer        000000018001dbd4 f   LIBCMT:thread_safe_statics.obj
 0001:0001cc34       _Init_thread_header        000000018001dc34 f   LIBCMT:thread_safe_statics.obj
 0001:0001cc9c       _Init_thread_notify        000000018001dc9c f   LIBCMT:thread_safe_statics.obj
 0001:0001ccf8       _Init_thread_wait          000000018001dcf8 f   LIBCMT:thread_safe_statics.obj
 0001:0001cd90       __scrt_acquire_startup_lock 000000018001dd90 f   LIBCMT:utility.obj
 0001:0001cdcc       __scrt_dllmain_after_initialize_c 000000018001ddcc f   LIBCMT:utility.obj
 0001:0001ce00       __scrt_dllmain_before_initialize_c 000000018001de00 f   LIBCMT:utility.obj
 0001:0001ce18       __scrt_dllmain_crt_thread_attach 000000018001de18 f   LIBCMT:utility.obj
 0001:0001ce40       __scrt_dllmain_crt_thread_detach 000000018001de40 f   LIBCMT:utility.obj
 0001:0001ce58       __scrt_dllmain_exception_filter 000000018001de58 f   LIBCMT:utility.obj
 0001:0001cebc       __scrt_dllmain_uninitialize_c 000000018001debc f   LIBCMT:utility.obj
 0001:0001ceec       __scrt_dllmain_uninitialize_critical 000000018001deec f   LIBCMT:utility.obj
 0001:0001cf00       __scrt_initialize_crt      000000018001df00 f   LIBCMT:utility.obj
 0001:0001cf4c       __scrt_initialize_onexit_tables 000000018001df4c f   LIBCMT:utility.obj
 0001:0001d018       __scrt_is_nonwritable_in_current_image 000000018001e018 f   LIBCMT:utility.obj
 0001:0001d0b4       __scrt_release_startup_lock 000000018001e0b4 f   LIBCMT:utility.obj
 0001:0001d0d8       __scrt_uninitialize_crt    000000018001e0d8 f   LIBCMT:utility.obj
 0001:0001d104       _onexit                    000000018001e104 f   LIBCMT:utility.obj
 0001:0001d154       atexit                     000000018001e154 f   LIBCMT:utility.obj
 0001:0001d16c       ??_U@YAPEAX_K@Z            000000018001e16c f   LIBCMT:new_array.obj
 0001:0001d4c0       _DllMainCRTStartup         000000018001e4c0 f   LIBCMT:dll_dllmain.obj
 0001:0001d500       _guard_check_icall         000000018001e500 f i LIBCMT:checkcfg.obj
 0001:0001d508       __GSHandlerCheck           000000018001e508 f   LIBCMT:_gshandler_.obj
 0001:0001d528       __GSHandlerCheckCommon     000000018001e528 f   LIBCMT:_gshandler_.obj
 0001:0001d584       __GSHandlerCheck_EH        000000018001e584 f   LIBCMT:gshandlereh.obj
 0001:0001d620       __chkstk                   000000018001e620 f   LIBCMT:_chkstk_.obj
 0001:0001d620       _alloca_probe              000000018001e620 f   LIBCMT:_chkstk_.obj
 0001:0001d674       __raise_securityfailure    000000018001e674 f   LIBCMT:gs_report.obj
 0001:0001d6a8       __report_gsfailure         000000018001e6a8 f   LIBCMT:gs_report.obj
 0001:0001d77c       __report_rangecheckfailure 000000018001e77c f   LIBCMT:gs_report.obj
 0001:0001d790       __report_securityfailure   000000018001e790 f   LIBCMT:gs_report.obj
 0001:0001d910       ??0bad_array_new_length@std@@QEAA@AEBV01@@Z 000000018001e910 f i LIBCMT:throw_bad_alloc.obj
 0001:0001d950       ??0bad_array_new_length@std@@QEAA@XZ 000000018001e950 f i LIBCMT:throw_bad_alloc.obj
 0001:0001d970       ?__scrt_throw_std_bad_alloc@@YAXXZ 000000018001e970 f   LIBCMT:throw_bad_alloc.obj
 0001:0001d970       ?_Xbad_alloc@std@@YAXXZ    000000018001e970 f   libcpmt:xthrow.obj
 0001:0001d990       ?__scrt_throw_std_bad_array_new_length@@YAXXZ 000000018001e990 f   LIBCMT:throw_bad_alloc.obj
 0001:0001d9b0       __crt_debugger_hook        000000018001e9b0 f   LIBCMT:utility_desktop.obj
 0001:0001d9b8       __scrt_fastfail            000000018001e9b8 f   LIBCMT:utility_desktop.obj
 0001:0001db00       __isa_available_init       000000018001eb00 f   LIBCMT:_cpu_disp_.obj
 0001:0001dcc8       _get_startup_argv_mode     000000018001ecc8 f   LIBCMT:argv_mode.obj
 0001:0001dcc8       DllMain                    000000018001ecc8 f   LIBCMT:dll_dllmain_stub.obj
 0001:0001dcc8       ?do_max_length@codecvt_base@std@@MEBAHXZ 000000018001ecc8 f   libcpmt:cerr.obj
 0001:0001dcc8       ?do_encoding@codecvt_base@std@@MEBAHXZ 000000018001ecc8 f   libcpmt:cerr.obj
 0001:0001dcd0       __scrt_is_ucrt_dll_in_use  000000018001ecd0 f   LIBCMT:ucrt_detection.obj
 0001:0001dcdc       __security_init_cookie     000000018001ecdc f   LIBCMT:gs_support.obj
 0001:0001dd88       ?__scrt_initialize_type_info@@YAXXZ 000000018001ed88 f   LIBCMT:tncleanup.obj
 0001:0001dd98       ?__scrt_uninitialize_type_info@@YAXXZ 000000018001ed98 f   LIBCMT:tncleanup.obj
 0001:0001dda4       __local_stdio_scanf_options 000000018001eda4 f i LIBCMT:default_local_stdio_options.obj
 0001:0001ddac       __scrt_initialize_default_local_stdio_options 000000018001edac f   LIBCMT:default_local_stdio_options.obj
 0001:0001ddc8       __scrt_get_dyn_tls_init_callback 000000018001edc8 f   LIBCMT:dyn_tls_init.obj
 0001:0001ddd0       _RTC_Initialize            000000018001edd0 f   LIBCMT:_initsect_.obj
 0001:0001de1c       _RTC_Terminate             000000018001ee1c f   LIBCMT:_initsect_.obj
 0001:0001de80       memmove                    000000018001ee80 f   libvcruntime:memcpy.obj
 0001:0001de80       memcpy                     000000018001ee80 f   libvcruntime:memcpy.obj
 0001:0001e2b8       _purecall                  000000018001f2b8 f   libvcruntime:purevirt.obj
 0001:0001e2f4       __std_exception_copy       000000018001f2f4 f   libvcruntime:std_exception.obj
 0001:0001e384       __std_exception_destroy    000000018001f384 f   libvcruntime:std_exception.obj
 0001:0001e3ac       _CxxThrowException         000000018001f3ac f   libvcruntime:throw.obj
 0001:0001e484       __DestructExceptionObject  000000018001f484 f   libvcruntime:frame.obj
 0001:0001e50c       ??0bad_exception@std@@QEAA@AEBV01@@Z 000000018001f50c f i libvcruntime:frame.obj
 0001:0001e54c       ??0bad_exception@std@@QEAA@XZ 000000018001f54c f i libvcruntime:frame.obj
 0001:0001eec8       ?_CallMemberFunction0@@YAXPEAXP6AX0@Z@Z 000000018001fec8 f i libvcruntime:frame.obj
 0001:0001eecc       ?_CallMemberFunction1@@YAXPEAXP6AX0@Z0@Z 000000018001fecc f i libvcruntime:frame.obj
 0001:0001eed8       ?_CallMemberFunction2@@YAXPEAXP6AX0@Z0H@Z 000000018001fed8 f i libvcruntime:frame.obj
 0001:0001eee8       __AdjustPointer            000000018001fee8 f   libvcruntime:frame.obj
 0001:0001ef0c       __BuildCatchObject         000000018001ff0c f   libvcruntime:frame.obj
 0001:0001efd0       __BuildCatchObjectHelper   000000018001ffd0 f   libvcruntime:frame.obj
 0001:0001f1b0       __CxxCallCatchBlock        00000001800201b0 f   libvcruntime:frame.obj
 0001:0001f39c       __FrameUnwindFilter        000000018002039c f   libvcruntime:frame.obj
 0001:0001f3e8       __FrameUnwindToState       00000001800203e8 f   libvcruntime:frame.obj
 0001:0001f57c       __InternalCxxFrameHandler  000000018002057c f   libvcruntime:frame.obj
 0001:0001f7d4       __TypeMatch                00000001800207d4 f   libvcruntime:frame.obj
 0001:0001f914       __std_terminate            0000000180020914 f   libvcruntime:frame.obj
 0001:0001f920       ?_ExecutionInCatch@@YAHPEAU_xDISPATCHER_CONTEXT@@PEBU_s_FuncInfo@@@Z 0000000180020920 f   libvcruntime:trnsctrl.obj
 0001:0001f994       ?_GetEstablisherFrame@@YAPEA_KPEA_KPEAU_xDISPATCHER_CONTEXT@@PEBU_s_FuncInfo@@0@Z 0000000180020994 f   libvcruntime:trnsctrl.obj
 0001:0001fa60       ?_GetRangeOfTrysToCheck@@YAPEBU_s_TryBlockMapEntry@@PEA_KPEBU_s_FuncInfo@@HHPEAI2PEAU_xDISPATCHER_CONTEXT@@@Z 0000000180020a60 f   libvcruntime:trnsctrl.obj
 0001:0001fb8c       ?__FrameUnwindToEmptyState@@YAXPEA_KPEAU_xDISPATCHER_CONTEXT@@PEBU_s_FuncInfo@@@Z 0000000180020b8c f   libvcruntime:trnsctrl.obj
 0001:0001fc20       ?__SehTransFilter@@YAHPEAU_EXCEPTION_POINTERS@@PEAUEHExceptionRecord@@PEA_KPEAU_CONTEXT@@PEAU_xDISPATCHER_CONTEXT@@PEBU_s_FuncInfo@@PEAH@Z 0000000180020c20 f   libvcruntime:trnsctrl.obj
 0001:0001fcb8       _CallSETranslator          0000000180020cb8 f   libvcruntime:trnsctrl.obj
 0001:0001fd10       _CreateFrameInfo           0000000180020d10 f   libvcruntime:trnsctrl.obj
 0001:0001fd4c       _FindAndUnlinkFrame        0000000180020d4c f   libvcruntime:trnsctrl.obj
 0001:0001fda4       _GetImageBase              0000000180020da4 f   libvcruntime:trnsctrl.obj
 0001:0001fdb8       _GetThrowImageBase         0000000180020db8 f   libvcruntime:trnsctrl.obj
 0001:0001fdcc       _IsExceptionObjectToBeDestroyed 0000000180020dcc f   libvcruntime:trnsctrl.obj
 0001:0001fdfc       _SetImageBase              0000000180020dfc f   libvcruntime:trnsctrl.obj
 0001:0001fe14       _SetThrowImageBase         0000000180020e14 f   libvcruntime:trnsctrl.obj
 0001:0001fe2c       _UnwindNestedFrames        0000000180020e2c f   libvcruntime:trnsctrl.obj
 0001:0001ff50       __CxxFrameHandler3         0000000180020f50 f   libvcruntime:trnsctrl.obj
 0001:0001ffe0       memset                     0000000180020fe0 f   libvcruntime:memset.obj
 0001:00020190       memcmp                     0000000180021190 f   libvcruntime:memcmp.obj
 0001:00020420       __vcrt_FlsAlloc            0000000180021420 f   libvcruntime:winapi_downlevel.obj
 0001:00020474       __vcrt_FlsFree             0000000180021474 f   libvcruntime:winapi_downlevel.obj
 0001:000204c8       __vcrt_FlsGetValue         00000001800214c8 f   libvcruntime:winapi_downlevel.obj
 0001:0002051c       __vcrt_FlsSetValue         000000018002151c f   libvcruntime:winapi_downlevel.obj
 0001:00020584       __vcrt_InitializeCriticalSectionEx 0000000180021584 f   libvcruntime:winapi_downlevel.obj
 0001:000205fc       __vcrt_initialize_winapi_thunks 00000001800215fc f   libvcruntime:winapi_downlevel.obj
 0001:00020648       __vcrt_uninitialize_winapi_thunks 0000000180021648 f   libvcruntime:winapi_downlevel.obj
 0001:00020688       __vcrt_initialize          0000000180021688 f   libvcruntime:initialization.obj
 0001:000206bc       __vcrt_thread_attach       00000001800216bc f   libvcruntime:initialization.obj
 0001:000206d0       __vcrt_thread_detach       00000001800216d0 f   libvcruntime:initialization.obj
 0001:000206e4       __vcrt_uninitialize        00000001800216e4 f   libvcruntime:initialization.obj
 0001:00020704       __vcrt_uninitialize_critical 0000000180021704 f   libvcruntime:initialization.obj
 0001:00020714       __C_specific_handler       0000000180021714 f   libvcruntime:_chandler_.obj
 0001:00020910       __std_type_info_compare    0000000180021910 f   libvcruntime:std_type_info.obj
 0001:00020938       __std_type_info_destroy_list 0000000180021938 f   libvcruntime:std_type_info.obj
 0001:00020964       __vcrt_initialize_pure_virtual_call_handler 0000000180021964 f   libvcruntime:purevirt_data.obj
 0001:00020988       __vcrt_freefls             0000000180021988 f   libvcruntime:per_thread_data.obj
 0001:000209a8       __vcrt_freeptd             00000001800219a8 f   libvcruntime:per_thread_data.obj
 0001:000209f8       __vcrt_getptd              00000001800219f8 f   libvcruntime:per_thread_data.obj
 0001:00020a14       __vcrt_getptd_noexit       0000000180021a14 f   libvcruntime:per_thread_data.obj
 0001:00020acc       __vcrt_initialize_ptd      0000000180021acc f   libvcruntime:per_thread_data.obj
 0001:00020b0c       __vcrt_uninitialize_ptd    0000000180021b0c f   libvcruntime:per_thread_data.obj
 0001:00020b30       ?__GetCurrentState@@YAHPEA_KPEAU_xDISPATCHER_CONTEXT@@PEBU_s_FuncInfo@@@Z 0000000180021b30 f   libvcruntime:ehstate.obj
 0001:00020b58       ?__GetUnwindTryBlock@@YAHPEA_KPEAU_xDISPATCHER_CONTEXT@@PEBU_s_FuncInfo@@@Z 0000000180021b58 f   libvcruntime:ehstate.obj
 0001:00020b84       ?__SetState@@YAXPEA_KPEAU_xDISPATCHER_CONTEXT@@PEBU_s_FuncInfo@@H@Z 0000000180021b84 f   libvcruntime:ehstate.obj
 0001:00020b90       ?__SetUnwindTryBlock@@YAXPEA_KPEAU_xDISPATCHER_CONTEXT@@PEBU_s_FuncInfo@@H@Z 0000000180021b90 f   libvcruntime:ehstate.obj
 0001:00020bcc       ?__StateFromControlPc@@YAHPEBU_s_FuncInfo@@PEAU_xDISPATCHER_CONTEXT@@@Z 0000000180021bcc f   libvcruntime:ehstate.obj
 0001:00020bd4       ?__StateFromIp@@YAHPEBU_s_FuncInfo@@PEAU_xDISPATCHER_CONTEXT@@_J@Z 0000000180021bd4 f   libvcruntime:ehstate.obj
 0001:00020c50       _CallSettingFrame          0000000180021c50 f   libvcruntime:handlers.obj
 0001:00020ca0       _local_unwind              0000000180021ca0 f   libvcruntime:_jmpuwind_.obj
 0001:00020cd0       _NLG_Notify                0000000180021cd0 f   libvcruntime:_jmpuwind_.obj
 0001:00020cf0       __NLG_Dispatch2            0000000180021cf0 f   libvcruntime:_jmpuwind_.obj
 0001:00020d00       __NLG_Return2              0000000180021d00 f   libvcruntime:_jmpuwind_.obj
 0001:00020d04       __vcrt_initialize_locks    0000000180021d04 f   libvcruntime:locks.obj
 0001:00020d4c       __vcrt_uninitialize_locks  0000000180021d4c f   libvcruntime:locks.obj
 0001:0002176c       ??$ftprintf@PEAU_iobuf@@PEB_WAEBQEB_WAEBQEB_WAEBI@?$__crt_char_traits@_W@@SAH$$QEAPEAU_iobuf@@$$QEAPEB_WAEBQEB_W2AEBI@Z 000000018002276c f i libucrt:assert.obj
 0001:00021794       _wassert                   0000000180022794 f   libucrt:assert.obj
 0001:00021818       fwprintf                   0000000180022818 f i libucrt:assert.obj
 0001:0002185c       swprintf                   000000018002285c f i libucrt:assert.obj
 0001:000218b0       __acrt_call_reportfault    00000001800228b0 f   libucrt:invalid_parameter.obj
 0001:00021a0c       __acrt_initialize_invalid_parameter_handler 0000000180022a0c f   libucrt:invalid_parameter.obj
 0001:00021a14       _invalid_parameter         0000000180022a14 f   libucrt:invalid_parameter.obj
 0001:00021abc       _invalid_parameter_noinfo  0000000180022abc f   libucrt:invalid_parameter.obj
 0001:00021adc       _invalid_parameter_noinfo_noreturn 0000000180022adc f   libucrt:invalid_parameter.obj
 0001:00021b0c       _invoke_watson             0000000180022b0c f   libucrt:invalid_parameter.obj
 0001:00021b54       rand                       0000000180022b54 f   libucrt:rand.obj
 0001:00021b80       malloc                     0000000180022b80 f   libucrt:malloc.obj
 0001:00021b88       abort                      0000000180022b88 f   libucrt:abort.obj
 0001:00021be0       free                       0000000180022be0 f   libucrt:free.obj
 0001:00021be8       ??$?RV<lambda_7b91131dde12e1c3dfc74ff76b3f2eac>@@AEAV<lambda_dd75445284c072d0bd3768540cc698fa>@@V<lambda_16bc4ecb55b4718497c16bceaea2ceaf>@@@?$__crt_seh_guarded_call@H@@QEAAH$$QEAV<lambda_7b91131dde12e1c3dfc74ff76b3f2eac>@@AEAV<lambda_dd75445284c072d0bd3768540cc698fa>@@$$QEAV<lambda_16bc4ecb55b4718497c16bceaea2ceaf>@@@Z 0000000180022be8 f i libucrt:output.obj
 0001:00021c28       ??$ensure_buffer_is_big_enough@D@formatting_buffer@__crt_stdio_output@@QEAA_N_K@Z 0000000180022c28 f i libucrt:output.obj
 0001:00021cd4       ??$is_wide_character_specifier@_W@__crt_stdio_output@@YA_N_K_WW4length_modifier@0@@Z 0000000180022cd4 f i libucrt:output.obj
 0001:00021d18       ??$type_case_integer_parse_into_buffer@I@?$output_processor@_WV?$string_output_adapter@_W@__crt_stdio_output@@V?$standard_base@_WV?$string_output_adapter@_W@__crt_stdio_output@@@2@@__crt_stdio_output@@AEAAXII_N@Z 0000000180022d18 f i libucrt:output.obj
 0001:00021d18       ??$type_case_integer_parse_into_buffer@I@?$output_processor@_WV?$stream_output_adapter@_W@__crt_stdio_output@@V?$standard_base@_WV?$stream_output_adapter@_W@__crt_stdio_output@@@2@@__crt_stdio_output@@AEAAXII_N@Z 0000000180022d18 f i libucrt:output.obj
 0001:00021db4       ??$type_case_integer_parse_into_buffer@_K@?$output_processor@_WV?$string_output_adapter@_W@__crt_stdio_output@@V?$standard_base@_WV?$string_output_adapter@_W@__crt_stdio_output@@@2@@__crt_stdio_output@@AEAAX_KI_N@Z 0000000180022db4 f i libucrt:output.obj
 0001:00021db4       ??$type_case_integer_parse_into_buffer@_K@?$output_processor@_WV?$stream_output_adapter@_W@__crt_stdio_output@@V?$standard_base@_WV?$stream_output_adapter@_W@__crt_stdio_output@@@2@@__crt_stdio_output@@AEAAX_KI_N@Z 0000000180022db4 f i libucrt:output.obj
 0001:00021e50       ??$write_multiple_characters@V?$stream_output_adapter@_W@__crt_stdio_output@@D@__crt_stdio_output@@YAXAEBV?$stream_output_adapter@_W@0@DHQEAH@Z 0000000180022e50 f i libucrt:output.obj
 0001:00021ee0       ??$write_multiple_characters@V?$string_output_adapter@_W@__crt_stdio_output@@D@__crt_stdio_output@@YAXAEBV?$string_output_adapter@_W@0@DHQEAH@Z 0000000180022ee0 f i libucrt:output.obj
 0001:00021f50       ??0?$output_processor@_WV?$string_output_adapter@_W@__crt_stdio_output@@V?$standard_base@_WV?$string_output_adapter@_W@__crt_stdio_output@@@2@@__crt_stdio_output@@QEAA@AEBV?$string_output_adapter@_W@1@_KQEB_WQEAU__crt_locale_pointers@@QEAD@Z 0000000180022f50 f i libucrt:output.obj
 0001:00021f50       ??0?$output_processor@_WV?$stream_output_adapter@_W@__crt_stdio_output@@V?$standard_base@_WV?$stream_output_adapter@_W@__crt_stdio_output@@@2@@__crt_stdio_output@@QEAA@AEBV?$stream_output_adapter@_W@1@_KQEB_WQEAU__crt_locale_pointers@@QEAD@Z 0000000180022f50 f i libucrt:output.obj
 0001:00021fd0       ??0_LocaleUpdate@@QEAA@QEAU__crt_locale_pointers@@@Z 0000000180022fd0 f i libucrt:output.obj
 0001:00022150       ?force_decimal_point@__crt_stdio_output@@YAXPEADQEAU__crt_locale_pointers@@@Z 0000000180023150 f i libucrt:output.obj
 0001:000221c0       ?parse_int_from_format_string@?$output_processor@_WV?$stream_output_adapter@_W@__crt_stdio_output@@V?$standard_base@_WV?$stream_output_adapter@_W@__crt_stdio_output@@@2@@__crt_stdio_output@@AEAA_NQEAH@Z 00000001800231c0 f i libucrt:output.obj
 0001:000221c0       ?parse_int_from_format_string@?$output_processor@_WV?$string_output_adapter@_W@__crt_stdio_output@@V?$standard_base@_WV?$string_output_adapter@_W@__crt_stdio_output@@@2@@__crt_stdio_output@@AEAA_NQEAH@Z 00000001800231c0 f i libucrt:output.obj
 0001:00022240       ?process@?$output_processor@_WV?$stream_output_adapter@_W@__crt_stdio_output@@V?$standard_base@_WV?$stream_output_adapter@_W@__crt_stdio_output@@@2@@__crt_stdio_output@@QEAAHXZ 0000000180023240 f i libucrt:output.obj
 0001:000224b8       ?process@?$output_processor@_WV?$string_output_adapter@_W@__crt_stdio_output@@V?$standard_base@_WV?$string_output_adapter@_W@__crt_stdio_output@@@2@@__crt_stdio_output@@QEAAHXZ 00000001800234b8 f i libucrt:output.obj
 0001:00022734       ?state_case_size@?$output_processor@_WV?$stream_output_adapter@_W@__crt_stdio_output@@V?$standard_base@_WV?$stream_output_adapter@_W@__crt_stdio_output@@@2@@__crt_stdio_output@@AEAA_NXZ 0000000180023734 f i libucrt:output.obj
 0001:000228d8       ?state_case_size@?$output_processor@_WV?$string_output_adapter@_W@__crt_stdio_output@@V?$standard_base@_WV?$string_output_adapter@_W@__crt_stdio_output@@@2@@__crt_stdio_output@@AEAA_NXZ 00000001800238d8 f i libucrt:output.obj
 0001:00022a7c       ?state_case_type@?$output_processor@_WV?$stream_output_adapter@_W@__crt_stdio_output@@V?$standard_base@_WV?$stream_output_adapter@_W@__crt_stdio_output@@@2@@__crt_stdio_output@@AEAA_NXZ 0000000180023a7c f i libucrt:output.obj
 0001:00022d48       ?state_case_type@?$output_processor@_WV?$string_output_adapter@_W@__crt_stdio_output@@V?$standard_base@_WV?$string_output_adapter@_W@__crt_stdio_output@@@2@@__crt_stdio_output@@AEAA_NXZ 0000000180023d48 f i libucrt:output.obj
 0001:00023014       ?type_case_Z@?$output_processor@_WV?$string_output_adapter@_W@__crt_stdio_output@@V?$standard_base@_WV?$string_output_adapter@_W@__crt_stdio_output@@@2@@__crt_stdio_output@@AEAA_NXZ 0000000180024014 f i libucrt:output.obj
 0001:00023014       ?type_case_Z@?$output_processor@_WV?$stream_output_adapter@_W@__crt_stdio_output@@V?$standard_base@_WV?$stream_output_adapter@_W@__crt_stdio_output@@@2@@__crt_stdio_output@@AEAA_NXZ 0000000180024014 f i libucrt:output.obj
 0001:00023094       ?type_case_a@?$output_processor@_WV?$stream_output_adapter@_W@__crt_stdio_output@@V?$standard_base@_WV?$stream_output_adapter@_W@__crt_stdio_output@@@2@@__crt_stdio_output@@AEAA_NXZ 0000000180024094 f i libucrt:output.obj
 0001:00023094       ?type_case_a@?$output_processor@_WV?$string_output_adapter@_W@__crt_stdio_output@@V?$standard_base@_WV?$string_output_adapter@_W@__crt_stdio_output@@@2@@__crt_stdio_output@@AEAA_NXZ 0000000180024094 f i libucrt:output.obj
 0001:000232d8       ?type_case_c_tchar@?$output_processor@_WV?$stream_output_adapter@_W@__crt_stdio_output@@V?$standard_base@_WV?$stream_output_adapter@_W@__crt_stdio_output@@@2@@__crt_stdio_output@@AEAA_N_W@Z 00000001800242d8 f i libucrt:output.obj
 0001:000232d8       ?type_case_c_tchar@?$output_processor@_WV?$string_output_adapter@_W@__crt_stdio_output@@V?$standard_base@_WV?$string_output_adapter@_W@__crt_stdio_output@@@2@@__crt_stdio_output@@AEAA_N_W@Z 00000001800242d8 f i libucrt:output.obj
 0001:00023380       ?type_case_integer@?$output_processor@_WV?$stream_output_adapter@_W@__crt_stdio_output@@V?$standard_base@_WV?$stream_output_adapter@_W@__crt_stdio_output@@@2@@__crt_stdio_output@@AEAA_NI_N@Z 0000000180024380 f i libucrt:output.obj
 0001:00023380       ?type_case_integer@?$output_processor@_WV?$string_output_adapter@_W@__crt_stdio_output@@V?$standard_base@_WV?$string_output_adapter@_W@__crt_stdio_output@@@2@@__crt_stdio_output@@AEAA_NI_N@Z 0000000180024380 f i libucrt:output.obj
 0001:00023520       ?type_case_n@?$output_processor@_WV?$string_output_adapter@_W@__crt_stdio_output@@V?$standard_base@_WV?$string_output_adapter@_W@__crt_stdio_output@@@2@@__crt_stdio_output@@AEAA_NXZ 0000000180024520 f i libucrt:output.obj
 0001:00023520       ?type_case_n@?$output_processor@_WV?$stream_output_adapter@_W@__crt_stdio_output@@V?$standard_base@_WV?$stream_output_adapter@_W@__crt_stdio_output@@@2@@__crt_stdio_output@@AEAA_NXZ 0000000180024520 f i libucrt:output.obj
 0001:000235fc       ?type_case_s@?$output_processor@_WV?$stream_output_adapter@_W@__crt_stdio_output@@V?$standard_base@_WV?$stream_output_adapter@_W@__crt_stdio_output@@@2@@__crt_stdio_output@@AEAA_NXZ 00000001800245fc f i libucrt:output.obj
 0001:000235fc       ?type_case_s@?$output_processor@_WV?$string_output_adapter@_W@__crt_stdio_output@@V?$standard_base@_WV?$string_output_adapter@_W@__crt_stdio_output@@@2@@__crt_stdio_output@@AEAA_NXZ 00000001800245fc f i libucrt:output.obj
 0001:000236c4       ?write_stored_string_tchar@?$output_processor@_WV?$stream_output_adapter@_W@__crt_stdio_output@@V?$standard_base@_WV?$stream_output_adapter@_W@__crt_stdio_output@@@2@@__crt_stdio_output@@AEAA_N_W@Z 00000001800246c4 f i libucrt:output.obj
 0001:000237b0       ?write_stored_string_tchar@?$output_processor@_WV?$string_output_adapter@_W@__crt_stdio_output@@V?$standard_base@_WV?$string_output_adapter@_W@__crt_stdio_output@@@2@@__crt_stdio_output@@AEAA_N_W@Z 00000001800247b0 f i libucrt:output.obj
 0001:000238a0       ?write_string@?$stream_output_adapter@_W@__crt_stdio_output@@QEBAXQEB_WHQEAH1@Z 00000001800248a0 f i libucrt:output.obj
 0001:000239ac       ?write_string@?$string_output_adapter@_W@__crt_stdio_output@@QEBAXQEB_WHQEAH1@Z 00000001800249ac f i libucrt:output.obj
 0001:00023a6c       __stdio_common_vfwprintf   0000000180024a6c f   libucrt:output.obj
 0001:00023af8       __stdio_common_vswprintf   0000000180024af8 f   libucrt:output.obj
 0001:00023d30       _sleep                     0000000180024d30 f   libucrt:slbeep.obj
 0001:00023ddc       _time64                    0000000180024ddc f   libucrt:time.obj
 0001:00023e1c       __ascii_stricmp            0000000180024e1c f   libucrt:stricmp.obj
 0001:00023e58       _stricmp                   0000000180024e58 f   libucrt:stricmp.obj
 0001:00023ea0       _stricmp_l                 0000000180024ea0 f   libucrt:stricmp.obj
 0001:00023f54       __acrt_initialize_locks    0000000180024f54 f   libucrt:locks.obj
 0001:00023f9c       __acrt_lock                0000000180024f9c f   libucrt:locks.obj
 0001:00023fb8       __acrt_uninitialize_locks  0000000180024fb8 f   libucrt:locks.obj
 0001:00023ff0       __acrt_unlock              0000000180024ff0 f   libucrt:locks.obj
 0001:0002400c       _lock_locales              000000018002500c f   libucrt:locks.obj
 0001:0002401c       _unlock_locales            000000018002501c f   libucrt:locks.obj
 0001:00024114       setlocale                  0000000180025114 f   libucrt:setlocale.obj
 0001:000242e0       __acrt_errno_from_os_error 00000001800252e0 f   libucrt:errno.obj
 0001:00024328       __acrt_errno_map_os_error  0000000180025328 f   libucrt:errno.obj
 0001:00024378       __doserrno                 0000000180025378 f   libucrt:errno.obj
 0001:00024398       _errno                     0000000180025398 f   libucrt:errno.obj
 0001:000243b8       __acrt_initialize_stdio    00000001800253b8 f   libucrt:_file.obj
 0001:000244d8       __acrt_iob_func            00000001800254d8 f   libucrt:_file.obj
 0001:000244ec       __acrt_uninitialize_stdio  00000001800254ec f   libucrt:_file.obj
 0001:00024548       _get_stream_buffer_pointers 0000000180025548 f   libucrt:_file.obj
 0001:00024590       _lock_file                 0000000180025590 f   libucrt:_file.obj
 0001:0002459c       _unlock_file               000000018002559c f   libucrt:_file.obj
 0001:000245a8       _fclose_nolock             00000001800255a8 f   libucrt:fclose.obj
 0001:0002462c       fclose                     000000018002562c f   libucrt:fclose.obj
 0001:00024698       __acrt_stdio_flush_nolock  0000000180025698 f   libucrt:fflush.obj
 0001:00024710       _fflush_nolock             0000000180025710 f   libucrt:fflush.obj
 0001:0002475c       _flushall                  000000018002575c f   libucrt:fflush.obj
 0001:0002484c       fflush                     000000018002584c f   libucrt:fflush.obj
 0001:00024890       _fgetc_nolock              0000000180025890 f   libucrt:fgetc.obj
 0001:000248d4       fgetc                      00000001800258d4 f   libucrt:fgetc.obj
 0001:000249d8       fgetpos                    00000001800259d8 f   libucrt:fgetpos.obj
 0001:00024a24       _fputc_nolock              0000000180025a24 f   libucrt:fputc.obj
 0001:00024a3c       fputc                      0000000180025a3c f   libucrt:fputc.obj
 0001:00024b5c       fsetpos                    0000000180025b5c f   libucrt:fsetpos.obj
 0001:00024e08       _fseeki64                  0000000180025e08 f   libucrt:fseek.obj
 0001:00024e10       ??$?RV<lambda_5d4c3fee44080f75d5d9762853974fe0>@@AEAV<lambda_532e024f4337e6fc7ad266c2bef9f4ed>@@V<lambda_c87bdc10097eb2402edb8ba9bdf0697b>@@@?$__crt_seh_guarded_call@_K@@QEAA_K$$QEAV<lambda_5d4c3fee44080f75d5d9762853974fe0>@@AEAV<lambda_532e024f4337e6fc7ad266c2bef9f4ed>@@$$QEAV<lambda_c87bdc10097eb2402edb8ba9bdf0697b>@@@Z 0000000180025e10 f i libucrt:fwrite.obj
 0001:00024eb4       _fwrite_nolock             0000000180025eb4 f   libucrt:fwrite.obj
 0001:00025050       fwrite                     0000000180026050 f   libucrt:fwrite.obj
 0001:000250d4       ??$?RV<lambda_7a5ef57ff966f610505f1d28a3d40618>@@AEAV<lambda_b721fa326cdb32351d23dfa67958c160>@@V<lambda_5e0fb27672408a07956fe59e48ccb2aa>@@@?$__crt_seh_guarded_call@H@@QEAAH$$QEAV<lambda_7a5ef57ff966f610505f1d28a3d40618>@@AEAV<lambda_b721fa326cdb32351d23dfa67958c160>@@$$QEAV<lambda_5e0fb27672408a07956fe59e48ccb2aa>@@@Z 00000001800260d4 f i libucrt:setvbuf.obj
 0001:00025204       setvbuf                    0000000180026204 f   libucrt:setvbuf.obj
 0001:000252a4       _ungetc_nolock             00000001800262a4 f   libucrt:ungetc.obj
 0001:000253b4       ungetc                     00000001800263b4 f   libucrt:ungetc.obj
 0001:00025414       _calloc_base               0000000180026414 f   libucrt:calloc_base.obj
 0001:0002548c       __pctype_func              000000018002648c f   libucrt:ctype.obj
 0001:000254bc       isdigit                    00000001800264bc f i libucrt:_ctype.obj
 0001:00025530       islower                    0000000180026530 f i libucrt:_ctype.obj
 0001:000255a4       isupper                    00000001800265a4 f i libucrt:_ctype.obj
 0001:00025618       _wcsdup                    0000000180026618 f   libucrt:wcsdup.obj
 0001:0002569c       ___lc_codepage_func        000000018002669c f   libucrt:initctype.obj
 0001:000256cc       ___lc_locale_name_func     00000001800266cc f   libucrt:initctype.obj
 0001:00025700       __acrt_locale_initialize_ctype 0000000180026700 f   libucrt:initctype.obj
 0001:00025d4c       _ismbblead                 0000000180026d4c f   libucrt:ismbbyte.obj
 0001:00025d60       _malloc_base               0000000180026d60 f   libucrt:malloc_base.obj
 0001:00025dc0       _realloc_base              0000000180026dc0 f   libucrt:realloc_base.obj
 0001:00025e44       ??$make_c_string_character_source@_W$$T@__crt_strtox@@YA?AV?$c_string_character_source@_W@0@QEB_W$$T@Z 0000000180026e44 f i libucrt:atox.obj
 0001:00025e44       ??$make_c_string_character_source@_WPEAPEA_W@__crt_strtox@@YA?AV?$c_string_character_source@_W@0@QEB_WQEAPEA_W@Z 0000000180026e44 f i libucrt:strtod.obj
 0001:00025e60       ?divide@__crt_strtox@@YA_KAEAUbig_integer@1@AEBU21@@Z 0000000180026e60 f i libucrt:strtod.obj
 0001:000263c0       pow                        00000001800273c0 f   libucrt:pow.obj
 0001:00027a60       powf                       0000000180028a60 f   libucrt:powf.obj
 0001:00028928       __strncnt                  0000000180029928 f   libucrt:strncnt.obj
 0001:00028940       _free_base                 0000000180029940 f   libucrt:free_base.obj
 0001:000289d0       _tolower_l                 00000001800299d0 f   libucrt:tolower_toupper.obj
 0001:00028b10       tolower                    0000000180029b10 f   libucrt:tolower_toupper.obj
 0001:00028b3c       wcscpy_s                   0000000180029b3c f   libucrt:wcscpy_s.obj
 0001:00028ba4       wcsnlen                    0000000180029ba4 f   libucrt:strnlen.obj
 0001:00028d94       __acrt_initialize_new_handler 0000000180029d94 f   libucrt:new_handler.obj
 0001:00028d9c       _callnewh                  0000000180029d9c f   libucrt:new_handler.obj
 0001:00028ddc       _query_new_handler         0000000180029ddc f   libucrt:new_handler.obj
 0001:00028e10       _seh_filter_dll            0000000180029e10 f   libucrt:exception_filter.obj
 0001:00028e24       _seh_filter_exe            0000000180029e24 f   libucrt:exception_filter.obj
 0001:000291e4       __acrt_initialize_thread_local_exit_callback 000000018002a1e4 f   libucrt:exit.obj
 0001:000291ec       _cexit                     000000018002a1ec f   libucrt:exit.obj
 0001:000291fc       _exit                      000000018002a1fc f   libucrt:exit.obj
 0001:00029208       _is_c_termination_complete 000000018002a208 f   libucrt:exit.obj
 0001:000293cc       __acrt_allocate_buffer_for_argv 000000018002a3cc f   libucrt:argv_parsing.obj
 0001:00029430       _configure_narrow_argv     000000018002a430 f   libucrt:argv_parsing.obj
 0001:0002978c       __dcrt_uninitialize_environments_nolock 000000018002a78c f   libucrt:environment_initialization.obj
 0001:000297c4       _initialize_narrow_environment 000000018002a7c4 f   libucrt:environment_initialization.obj
 0001:000297cc       ??$?RV<lambda_b8c45f8f788dd370798f47cfe8ac3a86>@@AEAV<lambda_4e60a939b0d047cfe11ddc22648dfba9>@@V<lambda_332c3edc96d0294ec56c57d38c1cdfd5>@@@?$__crt_seh_guarded_call@H@@QEAAH$$QEAV<lambda_b8c45f8f788dd370798f47cfe8ac3a86>@@AEAV<lambda_4e60a939b0d047cfe11ddc22648dfba9>@@$$QEAV<lambda_332c3edc96d0294ec56c57d38c1cdfd5>@@@Z 000000018002a7cc f i libucrt:onexit.obj
 0001:00029808       ??$?RV<lambda_e24bbb7b643b32fcea6fa61b31d4c984>@@AEAV<lambda_275893d493268fdec8709772e3fcec0e>@@V<lambda_9d71df4d7cf3f480f8d633942495c3b0>@@@?$__crt_seh_guarded_call@H@@QEAAH$$QEAV<lambda_e24bbb7b643b32fcea6fa61b31d4c984>@@AEAV<lambda_275893d493268fdec8709772e3fcec0e>@@$$QEAV<lambda_9d71df4d7cf3f480f8d633942495c3b0>@@@Z 000000018002a808 f i libucrt:onexit.obj
 0001:00029b84       _crt_atexit                000000018002ab84 f   libucrt:onexit.obj
 0001:00029b94       _execute_onexit_table      000000018002ab94 f   libucrt:onexit.obj
 0001:00029bd0       _initialize_onexit_table   000000018002abd0 f   libucrt:onexit.obj
 0001:00029c10       _register_onexit_function  000000018002ac10 f   libucrt:onexit.obj
 0001:00029d8c       __acrt_uninitialize_command_line 000000018002ad8c f   libucrt:argv_data.obj
 0001:00029d8c       ?do_always_noconv@?$codecvt@DDU_Mbstatet@@@std@@MEBA_NXZ 000000018002ad8c f   libcpmt:cerr.obj
 0001:00029d90       __acrt_initialize          000000018002ad90 f   libucrt:initialization.obj
 0001:00029da4       __acrt_thread_attach       000000018002ada4 f   libucrt:initialization.obj
 0001:00029db8       __acrt_thread_detach       000000018002adb8 f   libucrt:initialization.obj
 0001:00029dc8       __acrt_uninitialize        000000018002adc8 f   libucrt:initialization.obj
 0001:00029ddc       __acrt_uninitialize_critical 000000018002addc f   libucrt:initialization.obj
 0001:00029dec       _initterm                  000000018002adec f   libucrt:initterm.obj
 0001:00029e64       _initterm_e                000000018002ae64 f   libucrt:initterm.obj
 0001:00029eb0       terminate                  000000018002aeb0 f   libucrt:terminate.obj
 0001:00029ed8       strcpy_s                   000000018002aed8 f   libucrt:strcpy_s.obj
 0001:00029f38       ??$is_overflow_condition@K@__crt_strtox@@YA_NIK@Z 000000018002af38 f i libucrt:atox.obj
 0001:00029f64       ??$parse_integer@KV?$c_string_character_source@_W@__crt_strtox@@@__crt_strtox@@YAKQEAU__crt_locale_pointers@@V?$c_string_character_source@_W@0@H_N@Z 000000018002af64 f i libucrt:atox.obj
 0001:0002a638       _wtol                      000000018002b638 f   libucrt:atox.obj
 0001:0002a664       _query_app_type            000000018002b664 f   libucrt:report_runtime_error.obj
 0001:0002a794       _itow_s                    000000018002b794 f   libucrt:xtoa.obj
 0001:0002a7b4       _set_error_mode            000000018002b7b4 f   libucrt:set_error_mode.obj
 0001:0002a7f4       wcscat_s                   000000018002b7f4 f   libucrt:wcscat_s.obj
 0001:0002a874       wcsncat_s                  000000018002b874 f   libucrt:wcsncat_s.obj
 0001:0002a99c       __acrt_show_wide_message_box 000000018002b99c f   libucrt:crtmbox.obj
 0001:0002aab8       ??$?RV<lambda_c36588078e9f5dfd39652860aa6b3aaf>@@AEAV<lambda_ec61778202f4f5fc7e7711acc23c3bca>@@V<lambda_dc9d2797ccde5d239b4a0efae8ebd7db>@@@?$__crt_seh_guarded_call@P6AXH@Z@@QEAAP6AXH@Z$$QEAV<lambda_c36588078e9f5dfd39652860aa6b3aaf>@@AEAV<lambda_ec61778202f4f5fc7e7711acc23c3bca>@@$$QEAV<lambda_dc9d2797ccde5d239b4a0efae8ebd7db>@@@Z 000000018002bab8 f i libucrt:signal.obj
 0001:0002ab00       __acrt_get_sigabrt_handler 000000018002bb00 f   libucrt:signal.obj
 0001:0002ab30       __acrt_initialize_signal_handlers 000000018002bb30 f   libucrt:signal.obj
 0001:0002ab50       raise                      000000018002bb50 f   libucrt:signal.obj
 0001:0002adec       ??$?RV<lambda_46352004c1216016012b18bd6f87e700>@@AEAV<lambda_3bd07e1a1191394380780325891bf33f>@@V<lambda_334532d3f185bcaa59b5be82d7d22bff>@@@?$__crt_seh_guarded_call@X@@QEAAX$$QEAV<lambda_46352004c1216016012b18bd6f87e700>@@AEAV<lambda_3bd07e1a1191394380780325891bf33f>@@$$QEAV<lambda_334532d3f185bcaa59b5be82d7d22bff>@@@Z 000000018002bdec f i libucrt:per_thread_data.obj
 0001:0002ae4c       ??$?RV<lambda_5e887d1dcbef67a5eb4283622ba103bf>@@AEAV<lambda_4466841279450cc726390878d4a41900>@@V<lambda_341c25c0346d94847f1f3c463c57e077>@@@?$__crt_seh_guarded_call@X@@QEAAX$$QEAV<lambda_5e887d1dcbef67a5eb4283622ba103bf>@@AEAV<lambda_4466841279450cc726390878d4a41900>@@$$QEAV<lambda_341c25c0346d94847f1f3c463c57e077>@@@Z 000000018002be4c f i libucrt:per_thread_data.obj
 0001:0002ae94       ??$?RV<lambda_72d1df2b273a38828b1ce30cbf4cdab5>@@AEAV<lambda_876a65b173b8412d3a47c70a915b0cf4>@@V<lambda_41932305e351933ebe8f8be3ed8bb5dc>@@@?$__crt_seh_guarded_call@X@@QEAAX$$QEAV<lambda_72d1df2b273a38828b1ce30cbf4cdab5>@@AEAV<lambda_876a65b173b8412d3a47c70a915b0cf4>@@$$QEAV<lambda_41932305e351933ebe8f8be3ed8bb5dc>@@@Z 000000018002be94 f i libucrt:per_thread_data.obj
 0001:0002aed4       ??$?RV<lambda_fb3a7dec4e47f37f22dae91bb15c9095>@@AEAV<lambda_698284760c8add0bfb0756c19673e34b>@@V<lambda_dfb8eca1e75fef3034a8fb18dd509707>@@@?$__crt_seh_guarded_call@X@@QEAAX$$QEAV<lambda_fb3a7dec4e47f37f22dae91bb15c9095>@@AEAV<lambda_698284760c8add0bfb0756c19673e34b>@@$$QEAV<lambda_dfb8eca1e75fef3034a8fb18dd509707>@@@Z 000000018002bed4 f i libucrt:per_thread_data.obj
 0001:0002b164       __acrt_freeptd             000000018002c164 f   libucrt:per_thread_data.obj
 0001:0002b1a8       __acrt_getptd              000000018002c1a8 f   libucrt:per_thread_data.obj
 0001:0002b23c       __acrt_getptd_noexit       000000018002c23c f   libucrt:per_thread_data.obj
 0001:0002b2dc       __acrt_initialize_ptd      000000018002c2dc f   libucrt:per_thread_data.obj
 0001:0002b318       __acrt_uninitialize_ptd    000000018002c318 f   libucrt:per_thread_data.obj
 0001:0002b33c       wcstol                     000000018002c33c f   libucrt:strtox.obj
 0001:0002b36c       _mbtowc_l                  000000018002c36c f   libucrt:mbtowc.obj
 0001:0002b4b4       mbtowc                     000000018002c4b4 f   libucrt:mbtowc.obj
 0001:0002b4bc       _wctomb_s_l                000000018002c4bc f   libucrt:wctomb.obj
 0001:0002b640       wctomb_s                   000000018002c640 f   libucrt:wctomb.obj
 0001:0002b654       __acrt_update_locale_info  000000018002c654 f   libucrt:locale_update.obj
 0001:0002b688       __acrt_update_multibyte_info 000000018002c688 f   libucrt:locale_update.obj
 0001:0002b6bc       ?__acrt_fp_classify@@YA?AW4__acrt_fp_class@@AEBN@Z 000000018002c6bc f i libucrt:cvt.obj
 0001:0002c0f4       __acrt_fp_format           000000018002d0f4 f   libucrt:cvt.obj
 0001:0002c338       _fputwc_nolock             000000018002d338 f   libucrt:fputwc.obj
 0001:0002c4b4       _fileno                    000000018002d4b4 f   libucrt:fileno.obj
 0001:0002c4dc       _get_printf_count_output   000000018002d4dc f   libucrt:printf_count_output.obj
 0001:0002c4f4       __acrt_stdio_begin_temporary_buffering_nolock 000000018002d4f4 f   libucrt:_sftbuf.obj
 0001:0002c5c4       __acrt_stdio_end_temporary_buffering_nolock 000000018002d5c4 f   libucrt:_sftbuf.obj
 0001:0002c600       ??$?RV<lambda_5df02c53a8f32f81fd64e5bbb78039f1>@@AEAV<lambda_2af78c5f5901b1372d98f9ab3177dfa6>@@AEAV<lambda_f51fe5fd7c79a33db34fc9310f277369>@@@?$__crt_seh_guarded_call@X@@QEAAX$$QEAV<lambda_5df02c53a8f32f81fd64e5bbb78039f1>@@AEAV<lambda_2af78c5f5901b1372d98f9ab3177dfa6>@@AEAV<lambda_f51fe5fd7c79a33db34fc9310f277369>@@@Z 000000018002d600 f i libucrt:wsetlocale.obj
 0001:0002c62c       ??$?RV<lambda_d67e8342c384adda8f857579ab50b2ae>@@AEAV<lambda_30712929f77e709619002f448b6a9510>@@V<lambda_4525336fd7e478d965fb7ca7a337cad8>@@@?$__crt_seh_guarded_call@X@@QEAAX$$QEAV<lambda_d67e8342c384adda8f857579ab50b2ae>@@AEAV<lambda_30712929f77e709619002f448b6a9510>@@$$QEAV<lambda_4525336fd7e478d965fb7ca7a337cad8>@@@Z 000000018002d62c f i libucrt:wsetlocale.obj
 0001:0002c7f8       __acrt_copy_locale_name    000000018002d7f8 f   libucrt:wsetlocale.obj
 0001:0002c87c       __acrt_set_locale_changed  000000018002d87c f   libucrt:wsetlocale.obj
 0001:0002c888       __acrt_uninitialize_locale 000000018002d888 f   libucrt:wsetlocale.obj
 0001:0002c8d0       __lc_lctowcs               000000018002d8d0 f   libucrt:wsetlocale.obj
 0001:0002c974       __lc_wcstolc               000000018002d974 f   libucrt:wsetlocale.obj
 0001:0002cbec       _expandlocale              000000018002dbec f   libucrt:wsetlocale.obj
 0001:0002cfe8       _wcscats                   000000018002dfe8 f   libucrt:wsetlocale.obj
 0001:0002d050       _wsetlocale                000000018002e050 f   libucrt:wsetlocale.obj
 0001:0002da84       __acrt_initialize_lowio    000000018002ea84 f   libucrt:ioinit.obj
 0001:0002dac0       __acrt_uninitialize_lowio  000000018002eac0 f   libucrt:ioinit.obj
 0001:0002db00       _raise_exc                 000000018002eb00 f   libucrt:fpexcept.obj
 0001:0002db28       _raise_exc_ex              000000018002eb28 f   libucrt:fpexcept.obj
 0001:0002de30       _raise_excf                000000018002ee30 f   libucrt:fpexcept.obj
 0001:0002de5c       _set_errno_from_matherr    000000018002ee5c f   libucrt:fpexcept.obj
 0001:0002de8c       _clrfp                     000000018002ee8c f   libucrt:fpctrl.obj
 0001:0002deac       _ctrlfp                    000000018002eeac f   libucrt:fpctrl.obj
 0001:0002df28       _set_statfp                000000018002ef28 f   libucrt:fpctrl.obj
 0001:0002df48       _statfp                    000000018002ef48 f   libucrt:fpctrl.obj
 0001:0002dfa0       ??$?RV<lambda_630b2aca97f6d20d5b5ea6529ea6b6af>@@AEAV<lambda_af91936f1d075d609f72d9d8cba980af>@@V<lambda_e82fa975f615b5c7c7b0e4d178fdae67>@@@?$__crt_seh_guarded_call@H@@QEAAH$$QEAV<lambda_630b2aca97f6d20d5b5ea6529ea6b6af>@@AEAV<lambda_af91936f1d075d609f72d9d8cba980af>@@$$QEAV<lambda_e82fa975f615b5c7c7b0e4d178fdae67>@@@Z 000000018002efa0 f i libucrt:winapi_thunks.obj
 0001:0002e1d8       __acrt_EnumSystemLocalesEx 000000018002f1d8 f   libucrt:winapi_thunks.obj
 0001:0002e280       __acrt_FlsAlloc            000000018002f280 f   libucrt:winapi_thunks.obj
 0001:0002e2d8       __acrt_FlsFree             000000018002f2d8 f   libucrt:winapi_thunks.obj
 0001:0002e330       __acrt_FlsGetValue         000000018002f330 f   libucrt:winapi_thunks.obj
 0001:0002e388       __acrt_FlsSetValue         000000018002f388 f   libucrt:winapi_thunks.obj
 0001:0002e3f0       __acrt_GetLocaleInfoEx     000000018002f3f0 f   libucrt:winapi_thunks.obj
 0001:0002e488       __acrt_GetSystemTimePreciseAsFileTime 000000018002f488 f   libucrt:winapi_thunks.obj
 0001:0002e4e0       __acrt_GetUserDefaultLocaleName 000000018002f4e0 f   libucrt:winapi_thunks.obj
 0001:0002e554       __acrt_InitializeCriticalSectionEx 000000018002f554 f   libucrt:winapi_thunks.obj
 0001:0002e5cc       __acrt_IsValidLocaleName   000000018002f5cc f   libucrt:winapi_thunks.obj
 0001:0002e634       __acrt_LCIDToLocaleName    000000018002f634 f   libucrt:winapi_thunks.obj
 0001:0002e6c0       __acrt_LCMapStringEx       000000018002f6c0 f   libucrt:winapi_thunks.obj
 0001:0002e7b0       __acrt_LocaleNameToLCID    000000018002f7b0 f   libucrt:winapi_thunks.obj
 0001:0002e818       __acrt_MessageBoxW         000000018002f818 f   libucrt:winapi_thunks.obj
 0001:0002e8a0       __acrt_can_show_message_box 000000018002f8a0 f   libucrt:winapi_thunks.obj
 0001:0002e8fc       __acrt_can_use_vista_locale_apis 000000018002f8fc f   libucrt:winapi_thunks.obj
 0001:0002e92c       __acrt_get_parent_window   000000018002f92c f   libucrt:winapi_thunks.obj
 0001:0002e9bc       __acrt_initialize_winapi_thunks 000000018002f9bc f   libucrt:winapi_thunks.obj
 0001:0002e9f4       __acrt_is_interactive      000000018002f9f4 f   libucrt:winapi_thunks.obj
 0001:0002eac8       __acrt_is_packaged_app     000000018002fac8 f   libucrt:winapi_thunks.obj
 0001:0002eb50       __acrt_uninitialize_winapi_thunks 000000018002fb50 f   libucrt:winapi_thunks.obj
 0001:0002ed70       _mbstowcs_s_l              000000018002fd70 f   libucrt:mbstowcs.obj
 0001:0002eea0       mbstowcs_s                 000000018002fea0 f   libucrt:mbstowcs.obj
 0001:0002f1f4       _wcstombs_s_l              00000001800301f4 f   libucrt:wcstombs.obj
 0001:0002f2e0       _fcloseall                 00000001800302e0 f   libucrt:closeall.obj
 0001:0002f394       __acrt_stdio_free_buffer_nolock 0000000180030394 f   libucrt:_freebuf.obj
 0001:0002f3d4       ??$?RV<lambda_bfedae4ebbf01fab1bb6dcc6a9e276e0>@@AEAV<lambda_2fe9b910cf3cbf4a0ab98a02ba45b3ec>@@V<lambda_237c231691f317818eb88cc1d5d642d6>@@@?$__crt_seh_guarded_call@H@@QEAAH$$QEAV<lambda_bfedae4ebbf01fab1bb6dcc6a9e276e0>@@AEAV<lambda_2fe9b910cf3cbf4a0ab98a02ba45b3ec>@@$$QEAV<lambda_237c231691f317818eb88cc1d5d642d6>@@@Z 00000001800303d4 f i libucrt:close.obj
 0001:0002f448       _close                     0000000180030448 f   libucrt:close.obj
 0001:0002f4ec       _close_nolock              00000001800304ec f   libucrt:close.obj
 0001:0002f5a8       ?__acrt_stdio_free_stream@@YAXV__crt_stdio_stream@@@Z 00000001800305a8 f   libucrt:stream.obj
 0001:0002f5ec       ??$?RV<lambda_b521505b218e5242e90febf6bfebc422>@@AEAV<lambda_6978c1fb23f02e42e1d9e99668cc68aa>@@V<lambda_314360699dd331753a4119843814e9a7>@@@?$__crt_seh_guarded_call@H@@QEAAH$$QEAV<lambda_b521505b218e5242e90febf6bfebc422>@@AEAV<lambda_6978c1fb23f02e42e1d9e99668cc68aa>@@$$QEAV<lambda_314360699dd331753a4119843814e9a7>@@@Z 00000001800305ec f i libucrt:commit.obj
 0001:0002f678       _commit                    0000000180030678 f   libucrt:commit.obj
 0001:0002fcac       _write                     0000000180030cac f   libucrt:write.obj
 0001:0002fd98       _write_nolock              0000000180030d98 f   libucrt:write.obj
 0001:00030224       __acrt_stdio_refill_and_read_narrow_nolock 0000000180031224 f   libucrt:_filbuf.obj
 0001:000306e8       _ftelli64                  00000001800316e8 f   libucrt:ftell.obj
 0001:000306f0       _ftelli64_nolock           00000001800316f0 f   libucrt:ftell.obj
 0001:00030908       __acrt_stdio_flush_and_write_narrow_nolock 0000000180031908 f   libucrt:_flsbuf.obj
 0001:000309f0       __acrt_stdio_flush_and_write_wide_nolock 00000001800319f0 f   libucrt:_flsbuf.obj
 0001:00030c68       _lseeki64                  0000000180031c68 f   libucrt:lseek.obj
 0001:00030c70       _lseeki64_nolock           0000000180031c70 f   libucrt:lseek.obj
 0001:00030c78       __acrt_stdio_allocate_buffer_nolock 0000000180031c78 f   libucrt:_getbuf.obj
 0001:00030cdc       _query_new_mode            0000000180031cdc f   libucrt:new_mode.obj
 0001:00030ce4       __acrt_initialize_heap     0000000180031ce4 f   libucrt:heap_handle.obj
 0001:00030d00       __acrt_uninitialize_heap   0000000180031d00 f   libucrt:heap_handle.obj
 0001:00030d0c       _isctype_l                 0000000180031d0c f   libucrt:isctype.obj
 0001:00030fbc       __acrt_GetLocaleInfoA      0000000180031fbc f   libucrt:getlocaleinfoa.obj
 0001:00031184       __acrt_GetStringTypeA      0000000180032184 f   libucrt:getstringtypea.obj
 0001:00031694       __acrt_LCMapStringA        0000000180032694 f   libucrt:lcmapstringa.obj
 0001:0003172c       iswctype                   000000018003272c f   libucrt:iswctype.obj
 0001:000317a0       __acrt_initialize_fma3     00000001800327a0 f   libucrt:fma3_available.obj
 0001:00031810       _pow_special               0000000180032810 f   libucrt:pow_special.obj
 0001:00031934       _powf_special              0000000180032934 f   libucrt:pow_special.obj
 0001:00031ac0       _wcsicmp                   0000000180032ac0 f   libucrt:wcsicmp.obj
 0001:00031b48       _wcsicmp_l                 0000000180032b48 f   libucrt:wcsicmp.obj
 0001:00031c38       __acrt_initialize_timeset  0000000180032c38 f   libucrt:timeset.obj
 0001:00031c68       _isleadbyte_l              0000000180032c68 f i libucrt:_wctype.obj
 0001:00032184       ?expand_if_necessary@?$argument_list@D@?A0xca0879c4@@AEAAHXZ 0000000180033184 f i libucrt:argv_wildcards.obj
 0001:0003224c       __acrt_expand_narrow_argv_wildcards 000000018003324c f   libucrt:argv_wildcards.obj
 0001:00032254       ??$?RV<lambda_99476a1ad63dd22509b5d3e65b0ffc95>@@AEAV<lambda_ad1ced32f4ac17aa236e5ef05d6b3b7c>@@V<lambda_f7424dd8d45958661754dc4f2697e9c3>@@@?$__crt_seh_guarded_call@X@@QEAAX$$QEAV<lambda_99476a1ad63dd22509b5d3e65b0ffc95>@@AEAV<lambda_ad1ced32f4ac17aa236e5ef05d6b3b7c>@@$$QEAV<lambda_f7424dd8d45958661754dc4f2697e9c3>@@@Z 0000000180033254 f i libucrt:mbctype.obj
 0001:00032950       __acrt_initialize_multibyte 0000000180033950 f   libucrt:mbctype.obj
 0001:00032978       __acrt_update_thread_multibyte_data 0000000180033978 f   libucrt:mbctype.obj
 0001:00032a38       _setmbcp_nolock            0000000180033a38 f   libucrt:mbctype.obj
 0001:00032ce0       __acrt_initialize_command_line 0000000180033ce0 f   libucrt:argv_data.obj
 0001:00032d08       __dcrt_get_narrow_environment_from_os 0000000180033d08 f   libucrt:get_environment_from_os.obj
 0001:00032e0c       _recalloc                  0000000180033e0c f   libucrt:recalloc.obj
 0001:00032e14       _recalloc_base             0000000180033e14 f   libucrt:recalloc.obj
 0001:00032eac       __acrt_execute_initializers 0000000180033eac f   libucrt:shared_initialization.obj
 0001:00032f40       __acrt_execute_uninitializers 0000000180033f40 f   libucrt:shared_initialization.obj
 0001:00032f90       __acrt_has_user_matherr    0000000180033f90 f   libucrt:matherr.obj
 0001:00032fb0       __acrt_initialize_user_matherr 0000000180033fb0 f   libucrt:matherr.obj
 0001:00032fb8       __acrt_invoke_user_matherr 0000000180033fb8 f   libucrt:matherr.obj
 0001:00033000       wcsncpy_s                  0000000180034000 f   libucrt:wcsncpy_s.obj
 0001:000330e4       __acrt_add_locale_ref      00000001800340e4 f   libucrt:locale_refcounting.obj
 0001:00033170       __acrt_free_locale         0000000180034170 f   libucrt:locale_refcounting.obj
 0001:000332e8       __acrt_locale_add_lc_time_reference 00000001800342e8 f   libucrt:locale_refcounting.obj
 0001:00033310       __acrt_locale_free_lc_time_if_unreferenced 0000000180034310 f   libucrt:locale_refcounting.obj
 0001:00033348       __acrt_locale_release_lc_time_reference 0000000180034348 f   libucrt:locale_refcounting.obj
 0001:00033370       __acrt_release_locale_ref  0000000180034370 f   libucrt:locale_refcounting.obj
 0001:00033418       __acrt_update_thread_locale_data 0000000180034418 f   libucrt:locale_refcounting.obj
 0001:00033488       _updatetlocinfoEx_nolock   0000000180034488 f   libucrt:locale_refcounting.obj
 0001:000334f0       __acrt_fp_strflt_to_string 00000001800344f0 f   libucrt:_fptostr.obj
 0001:000335b0       __acrt_fltout              00000001800345b0 f   libucrt:cfout.obj
 0001:0003491c       _isatty                    000000018003591c f   libucrt:isatty.obj
 0001:0003497c       __acrt_locale_free_monetary 000000018003597c f   libucrt:initmon.obj
 0001:00034a88       __acrt_locale_initialize_monetary 0000000180035a88 f   libucrt:initmon.obj
 0001:00034fc0       __acrt_locale_free_numeric 0000000180035fc0 f   libucrt:initnum.obj
 0001:0003502c       __acrt_locale_initialize_numeric 000000018003602c f   libucrt:initnum.obj
 0001:000356b0       __acrt_locale_free_time    00000001800366b0 f   libucrt:inittime.obj
 0001:000357b8       __acrt_locale_initialize_time 00000001800367b8 f   libucrt:inittime.obj
 0001:0003584c       wcscspn                    000000018003684c f   libucrt:wcscspn.obj
 0001:0003588c       wcsncmp                    000000018003688c f   libucrt:wcsncmp.obj
 0001:000358b8       wcspbrk                    00000001800368b8 f   libucrt:wcspbrk.obj
 0001:0003615c       __acrt_get_qualified_locale 000000018003715c f   libucrt:get_qualified_locale.obj
 0001:00036b48       __acrt_get_qualified_locale_downlevel 0000000180037b48 f   libucrt:getqloc_downlevel.obj
 0001:00036dd8       __acrt_lowio_create_handle_array 0000000180037dd8 f   libucrt:osfinfo.obj
 0001:00036e70       __acrt_lowio_destroy_handle_array 0000000180037e70 f   libucrt:osfinfo.obj
 0001:00036ec0       __acrt_lowio_ensure_fh_exists 0000000180037ec0 f   libucrt:osfinfo.obj
 0001:00036f78       __acrt_lowio_lock_fh       0000000180037f78 f   libucrt:osfinfo.obj
 0001:00036f9c       __acrt_lowio_unlock_fh     0000000180037f9c f   libucrt:osfinfo.obj
 0001:00036fc0       _free_osfhnd               0000000180037fc0 f   libucrt:osfinfo.obj
 0001:0003707c       _get_osfhandle             000000018003807c f   libucrt:osfinfo.obj
 0001:00037110       _get_fpsr                  0000000180038110 f   libucrt:fpsr.obj
 0001:00037120       _set_fpsr                  0000000180038120 f   libucrt:fpsr.obj
 0001:0003712a       _fclrf                     000000018003812a f   libucrt:fpsr.obj
 0001:0003713e       _frnd                      000000018003813e f   libucrt:fpsr.obj
 0001:00037228       __acrt_DownlevelLCIDToLocaleName 0000000180038228 f   libucrt:lcidtoname_downlevel.obj
 0001:0003730c       __acrt_DownlevelLocaleNameToLCID 000000018003830c f   libucrt:lcidtoname_downlevel.obj
 0001:00037340       _putwch_nolock             0000000180038340 f   libucrt:putwch.obj
 0001:000378cc       _read                      00000001800388cc f   libucrt:read.obj
 0001:000379e4       _read_nolock               00000001800389e4 f   libucrt:read.obj
 0001:00037e4c       strncpy_s                  0000000180038e4c f   libucrt:strncpy_s.obj
 0001:00037f20       _getfpcontrolword          0000000180038f20 f   libucrt:_fenvutils.obj
 0001:00037f38       _getfpstatusword           0000000180038f38 f   libucrt:_fenvutils.obj
 0001:00037f4c       _setfpcontrolword          0000000180038f4c f   libucrt:_fenvutils.obj
 0001:00037f58       _setfpstatusword           0000000180038f58 f   libucrt:_fenvutils.obj
 0001:000380cc       _handle_error              00000001800390cc f   libucrt:libm_error.obj
 0001:000381f4       _handle_errorf             00000001800391f4 f   libucrt:libm_error.obj
 0001:00038328       _handle_nan                0000000180039328 f   libucrt:libm_error.obj
 0001:00038344       _handle_nanf               0000000180039344 f   libucrt:libm_error.obj
 0001:00038354       _towlower_l                0000000180039354 f   libucrt:towlower.obj
 0001:000384f0       qsort                      00000001800394f0 f   libucrt:qsort.obj
 0001:00038824       strpbrk                    0000000180039824 f   libucrt:strpbrk.obj
 0001:000388c4       _mbsdec                    00000001800398c4 f   libucrt:mbsdec.obj
 0001:000388cc       _mbsdec_l                  00000001800398cc f   libucrt:mbsdec.obj
 0001:0003897c       _msize                     000000018003997c f   libucrt:msize.obj
 0001:000389b8       fegetenv                   00000001800399b8 f   libucrt:fegetenv.obj
 0001:000389d8       fesetenv                   00000001800399d8 f   libucrt:fesetenv.obj
 0001:00038a24       feholdexcept               0000000180039a24 f   libucrt:feholdexcept.obj
 0001:00038a74       ceil                       0000000180039a74 f   libucrt:ceil.obj
 0001:00038b40       log10                      0000000180039b40 f   libucrt:log10.obj
 0001:000390ec       _wcsnicmp                  000000018003a0ec f   libucrt:wcsnicmp.obj
 0001:00039188       _wcsnicmp_l                000000018003a188 f   libucrt:wcsnicmp.obj
 0001:000392a0       wcscmp                     000000018003a2a0 f   libucrt:wcscmp.obj
 0001:000392d8       __dcrt_lowio_initialize_console_output 000000018003a2d8 f   libucrt:initcon.obj
 0001:00039314       __dcrt_terminate_console_output 000000018003a314 f   libucrt:initcon.obj
 0001:00039334       _clearfp                   000000018003a334 f   libucrt:ieee.obj
 0001:00039388       _controlfp                 000000018003a388 f   libucrt:ieee.obj
 0001:00039394       _statusfp                  000000018003a394 f   libucrt:ieee.obj
 0001:00039674       __acrt_LCMapStringW        000000018003a674 f   libucrt:lcmapstringw.obj
 0001:00039700       _log10_special             000000018003a700 f   libucrt:log_special.obj
 0001:000397b6       IsProcessorFeaturePresent  000000018003a7b6 f   kernel32:KERNEL32.dll
 0001:000397bc       RtlUnwindEx                000000018003a7bc f   kernel32:KERNEL32.dll
 0001:000397c4       ?DloadAcquireSectionWriteAccess@@YAXXZ 000000018003a7c4 f i DelayImp:delayhlp.obj
 0001:00039880       ?DloadGetSRWLockFunctionPointers@@YAEXZ 000000018003a880 f i DelayImp:delayhlp.obj
 0001:0003991c       ?DloadMakePermanentImageCommit@@YAXPEAX_K@Z 000000018003a91c f i DelayImp:delayhlp.obj
 0001:000399b4       ?DloadObtainSection@@YAPEAXPEAK0@Z 000000018003a9b4 f i DelayImp:delayhlp.obj
 0001:00039a4c       ?DloadProtectSection@@YAXKPEAK@Z 000000018003aa4c f i DelayImp:delayhlp.obj
 0001:00039adc       ?DloadReleaseSectionWriteAccess@@YAXXZ 000000018003aadc f i DelayImp:delayhlp.obj
 0001:00039b80       __delayLoadHelper2         000000018003ab80 f   DelayImp:delayhlp.obj
 0001:00039e80       _FindPESection             000000018003ae80 f   LIBCMT:pesect.obj
 0001:00039ed0       _IsNonwritableInCurrentImage 000000018003aed0 f   LIBCMT:pesect.obj
 0001:00039f20       _ValidateImageBase         000000018003af20 f   LIBCMT:pesect.obj
 0001:00039f50       strrchr                    000000018003af50 f   libvcruntime:strrchr.obj
 0001:0003a090       wcschr                     000000018003b090 f   libvcruntime:wcschr.obj
 0001:0003a124       ??0__non_rtti_object@std@@QEAA@AEBV01@@Z 000000018003b124 f i libvcruntime:rtti.obj
 0001:0003a164       ??0bad_typeid@std@@QEAA@AEBV01@@Z 000000018003b164 f i libvcruntime:rtti.obj
 0001:0003a638       ?__construct_from_string_literal@__non_rtti_object@std@@SA?AV12@QEBD@Z 000000018003b638 f i libvcruntime:rtti.obj
 0001:0003a650       ?__construct_from_string_literal@bad_cast@std@@SA?AV12@QEBD@Z 000000018003b650 f i libvcruntime:rtti.obj
 0001:0003a668       __RTDynamicCast            000000018003b668 f   libvcruntime:rtti.obj
 0001:0003a800       _guard_dispatch_icall_nop  000000018003b800 f   LIBCMT:_guard_dispatch_.obj
 0001:0003ad00       ??__F_Static@?1???$_Immortalize@V_Iostream_error_category@std@@@std@@YAAEAV_Iostream_error_category@0@XZ@YAXXZ 000000018003bd00 f i common.obj
 0002:00000000       __imp_SetUnhandledExceptionFilter 000000018003c000     kernel32:KERNEL32.dll
 0002:00000008       __imp_VirtualQuery         000000018003c008     kernel32:KERNEL32.dll
 0002:00000010       __imp_VirtualProtect       000000018003c010     kernel32:KERNEL32.dll
 0002:00000018       __imp_GetSystemInfo        000000018003c018     kernel32:KERNEL32.dll
 0002:00000020       __imp_CreateFileW          000000018003c020     kernel32:KERNEL32.dll
 0002:00000028       __imp_HeapSize             000000018003c028     kernel32:KERNEL32.dll
 0002:00000030       __imp_ReadConsoleW         000000018003c030     kernel32:KERNEL32.dll
 0002:00000038       __imp_SetStdHandle         000000018003c038     kernel32:KERNEL32.dll
 0002:00000040       __imp_FreeEnvironmentStringsW 000000018003c040     kernel32:KERNEL32.dll
 0002:00000048       __imp_GetEnvironmentStringsW 000000018003c048     kernel32:KERNEL32.dll
 0002:00000050       __imp_GetCommandLineW      000000018003c050     kernel32:KERNEL32.dll
 0002:00000058       __imp_GetCommandLineA      000000018003c058     kernel32:KERNEL32.dll
 0002:00000060       __imp_GetOEMCP             000000018003c060     kernel32:KERNEL32.dll
 0002:00000068       __imp_IsValidCodePage      000000018003c068     kernel32:KERNEL32.dll
 0002:00000070       __imp_FindNextFileA        000000018003c070     kernel32:KERNEL32.dll
 0002:00000078       __imp_FindFirstFileExA     000000018003c078     kernel32:KERNEL32.dll
 0002:00000080       __imp_FindClose            000000018003c080     kernel32:KERNEL32.dll
 0002:00000088       __imp_GetProcessHeap       000000018003c088     kernel32:KERNEL32.dll
 0002:00000090       __imp_SetFilePointerEx     000000018003c090     kernel32:KERNEL32.dll
 0002:00000098       __imp_ReadFile             000000018003c098     kernel32:KERNEL32.dll
 0002:000000a0       __imp_GetConsoleMode       000000018003c0a0     kernel32:KERNEL32.dll
 0002:000000a8       __imp_GetConsoleCP         000000018003c0a8     kernel32:KERNEL32.dll
 0002:000000b0       __imp_FlushFileBuffers     000000018003c0b0     kernel32:KERNEL32.dll
 0002:000000b8       __imp_EnumSystemLocalesW   000000018003c0b8     kernel32:KERNEL32.dll
 0002:000000c0       __imp_GetUserDefaultLCID   000000018003c0c0     kernel32:KERNEL32.dll
 0002:000000c8       __imp_IsValidLocale        000000018003c0c8     kernel32:KERNEL32.dll
 0002:000000d0       __imp_GetModuleHandleA     000000018003c0d0     kernel32:KERNEL32.dll
 0002:000000d8       __imp_WideCharToMultiByte  000000018003c0d8     kernel32:KERNEL32.dll
 0002:000000e0       __imp_EnterCriticalSection 000000018003c0e0     kernel32:KERNEL32.dll
 0002:000000e8       __imp_LeaveCriticalSection 000000018003c0e8     kernel32:KERNEL32.dll
 0002:000000f0       __imp_DeleteCriticalSection 000000018003c0f0     kernel32:KERNEL32.dll
 0002:000000f8       __imp_EncodePointer        000000018003c0f8     kernel32:KERNEL32.dll
 0002:00000100       __imp_DecodePointer        000000018003c100     kernel32:KERNEL32.dll
 0002:00000108       __imp_MultiByteToWideChar  000000018003c108     kernel32:KERNEL32.dll
 0002:00000110       __imp_SetLastError         000000018003c110     kernel32:KERNEL32.dll
 0002:00000118       __imp_InitializeCriticalSectionAndSpinCount 000000018003c118     kernel32:KERNEL32.dll
 0002:00000120       __imp_CreateEventW         000000018003c120     kernel32:KERNEL32.dll
 0002:00000128       __imp_Sleep                000000018003c128     kernel32:KERNEL32.dll
 0002:00000130       __imp_TlsAlloc             000000018003c130     kernel32:KERNEL32.dll
 0002:00000138       __imp_TlsGetValue          000000018003c138     kernel32:KERNEL32.dll
 0002:00000140       __imp_TlsSetValue          000000018003c140     kernel32:KERNEL32.dll
 0002:00000148       __imp_TlsFree              000000018003c148     kernel32:KERNEL32.dll
 0002:00000150       __imp_GetSystemTimeAsFileTime 000000018003c150     kernel32:KERNEL32.dll
 0002:00000158       __imp_GetModuleHandleW     000000018003c158     kernel32:KERNEL32.dll
 0002:00000160       __imp_GetProcAddress       000000018003c160     kernel32:KERNEL32.dll
 0002:00000168       __imp_LCMapStringW         000000018003c168     kernel32:KERNEL32.dll
 0002:00000170       __imp_GetLocaleInfoW       000000018003c170     kernel32:KERNEL32.dll
 0002:00000178       __imp_GetStringTypeW       000000018003c178     kernel32:KERNEL32.dll
 0002:00000180       __imp_GetCPInfo            000000018003c180     kernel32:KERNEL32.dll
 0002:00000188       __imp_CloseHandle          000000018003c188     kernel32:KERNEL32.dll
 0002:00000190       __imp_SetEvent             000000018003c190     kernel32:KERNEL32.dll
 0002:00000198       __imp_ResetEvent           000000018003c198     kernel32:KERNEL32.dll
 0002:000001a0       __imp_WaitForSingleObjectEx 000000018003c1a0     kernel32:KERNEL32.dll
 0002:000001a8       __imp_RtlCaptureContext    000000018003c1a8     kernel32:KERNEL32.dll
 0002:000001b0       __imp_RtlLookupFunctionEntry 000000018003c1b0     kernel32:KERNEL32.dll
 0002:000001b8       __imp_RtlVirtualUnwind     000000018003c1b8     kernel32:KERNEL32.dll
 0002:000001c0       __imp_UnhandledExceptionFilter 000000018003c1c0     kernel32:KERNEL32.dll
 0002:000001c8       __imp_LoadLibraryExA       000000018003c1c8     kernel32:KERNEL32.dll
 0002:000001d0       __imp_GetCurrentProcess    000000018003c1d0     kernel32:KERNEL32.dll
 0002:000001d8       __imp_TerminateProcess     000000018003c1d8     kernel32:KERNEL32.dll
 0002:000001e0       __imp_IsProcessorFeaturePresent 000000018003c1e0     kernel32:KERNEL32.dll
 0002:000001e8       __imp_IsDebuggerPresent    000000018003c1e8     kernel32:KERNEL32.dll
 0002:000001f0       __imp_GetStartupInfoW      000000018003c1f0     kernel32:KERNEL32.dll
 0002:000001f8       __imp_QueryPerformanceCounter 000000018003c1f8     kernel32:KERNEL32.dll
 0002:00000200       __imp_GetCurrentProcessId  000000018003c200     kernel32:KERNEL32.dll
 0002:00000208       __imp_GetCurrentThreadId   000000018003c208     kernel32:KERNEL32.dll
 0002:00000210       __imp_InitializeSListHead  000000018003c210     kernel32:KERNEL32.dll
 0002:00000218       __imp_RtlPcToFileHeader    000000018003c218     kernel32:KERNEL32.dll
 0002:00000220       __imp_RaiseException       000000018003c220     kernel32:KERNEL32.dll
 0002:00000228       __imp_RtlUnwindEx          000000018003c228     kernel32:KERNEL32.dll
 0002:00000230       __imp_GetLastError         000000018003c230     kernel32:KERNEL32.dll
 0002:00000238       __imp_FreeLibrary          000000018003c238     kernel32:KERNEL32.dll
 0002:00000240       __imp_LoadLibraryExW       000000018003c240     kernel32:KERNEL32.dll
 0002:00000248       __imp_InterlockedFlushSList 000000018003c248     kernel32:KERNEL32.dll
 0002:00000250       __imp_GetStdHandle         000000018003c250     kernel32:KERNEL32.dll
 0002:00000258       __imp_GetFileType          000000018003c258     kernel32:KERNEL32.dll
 0002:00000260       __imp_GetModuleFileNameA   000000018003c260     kernel32:KERNEL32.dll
 0002:00000268       __imp_GetModuleFileNameW   000000018003c268     kernel32:KERNEL32.dll
 0002:00000270       __imp_GetModuleHandleExW   000000018003c270     kernel32:KERNEL32.dll
 0002:00000278       __imp_WriteConsoleW        000000018003c278     kernel32:KERNEL32.dll
 0002:00000280       __imp_HeapAlloc            000000018003c280     kernel32:KERNEL32.dll
 0002:00000288       __imp_HeapReAlloc          000000018003c288     kernel32:KERNEL32.dll
 0002:00000290       __imp_HeapFree             000000018003c290     kernel32:KERNEL32.dll
 0002:00000298       __imp_ExitProcess          000000018003c298     kernel32:KERNEL32.dll
 0002:000002a0       __imp_WriteFile            000000018003c2a0     kernel32:KERNEL32.dll
 0002:000002a8       __imp_OutputDebugStringW   000000018003c2a8     kernel32:KERNEL32.dll
 0002:000002b0       __imp_CreateThread         000000018003c2b0     kernel32:KERNEL32.dll
 0002:000002b8       __imp_GetACP               000000018003c2b8     kernel32:KERNEL32.dll
 0002:000002c0       \177KERNEL32_NULL_THUNK_DATA 000000018003c2c0     kernel32:KERNEL32.dll
 0002:000002c8       __imp_?create@Producer@RdKafka@@SAPEAV12@PEAVConf@2@AEAV?$basic_string@DU?$char_traits@D@std@@V?$allocator@D@2@@std@@@Z 000000018003c2c8     librdkafkacpp:librdkafkacpp.dll
 0002:000002d0       __imp_?destroy@TopicPartition@RdKafka@@SAXAEAV?$vector@PEAVTopicPartition@RdKafka@@V?$allocator@PEAVTopicPartition@RdKafka@@@std@@@std@@@Z 000000018003c2d0     librdkafkacpp:librdkafkacpp.dll
 0002:000002d8       __imp_?create@KafkaConsumer@RdKafka@@SAPEAV12@PEAVConf@2@AEAV?$basic_string@DU?$char_traits@D@std@@V?$allocator@D@2@@std@@@Z 000000018003c2d8     librdkafkacpp:librdkafkacpp.dll
 0002:000002e0       __imp_?create@TopicPartition@RdKafka@@SAPEAV12@AEBV?$basic_string@DU?$char_traits@D@std@@V?$allocator@D@2@@std@@H@Z 000000018003c2e0     librdkafkacpp:librdkafkacpp.dll
 0002:000002e8       __imp_?create@Topic@RdKafka@@SAPEAV12@PEAVHandle@2@AEBV?$basic_string@DU?$char_traits@D@std@@V?$allocator@D@2@@std@@PEAVConf@2@AEAV45@@Z 000000018003c2e8     librdkafkacpp:librdkafkacpp.dll
 0002:000002f0       __imp_?create@TopicPartition@RdKafka@@SAPEAV12@AEBV?$basic_string@DU?$char_traits@D@std@@V?$allocator@D@2@@std@@H_J@Z 000000018003c2f0     librdkafkacpp:librdkafkacpp.dll
 0002:000002f8       __imp_??_7EventCb@RdKafka@@6B@ 000000018003c2f8     librdkafkacpp:librdkafkacpp.dll
 0002:00000300       __imp_??_7DeliveryReportCb@RdKafka@@6B@ 000000018003c300     librdkafkacpp:librdkafkacpp.dll
 0002:00000308       __imp_??_7OffsetCommitCb@RdKafka@@6B@ 000000018003c308     librdkafkacpp:librdkafkacpp.dll
 0002:00000310       __imp_??_7RebalanceCb@RdKafka@@6B@ 000000018003c310     librdkafkacpp:librdkafkacpp.dll
 0002:00000318       __imp_??_7PartitionerCb@RdKafka@@6B@ 000000018003c318     librdkafkacpp:librdkafkacpp.dll
 0002:00000320       __imp_?wait_destroyed@RdKafka@@YAHH@Z 000000018003c320     librdkafkacpp:librdkafkacpp.dll
 0002:00000328       __imp_?err2str@RdKafka@@YA?AV?$basic_string@DU?$char_traits@D@std@@V?$allocator@D@2@@std@@W4ErrorCode@1@@Z 000000018003c328     librdkafkacpp:librdkafkacpp.dll
 0002:00000330       __imp_?OFFSET_BEGINNING@Topic@RdKafka@@2_JB 000000018003c330     librdkafkacpp:librdkafkacpp.dll
 0002:00000338       __imp_?PARTITION_UA@Topic@RdKafka@@2HB 000000018003c338     librdkafkacpp:librdkafkacpp.dll
 0002:00000340       __imp_?OFFSET_INVALID@Topic@RdKafka@@2_JB 000000018003c340     librdkafkacpp:librdkafkacpp.dll
 0002:00000348       __imp_?OFFSET_STORED@Topic@RdKafka@@2_JB 000000018003c348     librdkafkacpp:librdkafkacpp.dll
 0002:00000350       __imp_?OFFSET_END@Topic@RdKafka@@2_JB 000000018003c350     librdkafkacpp:librdkafkacpp.dll
 0002:00000358       __imp_?create@Conf@RdKafka@@SAPEAV12@W4ConfType@12@@Z 000000018003c358     librdkafkacpp:librdkafkacpp.dll
 0002:00000360       __imp_?version_str@RdKafka@@YA?AV?$basic_string@DU?$char_traits@D@std@@V?$allocator@D@2@@std@@XZ 000000018003c360     librdkafkacpp:librdkafkacpp.dll
 0002:00000368       \177librdkafkacpp_NULL_THUNK_DATA 000000018003c368     librdkafkacpp:librdkafkacpp.dll
 0002:00000370       __guard_check_icall_fptr   000000018003c370     LIBCMT:guard_support.obj
 0002:00000378       __guard_dispatch_icall_fptr 000000018003c378     LIBCMT:guard_support.obj
 0002:00000380       __xc_a                     000000018003c380     LIBCMT:initializers.obj
 0002:00000408       _register_kafka_           000000018003c408     binding.obj
 0002:00000410       __xc_z                     000000018003c410     LIBCMT:initializers.obj
 0002:00000418       __xi_a                     000000018003c418     LIBCMT:initializers.obj
 0002:00000430       __acrt_stdio_initializer   000000018003c430     libucrt:stdio_initializer.obj
 0002:00000438       __acrt_tran_fma3_initializer 000000018003c438     libucrt:fma3_initializer.obj
 0002:00000440       __acrt_timeset_initializer 000000018003c440     libucrt:timeset_initializer.obj
 0002:00000448       __acrt_multibyte_initializer 000000018003c448     libucrt:multibyte_initializer.obj
 0002:00000450       __xi_z                     000000018003c450     LIBCMT:initializers.obj
 0002:00000458       __xl_a                     000000018003c458     LIBCMT:tlssup.obj
 0002:00000460       __xl_z                     000000018003c460     LIBCMT:tlssup.obj
 0002:00000468       __xp_a                     000000018003c468     LIBCMT:initializers.obj
 0002:00000470       __acrt_locale_terminator   000000018003c470     libucrt:locale_initializer.obj
 0002:00000478       __dcrt_console_output_terminator 000000018003c478     libucrt:console_output_initializer.obj
 0002:00000480       __acrt_stdio_terminator    000000018003c480     libucrt:stdio_initializer.obj
 0002:00000488       __xp_z                     000000018003c488     LIBCMT:initializers.obj
 0002:00000490       __xt_a                     000000018003c490     LIBCMT:initializers.obj
 0002:00000498       __xt_z                     000000018003c498     LIBCMT:initializers.obj
 0002:000004a0       __sz_node_exe              000000018003c4a0     node:node.exe
 0002:000004b8       ??_7exception@std@@6B@     000000018003c4b8     libcpmt:xthrow.obj
 0002:000004c8       ??_C@_0BC@EOODALEL@Unknown?5exception?$AA@ 000000018003c4c8     libcpmt:xthrow.obj
 0002:000004e8       ??_7bad_alloc@std@@6B@     000000018003c4e8     libcpmt:xthrow.obj
 0002:000004f8       ??_C@_0P@GHFPNOJB@bad?5allocation?$AA@ 000000018003c4f8     libcpmt:xthrow.obj
 0002:00000510       ??_7logic_error@std@@6B@   000000018003c510     libcpmt:xthrow.obj
 0002:00000528       ??_7length_error@std@@6B@  000000018003c528     libcpmt:xthrow.obj
 0002:00000540       ??_7out_of_range@std@@6B@  000000018003c540     libcpmt:xthrow.obj
 0002:00000620       ??_7_Facet_base@std@@6B@   000000018003c620     libcpmt:locale0.obj
 0002:00000640       ??_7_Locimp@locale@std@@6B@ 000000018003c640     libcpmt:locale0.obj
 0002:00000658       ??_C@_01NBENCBCI@?$CK?$AA@ 000000018003c658     libcpmt:locale0.obj
 0002:0000065c       ??_C@_01GFHCPBMG@C?$AA@    000000018003c65c     libcpmt:locale0.obj
 0002:000008c0       ??_7bad_cast@std@@6B@      000000018003c8c0     libcpmt:cerr.obj
 0002:000008d0       ??_C@_08EPJLHIJG@bad?5cast?$AA@ 000000018003c8d0     libcpmt:cerr.obj
 0002:000008e8       ??_7?$ctype@D@std@@6B@     000000018003c8e8     libcpmt:cerr.obj
 0002:00000948       ??_7error_category@std@@6B@ 000000018003c948     libcpmt:cerr.obj
 0002:00000980       ??_7_Iostream_error_category@std@@6B@ 000000018003c980     libcpmt:cerr.obj
 0002:000009b8       ??_7ios_base@std@@6B@      000000018003c9b8     libcpmt:cerr.obj
 0002:000009c8       ??_7?$basic_streambuf@DU?$char_traits@D@std@@@std@@6B@ 000000018003c9c8     libcpmt:cerr.obj
 0002:00000a48       ??_7?$basic_filebuf@DU?$char_traits@D@std@@@std@@6B@ 000000018003ca48     libcpmt:cerr.obj
 0002:00000ac8       ??_7?$basic_ios@DU?$char_traits@D@std@@@std@@6B@ 000000018003cac8     libcpmt:cerr.obj
 0002:00000ad8       ??_7?$basic_ostream@DU?$char_traits@D@std@@@std@@6B@ 000000018003cad8     libcpmt:cerr.obj
 0002:00000ae0       ??_8?$basic_ostream@DU?$char_traits@D@std@@@std@@7B@ 000000018003cae0     libcpmt:cerr.obj
 0002:00000af0       ??_7?$codecvt@DDU_Mbstatet@@@std@@6B@ 000000018003caf0     libcpmt:cerr.obj
 0002:00001270       ??_C@_0BN@LKKBCCDB@address?5family?5not?5supported?$AA@ 000000018003d270     libcpmt:syserror.obj
 0002:00001290       ??_C@_0P@LDMLAFHI@address?5in?5use?$AA@ 000000018003d290     libcpmt:syserror.obj
 0002:000012a0       ??_C@_0BG@DHPCNBJB@address?5not?5available?$AA@ 000000018003d2a0     libcpmt:syserror.obj
 0002:000012b8       ??_C@_0BC@DFIBIBIL@already?5connected?$AA@ 000000018003d2b8     libcpmt:syserror.obj
 0002:000012d0       ??_C@_0BH@CAKOHOMI@argument?5list?5too?5long?$AA@ 000000018003d2d0     libcpmt:syserror.obj
 0002:000012e8       ??_C@_0BH@CGIMPKIM@argument?5out?5of?5domain?$AA@ 000000018003d2e8     libcpmt:syserror.obj
 0002:00001300       ??_C@_0M@KGHGGJGL@bad?5address?$AA@ 000000018003d300     libcpmt:syserror.obj
 0002:00001310       ??_C@_0BE@MPJPGCEO@bad?5file?5descriptor?$AA@ 000000018003d310     libcpmt:syserror.obj
 0002:00001328       ??_C@_0M@PMMIEFCP@bad?5message?$AA@ 000000018003d328     libcpmt:syserror.obj
 0002:00001338       ??_C@_0M@KPHOFDBE@broken?5pipe?$AA@ 000000018003d338     libcpmt:syserror.obj
 0002:00001348       ??_C@_0BD@MGNDDEGM@connection?5aborted?$AA@ 000000018003d348     libcpmt:syserror.obj
 0002:00001360       ??_C@_0BP@KAIHPOGN@connection?5already?5in?5progress?$AA@ 000000018003d360     libcpmt:syserror.obj
 0002:00001380       ??_C@_0BD@PJLIIJEL@connection?5refused?$AA@ 000000018003d380     libcpmt:syserror.obj
 0002:00001398       ??_C@_0BB@IECNJNOI@connection?5reset?$AA@ 000000018003d398     libcpmt:syserror.obj
 0002:000013b0       ??_C@_0BC@PPHBOELF@cross?5device?5link?$AA@ 000000018003d3b0     libcpmt:syserror.obj
 0002:000013c8       ??_C@_0BN@KDMIFEIP@destination?5address?5required?$AA@ 000000018003d3c8     libcpmt:syserror.obj
 0002:000013e8       ??_C@_0BI@NGCEHDD@device?5or?5resource?5busy?$AA@ 000000018003d3e8     libcpmt:syserror.obj
 0002:00001400       ??_C@_0BE@JIDOCPHM@directory?5not?5empty?$AA@ 000000018003d400     libcpmt:syserror.obj
 0002:00001418       ??_C@_0BI@BNCLIGPB@executable?5format?5error?$AA@ 000000018003d418     libcpmt:syserror.obj
 0002:00001430       ??_C@_0M@MIDIAGJP@file?5exists?$AA@ 000000018003d430     libcpmt:syserror.obj
 0002:00001440       ??_C@_0P@DNAJLBJK@file?5too?5large?$AA@ 000000018003d440     libcpmt:syserror.obj
 0002:00001450       ??_C@_0BC@EJHOMAAK@filename?5too?5long?$AA@ 000000018003d450     libcpmt:syserror.obj
 0002:00001468       ??_C@_0BH@KEFGLDAF@function?5not?5supported?$AA@ 000000018003d468     libcpmt:syserror.obj
 0002:00001480       ??_C@_0BB@DHFDFGDM@host?5unreachable?$AA@ 000000018003d480     libcpmt:syserror.obj
 0002:00001498       ??_C@_0BD@JPHBMONG@identifier?5removed?$AA@ 000000018003d498     libcpmt:syserror.obj
 0002:000014b0       ??_C@_0BG@CDNPAGJK@illegal?5byte?5sequence?$AA@ 000000018003d4b0     libcpmt:syserror.obj
 0002:000014c8       ??_C@_0CD@BNPLBMNA@inappropriate?5io?5control?5operati@ 000000018003d4c8     libcpmt:syserror.obj
 0002:000014f0       ??_C@_0M@EGEKIIMP@interrupted?$AA@ 000000018003d4f0     libcpmt:syserror.obj
 0002:00001500       ??_C@_0BB@FCMFBGOM@invalid?5argument?$AA@ 000000018003d500     libcpmt:syserror.obj
 0002:00001518       ??_C@_0N@OHAFKDEK@invalid?5seek?$AA@ 000000018003d518     libcpmt:syserror.obj
 0002:00001528       ??_C@_08GLNPIFBN@io?5error?$AA@ 000000018003d528     libcpmt:syserror.obj
 0002:00001538       ??_C@_0P@FLLDBIDK@is?5a?5directory?$AA@ 000000018003d538     libcpmt:syserror.obj
 0002:00001548       ??_C@_0N@IFLPBIOP@message?5size?$AA@ 000000018003d548     libcpmt:syserror.obj
 0002:00001558       ??_C@_0N@KIIEAAIO@network?5down?$AA@ 000000018003d558     libcpmt:syserror.obj
 0002:00001568       ??_C@_0O@FNPDBHEE@network?5reset?$AA@ 000000018003d568     libcpmt:syserror.obj
 0002:00001578       ??_C@_0BE@IFNCKGE@network?5unreachable?$AA@ 000000018003d578     libcpmt:syserror.obj
 0002:00001590       ??_C@_0BA@PFFCAOFK@no?5buffer?5space?$AA@ 000000018003d590     libcpmt:syserror.obj
 0002:000015a0       ??_C@_0BB@IEPBLJHK@no?5child?5process?$AA@ 000000018003d5a0     libcpmt:syserror.obj
 0002:000015b8       ??_C@_07PLECNNKG@no?5link?$AA@ 000000018003d5b8     libcpmt:syserror.obj
 0002:000015c0       ??_C@_0BC@NJECKMKE@no?5lock?5available?$AA@ 000000018003d5c0     libcpmt:syserror.obj
 0002:000015d8       ??_C@_0BF@PBGGPKKE@no?5message?5available?$AA@ 000000018003d5d8     libcpmt:syserror.obj
 0002:000015f0       ??_C@_0L@EDOLMPAK@no?5message?$AA@ 000000018003d5f0     libcpmt:syserror.obj
 0002:00001600       ??_C@_0BD@EAMBFIDF@no?5protocol?5option?$AA@ 000000018003d600     libcpmt:syserror.obj
 0002:00001618       ??_C@_0BD@IJDJKDEA@no?5space?5on?5device?$AA@ 000000018003d618     libcpmt:syserror.obj
 0002:00001630       ??_C@_0BE@MKFDAFMP@no?5stream?5resources?$AA@ 000000018003d630     libcpmt:syserror.obj
 0002:00001648       ??_C@_0BK@IMCPHCBI@no?5such?5device?5or?5address?$AA@ 000000018003d648     libcpmt:syserror.obj
 0002:00001668       ??_C@_0P@FDINDDOK@no?5such?5device?$AA@ 000000018003d668     libcpmt:syserror.obj
 0002:00001678       ??_C@_0BK@NDOCBPGE@no?5such?5file?5or?5directory?$AA@ 000000018003d678     libcpmt:syserror.obj
 0002:00001698       ??_C@_0BA@ENLPPKBN@no?5such?5process?$AA@ 000000018003d698     libcpmt:syserror.obj
 0002:000016a8       ??_C@_0BA@DOCPFFJG@not?5a?5directory?$AA@ 000000018003d6a8     libcpmt:syserror.obj
 0002:000016b8       ??_C@_0N@POEIPGGF@not?5a?5socket?$AA@ 000000018003d6b8     libcpmt:syserror.obj
 0002:000016c8       ??_C@_0N@LGAPMMPI@not?5a?5stream?$AA@ 000000018003d6c8     libcpmt:syserror.obj
 0002:000016d8       ??_C@_0O@GLMIBBEG@not?5connected?$AA@ 000000018003d6d8     libcpmt:syserror.obj
 0002:000016e8       ??_C@_0BC@ENOOLCNF@not?5enough?5memory?$AA@ 000000018003d6e8     libcpmt:syserror.obj
 0002:00001700       ??_C@_0O@NHEDABJP@not?5supported?$AA@ 000000018003d700     libcpmt:syserror.obj
 0002:00001710       ??_C@_0BD@MOLBPMEA@operation?5canceled?$AA@ 000000018003d710     libcpmt:syserror.obj
 0002:00001728       ??_C@_0BG@KDKHOPCO@operation?5in?5progress?$AA@ 000000018003d728     libcpmt:syserror.obj
 0002:00001740       ??_C@_0BI@OHIEJAAB@operation?5not?5permitted?$AA@ 000000018003d740     libcpmt:syserror.obj
 0002:00001758       ??_C@_0BI@LNEGIFLN@operation?5not?5supported?$AA@ 000000018003d758     libcpmt:syserror.obj
 0002:00001770       ??_C@_0BG@OEMDKMEE@operation?5would?5block?$AA@ 000000018003d770     libcpmt:syserror.obj
 0002:00001788       ??_C@_0L@BLPOFLNJ@owner?5dead?$AA@ 000000018003d788     libcpmt:syserror.obj
 0002:00001798       ??_C@_0BC@CIJDGCDI@permission?5denied?$AA@ 000000018003d798     libcpmt:syserror.obj
 0002:000017b0       ??_C@_0P@FNPOCJBE@protocol?5error?$AA@ 000000018003d7b0     libcpmt:syserror.obj
 0002:000017c0       ??_C@_0BH@JPPPLHJB@protocol?5not?5supported?$AA@ 000000018003d7c0     libcpmt:syserror.obj
 0002:000017d8       ??_C@_0BG@EICBIHDP@read?5only?5file?5system?$AA@ 000000018003d7d8     libcpmt:syserror.obj
 0002:000017f0       ??_C@_0BO@BJBOMOEJ@resource?5deadlock?5would?5occur?$AA@ 000000018003d7f0     libcpmt:syserror.obj
 0002:00001810       ??_C@_0BP@LKNGHENJ@resource?5unavailable?5try?5again?$AA@ 000000018003d810     libcpmt:syserror.obj
 0002:00001830       ??_C@_0BE@GOIPJJHG@result?5out?5of?5range?$AA@ 000000018003d830     libcpmt:syserror.obj
 0002:00001848       ??_C@_0BG@MPLKFPAE@state?5not?5recoverable?$AA@ 000000018003d848     libcpmt:syserror.obj
 0002:00001860       ??_C@_0P@DIIFGFCG@stream?5timeout?$AA@ 000000018003d860     libcpmt:syserror.obj
 0002:00001870       ??_C@_0P@IPFDMIFL@text?5file?5busy?$AA@ 000000018003d870     libcpmt:syserror.obj
 0002:00001880       ??_C@_09KJPPMAOI@timed?5out?$AA@ 000000018003d880     libcpmt:syserror.obj
 0002:00001890       ??_C@_0BO@HACHBEKI@too?5many?5files?5open?5in?5system?$AA@ 000000018003d890     libcpmt:syserror.obj
 0002:000018b0       ??_C@_0BE@GHAFMPAH@too?5many?5files?5open?$AA@ 000000018003d8b0     libcpmt:syserror.obj
 0002:000018c8       ??_C@_0P@HCOMKFCC@too?5many?5links?$AA@ 000000018003d8c8     libcpmt:syserror.obj
 0002:000018d8       ??_C@_0BO@EFGOJEF@too?5many?5symbolic?5link?5levels?$AA@ 000000018003d8d8     libcpmt:syserror.obj
 0002:000018f8       ??_C@_0BA@KGKGOOJA@value?5too?5large?$AA@ 000000018003d8f8     libcpmt:syserror.obj
 0002:00001908       ??_C@_0BE@MIEJDDNH@wrong?5protocol?5type?$AA@ 000000018003d908     libcpmt:syserror.obj
 0002:00001920       ??_C@_0O@BFJCFAAK@unknown?5error?$AA@ 000000018003d920     libcpmt:syserror.obj
 0002:00001980       ?_BADOFF@std@@3_JB         000000018003d980     libcpmt:ios.obj
 0002:00001988       ??_C@_1BK@MGMFAEKH@?$AAk?$AAe?$AAr?$AAn?$AAe?$AAl?$AA3?$AA2?$AA?4?$AAd?$AAl?$AAl?$AA?$AA@ 000000018003d988     libcpmt:winapisupp.obj
 0002:000019a8       ??_C@_08KNHFBNJ@FlsAlloc?$AA@ 000000018003d9a8     libcpmt:winapisupp.obj
 0002:000019b8       ??_C@_07PEJMOBNF@FlsFree?$AA@ 000000018003d9b8     libcpmt:winapisupp.obj
 0002:000019c0       ??_C@_0M@GDNOONDI@FlsGetValue?$AA@ 000000018003d9c0     libcpmt:winapisupp.obj
 0002:000019d0       ??_C@_0M@JCPCPOEF@FlsSetValue?$AA@ 000000018003d9d0     libcpmt:winapisupp.obj
 0002:000019e0       ??_C@_0BM@HCFOFFN@InitializeCriticalSectionEx?$AA@ 000000018003d9e0     libcpmt:winapisupp.obj
 0002:00001a00       ??_C@_0BE@GPLMMCMH@InitOnceExecuteOnce?$AA@ 000000018003da00     libcpmt:winapisupp.obj
 0002:00001a18       ??_C@_0P@DLHPPCNH@CreateEventExW?$AA@ 000000018003da18     libcpmt:winapisupp.obj
 0002:00001a28       ??_C@_0BB@MEFPJLHN@CreateSemaphoreW?$AA@ 000000018003da28     libcpmt:winapisupp.obj
 0002:00001a40       ??_C@_0BD@KIEEOEEH@CreateSemaphoreExW?$AA@ 000000018003da40     libcpmt:winapisupp.obj
 0002:00001a58       ??_C@_0BG@OGFAJCKC@CreateThreadpoolTimer?$AA@ 000000018003da58     libcpmt:winapisupp.obj
 0002:00001a70       ??_C@_0BD@LPLEMMDI@SetThreadpoolTimer?$AA@ 000000018003da70     libcpmt:winapisupp.obj
 0002:00001a88       ??_C@_0CA@FMNJENH@WaitForThreadpoolTimerCallbacks?$AA@ 000000018003da88     libcpmt:winapisupp.obj
 0002:00001aa8       ??_C@_0BF@DCFCCNOC@CloseThreadpoolTimer?$AA@ 000000018003daa8     libcpmt:winapisupp.obj
 0002:00001ac0       ??_C@_0BF@FLABGKKM@CreateThreadpoolWait?$AA@ 000000018003dac0     libcpmt:winapisupp.obj
 0002:00001ad8       ??_C@_0BC@MGCOHNA@SetThreadpoolWait?$AA@ 000000018003dad8     libcpmt:winapisupp.obj
 0002:00001af0       ??_C@_0BE@OCIOMIMP@CloseThreadpoolWait?$AA@ 000000018003daf0     libcpmt:winapisupp.obj
 0002:00001b08       ??_C@_0BJ@LKGHFHBO@FlushProcessWriteBuffers?$AA@ 000000018003db08     libcpmt:winapisupp.obj
 0002:00001b28       ??_C@_0BP@KALKKPMO@FreeLibraryWhenCallbackReturns?$AA@ 000000018003db28     libcpmt:winapisupp.obj
 0002:00001b48       ??_C@_0BK@DFNBACLA@GetCurrentProcessorNumber?$AA@ 000000018003db48     libcpmt:winapisupp.obj
 0002:00001b68       ??_C@_0BE@FKKLLFLM@CreateSymbolicLinkW?$AA@ 000000018003db68     libcpmt:winapisupp.obj
 0002:00001b80       ??_C@_0BE@JOGNEJCI@GetCurrentPackageId?$AA@ 000000018003db80     libcpmt:winapisupp.obj
 0002:00001b98       ??_C@_0P@CDHHOHKP@GetTickCount64?$AA@ 000000018003db98     libcpmt:winapisupp.obj
 0002:00001ba8       ??_C@_0BN@NEEHBBPO@GetFileInformationByHandleEx?$AA@ 000000018003dba8     libcpmt:winapisupp.obj
 0002:00001bc8       ??_C@_0BL@KBBHGKCM@SetFileInformationByHandle?$AA@ 000000018003dbc8     libcpmt:winapisupp.obj
 0002:00001be8       ??_C@_0BP@FPNJPEJC@GetSystemTimePreciseAsFileTime?$AA@ 000000018003dbe8     libcpmt:winapisupp.obj
 0002:00001c08       ??_C@_0BM@HLJJNPAH@InitializeConditionVariable?$AA@ 000000018003dc08     libcpmt:winapisupp.obj
 0002:00001c28       ??_C@_0BG@BFNILBLN@WakeConditionVariable?$AA@ 000000018003dc28     libcpmt:winapisupp.obj
 0002:00001c40       ??_C@_0BJ@PGPPEPCC@WakeAllConditionVariable?$AA@ 000000018003dc40     libcpmt:winapisupp.obj
 0002:00001c60       ??_C@_0BJ@JEBJOJFJ@SleepConditionVariableCS?$AA@ 000000018003dc60     libcpmt:winapisupp.obj
 0002:00001c80       ??_C@_0BC@MMLHEBPB@InitializeSRWLock?$AA@ 000000018003dc80     libcpmt:winapisupp.obj
 0002:00001c98       ??_C@_0BI@OMNLIJDB@AcquireSRWLockExclusive?$AA@ 000000018003dc98     libcpmt:winapisupp.obj
 0002:00001cb0       ??_C@_0BL@OGHFEMNA@TryAcquireSRWLockExclusive?$AA@ 000000018003dcb0     libcpmt:winapisupp.obj
 0002:00001cd0       ??_C@_0BI@HMIEPCNJ@ReleaseSRWLockExclusive?$AA@ 000000018003dcd0     libcpmt:winapisupp.obj
 0002:00001ce8       ??_C@_0BK@LGACAGIC@SleepConditionVariableSRW?$AA@ 000000018003dce8     libcpmt:winapisupp.obj
 0002:00001d08       ??_C@_0BF@GGPHFPJA@CreateThreadpoolWork?$AA@ 000000018003dd08     libcpmt:winapisupp.obj
 0002:00001d20       ??_C@_0BF@NHDAIMMO@SubmitThreadpoolWork?$AA@ 000000018003dd20     libcpmt:winapisupp.obj
 0002:00001d38       ??_C@_0BE@NPHIPNPD@CloseThreadpoolWork?$AA@ 000000018003dd38     libcpmt:winapisupp.obj
 0002:00001d50       ??_C@_0BA@IHGNDAEB@CompareStringEx?$AA@ 000000018003dd50     libcpmt:winapisupp.obj
 0002:00001d60       ??_C@_0BA@ONOKGCMP@GetLocaleInfoEx?$AA@ 000000018003dd60     libcpmt:winapisupp.obj
 0002:00001d70       ??_C@_0O@KKBNKAPF@LCMapStringEx?$AA@ 000000018003dd70     libcpmt:winapisupp.obj
 0002:00001d80       ??_C@_11LOCGONAA@?$AA?$AA@ 000000018003dd80     libcpmt:wlocale.obj
 0002:00001d84       ??_C@_01JOAMLHOP@?9?$AA@   000000018003dd84     libcpmt:wlocale.obj
 0002:00001e28       ??_C@_1M@JKFFICHJ@?$AAe?$AAs?$AA?9?$AAv?$AAe?$AA?$AA@ 000000018003de28     libcpmt:winapinls.obj
 0002:00001e38       ??_C@_1M@PNMLOJDF@?$AAe?$AAt?$AA?9?$AAe?$AAe?$AA?$AA@ 000000018003de38     libcpmt:winapinls.obj
 0002:00001e48       ??_C@_1M@GHHLIKEI@?$AAe?$AAu?$AA?9?$AAe?$AAs?$AA?$AA@ 000000018003de48     libcpmt:winapinls.obj
 0002:00001e58       ??_C@_1M@PBNONODE@?$AAf?$AAa?$AA?9?$AAi?$AAr?$AA?$AA@ 000000018003de58     libcpmt:winapinls.obj
 0002:00001e68       ??_C@_1M@JEEHPMIL@?$AAf?$AAi?$AA?9?$AAf?$AAi?$AA?$AA@ 000000018003de68     libcpmt:winapinls.obj
 0002:00001e78       ??_C@_1M@LMDCNDBA@?$AAf?$AAo?$AA?9?$AAf?$AAo?$AA?$AA@ 000000018003de78     libcpmt:winapinls.obj
 0002:00001e88       ??_C@_1M@JKEOHLDK@?$AAf?$AAr?$AA?9?$AAb?$AAe?$AA?$AA@ 000000018003de88     libcpmt:winapinls.obj
 0002:00001e98       ??_C@_1M@NOHADPMI@?$AAf?$AAr?$AA?9?$AAc?$AAa?$AA?$AA@ 000000018003de98     libcpmt:winapinls.obj
 0002:00001ea8       ??_C@_1M@KDHIHAEC@?$AAf?$AAr?$AA?9?$AAc?$AAh?$AA?$AA@ 000000018003dea8     libcpmt:winapinls.obj
 0002:00001eb8       ??_C@_1M@MMBBFGAK@?$AAf?$AAr?$AA?9?$AAf?$AAr?$AA?$AA@ 000000018003deb8     libcpmt:winapinls.obj
 0002:00001ec8       ??_C@_1M@PAFNENNF@?$AAf?$AAr?$AA?9?$AAl?$AAu?$AA?$AA@ 000000018003dec8     libcpmt:winapinls.obj
 0002:00001ed8       ??_C@_1M@EOHDJGDD@?$AAf?$AAr?$AA?9?$AAm?$AAc?$AA?$AA@ 000000018003ded8     libcpmt:winapinls.obj
 0002:00001ee8       ??_C@_1M@FAPLLOPF@?$AAg?$AAl?$AA?9?$AAe?$AAs?$AA?$AA@ 000000018003dee8     libcpmt:winapinls.obj
 0002:00001ef8       ??_C@_1M@FOPBFLOO@?$AAg?$AAu?$AA?9?$AAi?$AAn?$AA?$AA@ 000000018003def8     libcpmt:winapinls.obj
 0002:00001f08       ??_C@_1M@KBMCINPM@?$AAh?$AAe?$AA?9?$AAi?$AAl?$AA?$AA@ 000000018003df08     libcpmt:winapinls.obj
 0002:00001f18       ??_C@_1M@BBPHKFPJ@?$AAh?$AAi?$AA?9?$AAi?$AAn?$AA?$AA@ 000000018003df18     libcpmt:winapinls.obj
 0002:00001f28       ??_C@_1M@PMBNDPHD@?$AAh?$AAr?$AA?9?$AAb?$AAa?$AA?$AA@ 000000018003df28     libcpmt:winapinls.obj
 0002:00001f38       ??_C@_1M@BPCKOEGE@?$AAh?$AAr?$AA?9?$AAh?$AAr?$AA?$AA@ 000000018003df38     libcpmt:winapinls.obj
 0002:00001f48       ??_C@_1M@GACBMHKE@?$AAh?$AAu?$AA?9?$AAh?$AAu?$AA?$AA@ 000000018003df48     libcpmt:winapinls.obj
 0002:00001f58       ??_C@_1M@MILPAJJC@?$AAh?$AAy?$AA?9?$AAa?$AAm?$AA?$AA@ 000000018003df58     libcpmt:winapinls.obj
 0002:00001f68       ??_C@_1M@BABBICEC@?$AAi?$AAd?$AA?9?$AAi?$AAd?$AA?$AA@ 000000018003df68     libcpmt:winapinls.obj
 0002:00001f78       ??_C@_1M@BIKNHHPF@?$AAi?$AAs?$AA?9?$AAi?$AAs?$AA?$AA@ 000000018003df78     libcpmt:winapinls.obj
 0002:00001f88       ??_C@_1M@NMPCJPHE@?$AAi?$AAt?$AA?9?$AAc?$AAh?$AA?$AA@ 000000018003df88     libcpmt:winapinls.obj
 0002:00001f98       ??_C@_1M@GHKGFEDF@?$AAi?$AAt?$AA?9?$AAi?$AAt?$AA?$AA@ 000000018003df98     libcpmt:winapinls.obj
 0002:00001fa8       ??_C@_1M@NIEJCJJA@?$AAj?$AAa?$AA?9?$AAj?$AAp?$AA?$AA@ 000000018003dfa8     libcpmt:winapinls.obj
 0002:00001fb8       ??_C@_1M@JILFNBIM@?$AAk?$AAa?$AA?9?$AAg?$AAe?$AA?$AA@ 000000018003dfb8     libcpmt:winapinls.obj
 0002:00001fc8       ??_C@_1M@PACPMGPH@?$AAk?$AAk?$AA?9?$AAk?$AAz?$AA?$AA@ 000000018003dfc8     libcpmt:winapinls.obj
 0002:00001fd8       ??_C@_1M@IELFGMHA@?$AAk?$AAn?$AA?9?$AAi?$AAn?$AA?$AA@ 000000018003dfd8     libcpmt:winapinls.obj
 0002:00001fe8       ??_C@_1M@DMHAEOGC@?$AAk?$AAo?$AA?9?$AAk?$AAr?$AA?$AA@ 000000018003dfe8     libcpmt:winapinls.obj
 0002:00001ff8       ??_C@_1O@IBBJHCH@?$AAk?$AAo?$AAk?$AA?9?$AAi?$AAn?$AA?$AA@ 000000018003dff8     libcpmt:winapinls.obj
 0002:00002008       ??_C@_1M@HBAHBIGA@?$AAk?$AAy?$AA?9?$AAk?$AAg?$AA?$AA@ 000000018003e008     libcpmt:winapinls.obj
 0002:00002018       ??_C@_1M@KPMILCJG@?$AAl?$AAt?$AA?9?$AAl?$AAt?$AA?$AA@ 000000018003e018     libcpmt:winapinls.obj
 0002:00002028       ??_C@_1M@BDEKKCA@?$AAl?$AAv?$AA?9?$AAl?$AAv?$AA?$AA@ 000000018003e028     libcpmt:winapinls.obj
 0002:00002038       ??_C@_1M@ELCKCCJJ@?$AAm?$AAi?$AA?9?$AAn?$AAz?$AA?$AA@ 000000018003e038     libcpmt:winapinls.obj
 0002:00002048       ??_C@_1M@CBOOLAPA@?$AAm?$AAk?$AA?9?$AAm?$AAk?$AA?$AA@ 000000018003e048     libcpmt:winapinls.obj
 0002:00002058       ??_C@_1M@GPHNBJKN@?$AAm?$AAl?$AA?9?$AAi?$AAn?$AA?$AA@ 000000018003e058     libcpmt:winapinls.obj
 0002:00002068       ??_C@_1M@PABJILIG@?$AAm?$AAn?$AA?9?$AAm?$AAn?$AA?$AA@ 000000018003e068     libcpmt:winapinls.obj
 0002:00002078       ??_C@_1M@FGBKKIPG@?$AAm?$AAr?$AA?9?$AAi?$AAn?$AA?$AA@ 000000018003e078     libcpmt:winapinls.obj
 0002:00002088       ??_C@_1M@NDBPDDAL@?$AAm?$AAs?$AA?9?$AAb?$AAn?$AA?$AA@ 000000018003e088     libcpmt:winapinls.obj
 0002:00002098       ??_C@_1M@OPIHOOPI@?$AAm?$AAs?$AA?9?$AAm?$AAy?$AA?$AA@ 000000018003e098     libcpmt:winapinls.obj
 0002:000020a8       ??_C@_1M@PPDBCNFM@?$AAm?$AAt?$AA?9?$AAm?$AAt?$AA?$AA@ 000000018003e0a8     libcpmt:winapinls.obj
 0002:000020b8       ??_C@_1M@KDJDKMDD@?$AAn?$AAb?$AA?9?$AAn?$AAo?$AA?$AA@ 000000018003e0b8     libcpmt:winapinls.obj
 0002:000020c8       ??_C@_1M@KFCFLMJP@?$AAn?$AAl?$AA?9?$AAb?$AAe?$AA?$AA@ 000000018003e0c8     libcpmt:winapinls.obj
 0002:000020d8       ??_C@_1M@KPOPDDGO@?$AAn?$AAl?$AA?9?$AAn?$AAl?$AA?$AA@ 000000018003e0d8     libcpmt:winapinls.obj
 0002:000020e8       ??_C@_1M@LJKPEMLN@?$AAn?$AAn?$AA?9?$AAn?$AAo?$AA?$AA@ 000000018003e0e8     libcpmt:winapinls.obj
 0002:000020f8       ??_C@_1M@BDGHHBFL@?$AAn?$AAs?$AA?9?$AAz?$AAa?$AA?$AA@ 000000018003e0f8     libcpmt:winapinls.obj
 0002:00002108       ??_C@_1M@IDEHOAP@?$AAp?$AAa?$AA?9?$AAi?$AAn?$AA?$AA@ 000000018003e108     libcpmt:winapinls.obj
 0002:00002118       ??_C@_1M@HDBKGOGH@?$AAp?$AAl?$AA?9?$AAp?$AAl?$AA?$AA@ 000000018003e118     libcpmt:winapinls.obj
 0002:00002128       ??_C@_1M@LJLLCMEH@?$AAp?$AAt?$AA?9?$AAb?$AAr?$AA?$AA@ 000000018003e128     libcpmt:winapinls.obj
 0002:00002138       ??_C@_1M@NCMONAAL@?$AAp?$AAt?$AA?9?$AAp?$AAt?$AA?$AA@ 000000018003e138     libcpmt:winapinls.obj
 0002:00002148       ??_C@_1O@EAKMAJDN@?$AAq?$AAu?$AAz?$AA?9?$AAb?$AAo?$AA?$AA@ 000000018003e148     libcpmt:winapinls.obj
 0002:00002158       ??_C@_1O@BHHPIGDN@?$AAq?$AAu?$AAz?$AA?9?$AAe?$AAc?$AA?$AA@ 000000018003e158     libcpmt:winapinls.obj
 0002:00002168       ??_C@_1O@GBAPEKMJ@?$AAq?$AAu?$AAz?$AA?9?$AAp?$AAe?$AA?$AA@ 000000018003e168     libcpmt:winapinls.obj
 0002:00002178       ??_C@_1M@CLGLEFBO@?$AAr?$AAo?$AA?9?$AAr?$AAo?$AA?$AA@ 000000018003e178     libcpmt:winapinls.obj
 0002:00002188       ??_C@_1M@CEEDODME@?$AAr?$AAu?$AA?9?$AAr?$AAu?$AA?$AA@ 000000018003e188     libcpmt:winapinls.obj
 0002:00002198       ??_C@_1M@HPKKKMPP@?$AAs?$AAa?$AA?9?$AAi?$AAn?$AA?$AA@ 000000018003e198     libcpmt:winapinls.obj
 0002:000021a8       ??_C@_1M@BKMAIGOJ@?$AAs?$AAe?$AA?9?$AAf?$AAi?$AA?$AA@ 000000018003e1a8     libcpmt:winapinls.obj
 0002:000021b8       ??_C@_1M@NDPIFLFI@?$AAs?$AAe?$AA?9?$AAn?$AAo?$AA?$AA@ 000000018003e1b8     libcpmt:winapinls.obj
 0002:000021c8       ??_C@_1M@DANKKHJ@?$AAs?$AAe?$AA?9?$AAs?$AAe?$AA?$AA@ 000000018003e1c8     libcpmt:winapinls.obj
 0002:000021d8       ??_C@_1M@PNBLONPJ@?$AAs?$AAk?$AA?9?$AAs?$AAk?$AA?$AA@ 000000018003e1d8     libcpmt:winapinls.obj
 0002:000021e8       ??_C@_1M@LFMODOAL@?$AAs?$AAl?$AA?9?$AAs?$AAi?$AA?$AA@ 000000018003e1e8     libcpmt:winapinls.obj
 0002:000021f8       ??_C@_1O@DFKOMPG@?$AAs?$AAm?$AAa?$AA?9?$AAn?$AAo?$AA?$AA@ 000000018003e1f8     libcpmt:winapinls.obj
 0002:00002208       ??_C@_1O@NDKPBNNH@?$AAs?$AAm?$AAa?$AA?9?$AAs?$AAe?$AA?$AA@ 000000018003e208     libcpmt:winapinls.obj
 0002:00002218       ??_C@_1O@PLLKBHAB@?$AAs?$AAm?$AAj?$AA?9?$AAn?$AAo?$AA?$AA@ 000000018003e218     libcpmt:winapinls.obj
 0002:00002228       ??_C@_1O@CLEPOGCA@?$AAs?$AAm?$AAj?$AA?9?$AAs?$AAe?$AA?$AA@ 000000018003e228     libcpmt:winapinls.obj
 0002:00002238       ??_C@_1O@DLGJGKMK@?$AAs?$AAm?$AAn?$AA?9?$AAf?$AAi?$AA?$AA@ 000000018003e238     libcpmt:winapinls.obj
 0002:00002248       ??_C@_1O@OJDJGAJC@?$AAs?$AAm?$AAs?$AA?9?$AAf?$AAi?$AA?$AA@ 000000018003e248     libcpmt:winapinls.obj
 0002:00002258       ??_C@_1M@BOFOGHPB@?$AAs?$AAq?$AA?9?$AAa?$AAl?$AA?$AA@ 000000018003e258     libcpmt:winapinls.obj
 0002:00002268       ??_C@_1BG@LJBBIPGB@?$AAs?$AAr?$AA?9?$AAb?$AAa?$AA?9?$AAc?$AAy?$AAr?$AAl?$AA?$AA@ 000000018003e268     libcpmt:winapinls.obj
 0002:00002280       ??_C@_1BG@JLBENFOE@?$AAs?$AAr?$AA?9?$AAb?$AAa?$AA?9?$AAl?$AAa?$AAt?$AAn?$AA?$AA@ 000000018003e280     libcpmt:winapinls.obj
 0002:00002298       ??_C@_1BG@KODPNHE@?$AAs?$AAr?$AA?9?$AAs?$AAp?$AA?9?$AAc?$AAy?$AAr?$AAl?$AA?$AA@ 000000018003e298     libcpmt:winapinls.obj
 0002:000022b0       ??_C@_1BG@CIOGKHPB@?$AAs?$AAr?$AA?9?$AAs?$AAp?$AA?9?$AAl?$AAa?$AAt?$AAn?$AA?$AA@ 000000018003e2b0     libcpmt:winapinls.obj
 0002:000022c8       ??_C@_1M@NGFJLMAC@?$AAs?$AAv?$AA?9?$AAf?$AAi?$AA?$AA@ 000000018003e2c8     libcpmt:winapinls.obj
 0002:000022d8       ??_C@_1M@MPJEJAJC@?$AAs?$AAv?$AA?9?$AAs?$AAe?$AA?$AA@ 000000018003e2d8     libcpmt:winapinls.obj
 0002:000022e8       ??_C@_1M@MPNDHLFK@?$AAs?$AAw?$AA?9?$AAk?$AAe?$AA?$AA@ 000000018003e2e8     libcpmt:winapinls.obj
 0002:000022f8       ??_C@_1O@KOHBJJI@?$AAs?$AAy?$AAr?$AA?9?$AAs?$AAy?$AA?$AA@ 000000018003e2f8     libcpmt:winapinls.obj
 0002:00002308       ??_C@_1M@LDCEFHA@?$AAt?$AAa?$AA?9?$AAi?$AAn?$AA?$AA@ 000000018003e308     libcpmt:winapinls.obj
 0002:00002318       ??_C@_1M@CNJOFAK@?$AAt?$AAe?$AA?9?$AAi?$AAn?$AA?$AA@ 000000018003e318     libcpmt:winapinls.obj
 0002:00002328       ??_C@_1M@GNAECACD@?$AAt?$AAh?$AA?9?$AAt?$AAh?$AA?$AA@ 000000018003e328     libcpmt:winapinls.obj
 0002:00002338       ??_C@_1M@CHBIHOJO@?$AAt?$AAn?$AA?9?$AAz?$AAa?$AA?$AA@ 000000018003e338     libcpmt:winapinls.obj
 0002:00002348       ??_C@_1M@GCCMIGPJ@?$AAt?$AAr?$AA?9?$AAt?$AAr?$AA?$AA@ 000000018003e348     libcpmt:winapinls.obj
 0002:00002358       ??_C@_1M@CELMCNBK@?$AAt?$AAt?$AA?9?$AAr?$AAu?$AA?$AA@ 000000018003e358     libcpmt:winapinls.obj
 0002:00002368       ??_C@_1M@KLMCELGA@?$AAu?$AAk?$AA?9?$AAu?$AAa?$AA?$AA@ 000000018003e368     libcpmt:winapinls.obj
 0002:00002378       ??_C@_1M@EPAJJAJF@?$AAu?$AAr?$AA?9?$AAp?$AAk?$AA?$AA@ 000000018003e378     libcpmt:winapinls.obj
 0002:00002388       ??_C@_1BG@GEGPMCDJ@?$AAu?$AAz?$AA?9?$AAu?$AAz?$AA?9?$AAc?$AAy?$AAr?$AAl?$AA?$AA@ 000000018003e388     libcpmt:winapinls.obj
 0002:000023a0       ??_C@_1BG@EGGKJILM@?$AAu?$AAz?$AA?9?$AAu?$AAz?$AA?9?$AAl?$AAa?$AAt?$AAn?$AA?$AA@ 000000018003e3a0     libcpmt:winapinls.obj
 0002:000023b8       ??_C@_1M@GFOCLFF@?$AAv?$AAi?$AA?9?$AAv?$AAn?$AA?$AA@ 000000018003e3b8     libcpmt:winapinls.obj
 0002:000023c8       ??_C@_1M@CPAMEDFI@?$AAx?$AAh?$AA?9?$AAz?$AAa?$AA?$AA@ 000000018003e3c8     libcpmt:winapinls.obj
 0002:000023d8       ??_C@_1O@EBKIFIGN@?$AAz?$AAh?$AA?9?$AAc?$AAh?$AAs?$AA?$AA@ 000000018003e3d8     libcpmt:winapinls.obj
 0002:000023e8       ??_C@_1O@NMHPGANE@?$AAz?$AAh?$AA?9?$AAc?$AAh?$AAt?$AA?$AA@ 000000018003e3e8     libcpmt:winapinls.obj
 0002:000023f8       ??_C@_1M@LPINJOMC@?$AAz?$AAh?$AA?9?$AAc?$AAn?$AA?$AA@ 000000018003e3f8     libcpmt:winapinls.obj
 0002:00002408       ??_C@_1M@OCJEJODD@?$AAz?$AAh?$AA?9?$AAh?$AAk?$AA?$AA@ 000000018003e408     libcpmt:winapinls.obj
 0002:00002418       ??_C@_1M@DNDLJINH@?$AAz?$AAh?$AA?9?$AAm?$AAo?$AA?$AA@ 000000018003e418     libcpmt:winapinls.obj
 0002:00002428       ??_C@_1M@MBFDNDND@?$AAz?$AAh?$AA?9?$AAs?$AAg?$AA?$AA@ 000000018003e428     libcpmt:winapinls.obj
 0002:00002438       ??_C@_1M@IMEPLEPE@?$AAz?$AAh?$AA?9?$AAt?$AAw?$AA?$AA@ 000000018003e438     libcpmt:winapinls.obj
 0002:00002448       ??_C@_1M@BBGHNHJP@?$AAz?$AAu?$AA?9?$AAz?$AAa?$AA?$AA@ 000000018003e448     libcpmt:winapinls.obj
 0002:000040e0       ??_C@_15EMKDOKLE@?$AAa?$AAr?$AA?$AA@ 00000001800400e0     libcpmt:winapinls.obj
 0002:000040e8       ??_C@_15KNPADPLH@?$AAb?$AAg?$AA?$AA@ 00000001800400e8     libcpmt:winapinls.obj
 0002:000040f0       ??_C@_15EDMHLDMO@?$AAc?$AAa?$AA?$AA@ 00000001800400f0     libcpmt:winapinls.obj
 0002:000040f8       ??_C@_1O@BPEAJADD@?$AAz?$AAh?$AA?9?$AAC?$AAH?$AAS?$AA?$AA@ 00000001800400f8     libcpmt:winapinls.obj
 0002:00004108       ??_C@_15LJNHCMNK@?$AAc?$AAs?$AA?$AA@ 0000000180040108     libcpmt:winapinls.obj
 0002:00004110       ??_C@_15FOMCIDHG@?$AAd?$AAa?$AA?$AA@ 0000000180040110     libcpmt:winapinls.obj
 0002:00004118       ??_C@_15NBKABECB@?$AAd?$AAe?$AA?$AA@ 0000000180040118     libcpmt:winapinls.obj
 0002:00004120       ??_C@_15GHPEIIAO@?$AAe?$AAl?$AA?$AA@ 0000000180040120     libcpmt:winapinls.obj
 0002:00004128       ??_C@_15MNPNEAIF@?$AAe?$AAn?$AA?$AA@ 0000000180040128     libcpmt:winapinls.obj
 0002:00004130       ??_C@_15GPIOMPMH@?$AAe?$AAs?$AA?$AA@ 0000000180040130     libcpmt:winapinls.obj
 0002:00004138       ??_C@_15NGLOAKJC@?$AAf?$AAi?$AA?$AA@ 0000000180040138     libcpmt:winapinls.obj
 0002:00004140       ??_C@_15FBKGNKAM@?$AAf?$AAr?$AA?$AA@ 0000000180040140     libcpmt:winapinls.obj
 0002:00004148       ??_C@_15KGGCNEFK@?$AAh?$AAe?$AA?$AA@ 0000000180040148     libcpmt:winapinls.obj
 0002:00004150       ??_C@_15PGHLIDMF@?$AAh?$AAu?$AA?$AA@ 0000000180040150     libcpmt:winapinls.obj
 0002:00004158       ??_C@_15BIEMAPLM@?$AAi?$AAs?$AA?$AA@ 0000000180040158     libcpmt:winapinls.obj
 0002:00004160       ??_C@_15IFJLDHAF@?$AAi?$AAt?$AA?$AA@ 0000000180040160     libcpmt:winapinls.obj
 0002:00004168       ??_C@_15GEMIOCAG@?$AAj?$AAa?$AA?$AA@ 0000000180040168     libcpmt:winapinls.obj
 0002:00004170       ??_C@_15EPELEGJA@?$AAk?$AAo?$AA?$AA@ 0000000180040170     libcpmt:winapinls.obj
 0002:00004178       ??_C@_15NDDHIMN@?$AAn?$AAl?$AA?$AA@ 0000000180040178     libcpmt:winapinls.obj
 0002:00004180       ??_C@_15BPIGNHCD@?$AAn?$AAo?$AA?$AA@ 0000000180040180     libcpmt:winapinls.obj
 0002:00004188       ??_C@_15DEOPBLCG@?$AAp?$AAl?$AA?$AA@ 0000000180040188     libcpmt:winapinls.obj
 0002:00004190       ??_C@_15KBECGEFG@?$AAp?$AAt?$AA?$AA@ 0000000180040190     libcpmt:winapinls.obj
 0002:00004198       ??_C@_15GLJCBFMD@?$AAr?$AAo?$AA?$AA@ 0000000180040198     libcpmt:winapinls.obj
 0002:000041a0       ??_C@_15FEDGKCDI@?$AAr?$AAu?$AA?$AA@ 00000001800401a0     libcpmt:winapinls.obj
 0002:000041a8       ??_C@_15GLKMLLHM@?$AAh?$AAr?$AA?$AA@ 00000001800401a8     libcpmt:winapinls.obj
 0002:000041b0       ??_C@_15CPKMFBDB@?$AAs?$AAk?$AA?$AA@ 00000001800401b0     libcpmt:winapinls.obj
 0002:000041b8       ??_C@_15BAAIOGMK@?$AAs?$AAq?$AA?$AA@ 00000001800401b8     libcpmt:winapinls.obj
 0002:000041c0       ??_C@_15INNPNOHD@?$AAs?$AAv?$AA?$AA@ 00000001800401c0     libcpmt:winapinls.obj
 0002:000041c8       ??_C@_15CABMMOGH@?$AAt?$AAh?$AA?$AA@ 00000001800401c8     libcpmt:winapinls.obj
 0002:000041d0       ??_C@_15BPLIHJJM@?$AAt?$AAr?$AA?$AA@ 00000001800401d0     libcpmt:winapinls.obj
 0002:000041d8       ??_C@_15NEOEKKDJ@?$AAu?$AAr?$AA?$AA@ 00000001800401d8     libcpmt:winapinls.obj
 0002:000041e0       ??_C@_15NFICGAJK@?$AAi?$AAd?$AA?$AA@ 00000001800401e0     libcpmt:winapinls.obj
 0002:000041e8       ??_C@_15PJPFLCCM@?$AAu?$AAk?$AA?$AA@ 00000001800401e8     libcpmt:winapinls.obj
 0002:000041f0       ??_C@_15HPJPHDM@?$AAb?$AAe?$AA?$AA@ 00000001800401f0     libcpmt:winapinls.obj
 0002:000041f8       ??_C@_15LCHLGJII@?$AAs?$AAl?$AA?$AA@ 00000001800401f8     libcpmt:winapinls.obj
 0002:00004200       ??_C@_15PCFJPHHO@?$AAe?$AAt?$AA?$AA@ 0000000180040200     libcpmt:winapinls.obj
 0002:00004208       ??_C@_15HPFPGODN@?$AAl?$AAv?$AA?$AA@ 0000000180040208     libcpmt:winapinls.obj
 0002:00004210       ??_C@_15NFFGKGLG@?$AAl?$AAt?$AA?$AA@ 0000000180040210     libcpmt:winapinls.obj
 0002:00004218       ??_C@_15BDAKCCHN@?$AAf?$AAa?$AA?$AA@ 0000000180040218     libcpmt:winapinls.obj
 0002:00004220       ??_C@_15NFGIAIAJ@?$AAv?$AAi?$AA?$AA@ 0000000180040220     libcpmt:winapinls.obj
 0002:00004228       ??_C@_15LMKNDMHN@?$AAh?$AAy?$AA?$AA@ 0000000180040228     libcpmt:winapinls.obj
 0002:00004230       ??_C@_15IJBHMCFL@?$AAa?$AAz?$AA?$AA@ 0000000180040230     libcpmt:winapinls.obj
 0002:00004238       ??_C@_15EKOFJABL@?$AAe?$AAu?$AA?$AA@ 0000000180040238     libcpmt:winapinls.obj
 0002:00004240       ??_C@_15BGHADCNK@?$AAm?$AAk?$AA?$AA@ 0000000180040240     libcpmt:winapinls.obj
 0002:00004248       ??_C@_15JDNICKHM@?$AAa?$AAf?$AA?$AA@ 0000000180040248     libcpmt:winapinls.obj
 0002:00004250       ??_C@_15KPJEDBKD@?$AAk?$AAa?$AA?$AA@ 0000000180040250     libcpmt:winapinls.obj
 0002:00004258       ??_C@_15PDNFFFEO@?$AAf?$AAo?$AA?$AA@ 0000000180040258     libcpmt:winapinls.obj
 0002:00004260       ??_C@_15OMLEGLOC@?$AAh?$AAi?$AA?$AA@ 0000000180040260     libcpmt:winapinls.obj
 0002:00004268       ??_C@_15IDNNENKK@?$AAm?$AAs?$AA?$AA@ 0000000180040268     libcpmt:winapinls.obj
 0002:00004270       ??_C@_15MACJNBMH@?$AAk?$AAk?$AA?$AA@ 0000000180040270     libcpmt:winapinls.obj
 0002:00004278       ??_C@_15DKDJEOND@?$AAk?$AAy?$AA?$AA@ 0000000180040278     libcpmt:winapinls.obj
 0002:00004280       ??_C@_15DFGDLJBG@?$AAs?$AAw?$AA?$AA@ 0000000180040280     libcpmt:winapinls.obj
 0002:00004288       ??_C@_15BBFAICNG@?$AAu?$AAz?$AA?$AA@ 0000000180040288     libcpmt:winapinls.obj
 0002:00004290       ??_C@_15DKNDCGEA@?$AAt?$AAt?$AA?$AA@ 0000000180040290     libcpmt:winapinls.obj
 0002:00004298       ??_C@_15MGIFMDPL@?$AAp?$AAa?$AA?$AA@ 0000000180040298     libcpmt:winapinls.obj
 0002:000042a0       ??_C@_15HCNDBBA@?$AAg?$AAu?$AA?$AA@ 00000001800402a0     libcpmt:winapinls.obj
 0002:000042a8       ??_C@_15FNBEIBON@?$AAt?$AAa?$AA?$AA@ 00000001800402a8     libcpmt:winapinls.obj
 0002:000042b0       ??_C@_15NCHGBGLK@?$AAt?$AAe?$AA?$AA@ 00000001800402b0     libcpmt:winapinls.obj
 0002:000042b8       ??_C@_15PHPHCBPF@?$AAk?$AAn?$AA?$AA@ 00000001800402b8     libcpmt:winapinls.obj
 0002:000042c0       ??_C@_15DLGBCKMP@?$AAm?$AAr?$AA?$AA@ 00000001800402c0     libcpmt:winapinls.obj
 0002:000042c8       ??_C@_15EABBLBFF@?$AAs?$AAa?$AA?$AA@ 00000001800402c8     libcpmt:winapinls.obj
 0002:000042d0       ??_C@_15CBKOMCOI@?$AAm?$AAn?$AA?$AA@ 00000001800402d0     libcpmt:winapinls.obj
 0002:000042d8       ??_C@_15CKDMCJAF@?$AAg?$AAl?$AA?$AA@ 00000001800402d8     libcpmt:winapinls.obj
 0002:000042e0       ??_C@_17CNJFBPG@?$AAk?$AAo?$AAk?$AA?$AA@ 00000001800402e0     libcpmt:winapinls.obj
 0002:000042e8       ??_C@_17FFBJICPL@?$AAs?$AAy?$AAr?$AA?$AA@ 00000001800402e8     libcpmt:winapinls.obj
 0002:000042f0       ??_C@_17KPNDCPAF@?$AAd?$AAi?$AAv?$AA?$AA@ 00000001800402f0     libcpmt:winapinls.obj
 0002:000042f8       ??_C@_1M@OKAHONE@?$AAa?$AAr?$AA?9?$AAS?$AAA?$AA?$AA@ 00000001800402f8     libcpmt:winapinls.obj
 0002:00004308       ??_C@_1M@FFFIGIGK@?$AAb?$AAg?$AA?9?$AAB?$AAG?$AA?$AA@ 0000000180040308     libcpmt:winapinls.obj
 0002:00004318       ??_C@_1M@BJNKEDC@?$AAc?$AAa?$AA?9?$AAE?$AAS?$AA?$AA@ 0000000180040318     libcpmt:winapinls.obj
 0002:00004328       ??_C@_1M@CLNBBOPM@?$AAz?$AAh?$AA?9?$AAT?$AAW?$AA?$AA@ 0000000180040328     libcpmt:winapinls.obj
 0002:00004338       ??_C@_1M@IJJHFJHA@?$AAc?$AAs?$AA?9?$AAC?$AAZ?$AA?$AA@ 0000000180040338     libcpmt:winapinls.obj
 0002:00004348       ??_C@_1M@CLPEOBGI@?$AAd?$AAa?$AA?9?$AAD?$AAK?$AA?$AA@ 0000000180040348     libcpmt:winapinls.obj
 0002:00004358       ??_C@_1M@MCMADGCB@?$AAd?$AAe?$AA?9?$AAD?$AAE?$AA?$AA@ 0000000180040358     libcpmt:winapinls.obj
 0002:00004368       ??_C@_1M@OOCKEMAM@?$AAe?$AAl?$AA?9?$AAG?$AAR?$AA?$AA@ 0000000180040368     libcpmt:winapinls.obj
 0002:00004378       ??_C@_1M@BMHNFIME@?$AAe?$AAn?$AA?9?$AAU?$AAS?$AA?$AA@ 0000000180040378     libcpmt:winapinls.obj
 0002:00004388       ??_C@_1M@DDNJFGID@?$AAf?$AAi?$AA?9?$AAF?$AAI?$AA?$AA@ 0000000180040388     libcpmt:winapinls.obj
 0002:00004398       ??_C@_1M@GLIPPMAC@?$AAf?$AAr?$AA?9?$AAF?$AAR?$AA?$AA@ 0000000180040398     libcpmt:winapinls.obj
 0002:000043a8       ??_C@_1M@GFMCHPE@?$AAh?$AAe?$AA?9?$AAI?$AAL?$AA?$AA@ 00000001800403a8     libcpmt:winapinls.obj
 0002:000043b8       ??_C@_1M@MHLPGNKM@?$AAh?$AAu?$AA?9?$AAH?$AAU?$AA?$AA@ 00000001800403b8     libcpmt:winapinls.obj
 0002:000043c8       ??_C@_1M@LPDDNNPN@?$AAi?$AAs?$AA?9?$AAI?$AAS?$AA?$AA@ 00000001800403c8     libcpmt:winapinls.obj
 0002:000043d8       ??_C@_1M@MADIPODN@?$AAi?$AAt?$AA?9?$AAI?$AAT?$AA?$AA@ 00000001800403d8     libcpmt:winapinls.obj
 0002:000043e8       ??_C@_1M@HPNHIDJI@?$AAj?$AAa?$AA?9?$AAJ?$AAP?$AA?$AA@ 00000001800403e8     libcpmt:winapinls.obj
 0002:000043f8       ??_C@_1M@JLOOOEGK@?$AAk?$AAo?$AA?9?$AAK?$AAR?$AA?$AA@ 00000001800403f8     libcpmt:winapinls.obj
 0002:00004408       ??_C@_1M@IHBJJGG@?$AAn?$AAl?$AA?9?$AAN?$AAL?$AA?$AA@ 0000000180040408     libcpmt:winapinls.obj
 0002:00004418       ??_C@_1M@EANAGDL@?$AAn?$AAb?$AA?9?$AAN?$AAO?$AA?$AA@ 0000000180040418     libcpmt:winapinls.obj
 0002:00004428       ??_C@_1M@NEIEMEGP@?$AAp?$AAl?$AA?9?$AAP?$AAL?$AA?$AA@ 0000000180040428     libcpmt:winapinls.obj
 0002:00004438       ??_C@_1M@BOCFIGEP@?$AAp?$AAt?$AA?9?$AAB?$AAR?$AA?$AA@ 0000000180040438     libcpmt:winapinls.obj
 0002:00004448       ??_C@_1M@IMPFOPBG@?$AAr?$AAo?$AA?9?$AAR?$AAO?$AA?$AA@ 0000000180040448     libcpmt:winapinls.obj
 0002:00004458       ??_C@_1M@IDNNEJMM@?$AAr?$AAu?$AA?9?$AAR?$AAU?$AA?$AA@ 0000000180040458     libcpmt:winapinls.obj
 0002:00004468       ??_C@_1M@LILEEOGM@?$AAh?$AAr?$AA?9?$AAH?$AAR?$AA?$AA@ 0000000180040468     libcpmt:winapinls.obj
 0002:00004478       ??_C@_1M@FKIFEHPB@?$AAs?$AAk?$AA?9?$AAS?$AAK?$AA?$AA@ 0000000180040478     libcpmt:winapinls.obj
 0002:00004488       ??_C@_1M@LJMAMNPJ@?$AAs?$AAq?$AA?9?$AAA?$AAL?$AA?$AA@ 0000000180040488     libcpmt:winapinls.obj
 0002:00004498       ??_C@_1M@GIAKDKJK@?$AAs?$AAv?$AA?9?$AAS?$AAE?$AA?$AA@ 0000000180040498     libcpmt:winapinls.obj
 0002:000044a8       ??_C@_1M@MKJKIKCL@?$AAt?$AAh?$AA?9?$AAT?$AAH?$AA?$AA@ 00000001800404a8     libcpmt:winapinls.obj
 0002:000044b8       ??_C@_1M@MFLCCMPB@?$AAt?$AAr?$AA?9?$AAT?$AAR?$AA?$AA@ 00000001800404b8     libcpmt:winapinls.obj
 0002:000044c8       ??_C@_1M@OIJHDKJN@?$AAu?$AAr?$AA?9?$AAP?$AAK?$AA?$AA@ 00000001800404c8     libcpmt:winapinls.obj
 0002:000044d8       ??_C@_1M@LHIPCIEK@?$AAi?$AAd?$AA?9?$AAI?$AAD?$AA?$AA@ 00000001800404d8     libcpmt:winapinls.obj
 0002:000044e8       ??_C@_1M@MFMOBGI@?$AAu?$AAk?$AA?9?$AAU?$AAA?$AA?$AA@ 00000001800404e8     libcpmt:winapinls.obj
 0002:000044f8       ??_C@_1M@OBGLJIPL@?$AAb?$AAe?$AA?9?$AAB?$AAY?$AA?$AA@ 00000001800404f8     libcpmt:winapinls.obj
 0002:00004508       ??_C@_1M@BCFAJEAD@?$AAs?$AAl?$AA?9?$AAS?$AAI?$AA?$AA@ 0000000180040508     libcpmt:winapinls.obj
 0002:00004518       ??_C@_1M@FKFFEDDN@?$AAe?$AAt?$AA?9?$AAE?$AAE?$AA?$AA@ 0000000180040518     libcpmt:winapinls.obj
 0002:00004528       ??_C@_1M@KGKKAACI@?$AAl?$AAv?$AA?9?$AAL?$AAV?$AA?$AA@ 0000000180040528     libcpmt:winapinls.obj
 0002:00004538       ??_C@_1M@IFGBIJO@?$AAl?$AAt?$AA?9?$AAL?$AAT?$AA?$AA@ 0000000180040538     libcpmt:winapinls.obj
 0002:00004548       ??_C@_1M@FGEAHEDM@?$AAf?$AAa?$AA?9?$AAI?$AAR?$AA?$AA@ 0000000180040548     libcpmt:winapinls.obj
 0002:00004558       ??_C@_1M@KBMAIBFN@?$AAv?$AAi?$AA?9?$AAV?$AAN?$AA?$AA@ 0000000180040558     libcpmt:winapinls.obj
 0002:00004568       ??_C@_1M@GPCBKDJK@?$AAh?$AAy?$AA?9?$AAA?$AAM?$AA?$AA@ 0000000180040568     libcpmt:winapinls.obj
 0002:00004578       ??_C@_1BG@BECMDDJB@?$AAa?$AAz?$AA?9?$AAA?$AAZ?$AA?9?$AAL?$AAa?$AAt?$AAn?$AA?$AA@ 0000000180040578     libcpmt:winapinls.obj
 0002:00004590       ??_C@_1M@MAOFCAEA@?$AAe?$AAu?$AA?9?$AAE?$AAS?$AA?$AA@ 0000000180040590     libcpmt:winapinls.obj
 0002:000045a0       ??_C@_1M@IGHABKPI@?$AAm?$AAk?$AA?9?$AAM?$AAK?$AA?$AA@ 00000001800405a0     libcpmt:winapinls.obj
 0002:000045b0       ??_C@_1M@IAIGNEJG@?$AAt?$AAn?$AA?9?$AAZ?$AAA?$AA?$AA@ 00000001800405b0     libcpmt:winapinls.obj
 0002:000045c0       ??_C@_1M@IIJCOJFA@?$AAx?$AAh?$AA?9?$AAZ?$AAA?$AA?$AA@ 00000001800405c0     libcpmt:winapinls.obj
 0002:000045d0       ??_C@_1M@LGPJHNJH@?$AAz?$AAu?$AA?9?$AAZ?$AAA?$AA?$AA@ 00000001800405d0     libcpmt:winapinls.obj
 0002:000045e0       ??_C@_1M@HOKAOIO@?$AAa?$AAf?$AA?9?$AAZ?$AAA?$AA?$AA@ 00000001800405e0     libcpmt:winapinls.obj
 0002:000045f0       ??_C@_1M@DPCLHLIE@?$AAk?$AAa?$AA?9?$AAG?$AAE?$AA?$AA@ 00000001800405f0     libcpmt:winapinls.obj
 0002:00004600       ??_C@_1M@BLKMHJBI@?$AAf?$AAo?$AA?9?$AAF?$AAO?$AA?$AA@ 0000000180040600     libcpmt:winapinls.obj
 0002:00004610       ??_C@_1M@LGGJAPPB@?$AAh?$AAi?$AA?9?$AAI?$AAN?$AA?$AA@ 0000000180040610     libcpmt:winapinls.obj
 0002:00004620       ??_C@_1M@FIKPIHFE@?$AAm?$AAt?$AA?9?$AAM?$AAT?$AA?$AA@ 0000000180040620     libcpmt:winapinls.obj
 0002:00004630       ??_C@_1M@HEGGPBFA@?$AAs?$AAe?$AA?9?$AAN?$AAO?$AA?$AA@ 0000000180040630     libcpmt:winapinls.obj
 0002:00004640       ??_C@_1M@EIBJEEPA@?$AAm?$AAs?$AA?9?$AAM?$AAY?$AA?$AA@ 0000000180040640     libcpmt:winapinls.obj
 0002:00004650       ??_C@_1M@FHLBGMPP@?$AAk?$AAk?$AA?9?$AAK?$AAZ?$AA?$AA@ 0000000180040650     libcpmt:winapinls.obj
 0002:00004660       ??_C@_1M@NGJJLCGI@?$AAk?$AAy?$AA?9?$AAK?$AAG?$AA?$AA@ 0000000180040660     libcpmt:winapinls.obj
 0002:00004670       ??_C@_1M@GIENNBFC@?$AAs?$AAw?$AA?9?$AAK?$AAE?$AA?$AA@ 0000000180040670     libcpmt:winapinls.obj
 0002:00004680       ??_C@_1BG@NDGMJIMJ@?$AAu?$AAz?$AA?9?$AAU?$AAZ?$AA?9?$AAL?$AAa?$AAt?$AAn?$AA?$AA@ 0000000180040680     libcpmt:winapinls.obj
 0002:00004698       ??_C@_1M@IDCCIHBC@?$AAt?$AAt?$AA?9?$AAR?$AAU?$AA?$AA@ 0000000180040698     libcpmt:winapinls.obj
 0002:000046a8       ??_C@_1M@LOICPMOJ@?$AAb?$AAn?$AA?9?$AAI?$AAN?$AA?$AA@ 00000001800406a8     libcpmt:winapinls.obj
 0002:000046b8       ??_C@_1M@KPKKNEAH@?$AAp?$AAa?$AA?9?$AAI?$AAN?$AA?$AA@ 00000001800406b8     libcpmt:winapinls.obj
 0002:000046c8       ??_C@_1M@PJGPPBOG@?$AAg?$AAu?$AA?9?$AAI?$AAN?$AA?$AA@ 00000001800406c8     libcpmt:winapinls.obj
 0002:000046d8       ??_C@_1M@KMKMOPHI@?$AAt?$AAa?$AA?9?$AAI?$AAN?$AA?$AA@ 00000001800406d8     libcpmt:winapinls.obj
 0002:000046e8       ??_C@_1M@KFEHEPAC@?$AAt?$AAe?$AA?9?$AAI?$AAN?$AA?$AA@ 00000001800406e8     libcpmt:winapinls.obj
 0002:000046f8       ??_C@_1M@CDCLMGHI@?$AAk?$AAn?$AA?9?$AAI?$AAN?$AA?$AA@ 00000001800406f8     libcpmt:winapinls.obj
 0002:00004708       ??_C@_1M@MIODLDKF@?$AAm?$AAl?$AA?9?$AAI?$AAN?$AA?$AA@ 0000000180040708     libcpmt:winapinls.obj
 0002:00004718       ??_C@_1M@PBIEACPO@?$AAm?$AAr?$AA?9?$AAI?$AAN?$AA?$AA@ 0000000180040718     libcpmt:winapinls.obj
 0002:00004728       ??_C@_1M@NIDEAGPH@?$AAs?$AAa?$AA?9?$AAI?$AAN?$AA?$AA@ 0000000180040728     libcpmt:winapinls.obj
 0002:00004738       ??_C@_1M@FHIHCBIO@?$AAm?$AAn?$AA?9?$AAM?$AAN?$AA?$AA@ 0000000180040738     libcpmt:winapinls.obj
 0002:00004748       ??_C@_1M@JAIJPENP@?$AAc?$AAy?$AA?9?$AAG?$AAB?$AA?$AA@ 0000000180040748     libcpmt:winapinls.obj
 0002:00004758       ??_C@_1M@PHGFBEPN@?$AAg?$AAl?$AA?9?$AAE?$AAS?$AA?$AA@ 0000000180040758     libcpmt:winapinls.obj
 0002:00004768       ??_C@_1O@KPIPDNCP@?$AAk?$AAo?$AAk?$AA?9?$AAI?$AAN?$AA?$AA@ 0000000180040768     libcpmt:winapinls.obj
 0002:00004778       ??_C@_1O@KNHJLDJA@?$AAs?$AAy?$AAr?$AA?9?$AAS?$AAY?$AA?$AA@ 0000000180040778     libcpmt:winapinls.obj
 0002:00004788       ??_C@_1O@MKEKBLAH@?$AAd?$AAi?$AAv?$AA?9?$AAM?$AAV?$AA?$AA@ 0000000180040788     libcpmt:winapinls.obj
 0002:00004798       ??_C@_1O@OHDCKDDF@?$AAq?$AAu?$AAz?$AA?9?$AAB?$AAO?$AA?$AA@ 0000000180040798     libcpmt:winapinls.obj
 0002:000047a8       ??_C@_1M@LEPJNLFD@?$AAn?$AAs?$AA?9?$AAZ?$AAA?$AA?$AA@ 00000001800407a8     libcpmt:winapinls.obj
 0002:000047b8       ??_C@_1M@OMLEIIJB@?$AAm?$AAi?$AA?9?$AAN?$AAZ?$AA?$AA@ 00000001800407b8     libcpmt:winapinls.obj
 0002:000047c8       ??_C@_1M@PMPEAILG@?$AAa?$AAr?$AA?9?$AAI?$AAQ?$AA?$AA@ 00000001800407c8     libcpmt:winapinls.obj
 0002:000047d8       ??_C@_1M@BIBDDEMK@?$AAz?$AAh?$AA?9?$AAC?$AAN?$AA?$AA@ 00000001800407d8     libcpmt:winapinls.obj
 0002:000047e8       ??_C@_1M@CNKPNOEE@?$AAd?$AAe?$AA?9?$AAC?$AAH?$AA?$AA@ 00000001800407e8     libcpmt:winapinls.obj
 0002:000047f8       ??_C@_1M@LKMGMLKO@?$AAe?$AAn?$AA?9?$AAG?$AAB?$AA?$AA@ 00000001800407f8     libcpmt:winapinls.obj
 0002:00004808       ??_C@_1M@PGKJFFGL@?$AAe?$AAs?$AA?9?$AAM?$AAX?$AA?$AA@ 0000000180040808     libcpmt:winapinls.obj
 0002:00004818       ??_C@_1M@DNNANBDC@?$AAf?$AAr?$AA?9?$AAB?$AAE?$AA?$AA@ 0000000180040818     libcpmt:winapinls.obj
 0002:00004828       ??_C@_1M@HLGMDFHM@?$AAi?$AAt?$AA?9?$AAC?$AAH?$AA?$AA@ 0000000180040828     libcpmt:winapinls.obj
 0002:00004838       ??_C@_1M@CLLBGJH@?$AAn?$AAl?$AA?9?$AAB?$AAE?$AA?$AA@ 0000000180040838     libcpmt:winapinls.obj
 0002:00004848       ??_C@_1M@BODBOGLF@?$AAn?$AAn?$AA?9?$AAN?$AAO?$AA?$AA@ 0000000180040848     libcpmt:winapinls.obj
 0002:00004858       ??_C@_1M@HFFAHKAD@?$AAp?$AAt?$AA?9?$AAP?$AAT?$AA?$AA@ 0000000180040858     libcpmt:winapinls.obj
 0002:00004868       ??_C@_1BG@LNOAKHIE@?$AAs?$AAr?$AA?9?$AAS?$AAP?$AA?9?$AAL?$AAa?$AAt?$AAn?$AA?$AA@ 0000000180040868     libcpmt:winapinls.obj
 0002:00004880       ??_C@_1M@HBMHBGAK@?$AAs?$AAv?$AA?9?$AAF?$AAI?$AA?$AA@ 0000000180040880     libcpmt:winapinls.obj
 0002:00004890       ??_C@_1BG@DGCJGJBE@?$AAa?$AAz?$AA?9?$AAA?$AAZ?$AA?9?$AAC?$AAy?$AAr?$AAl?$AA?$AA@ 0000000180040890     libcpmt:winapinls.obj
 0002:000048a8       ??_C@_1M@KEJDAAHB@?$AAs?$AAe?$AA?9?$AAS?$AAE?$AA?$AA@ 00000001800408a8     libcpmt:winapinls.obj
 0002:000048b8       ??_C@_1M@HEIBJJAD@?$AAm?$AAs?$AA?9?$AAB?$AAN?$AA?$AA@ 00000001800408b8     libcpmt:winapinls.obj
 0002:000048c8       ??_C@_1BG@PBGJMCEM@?$AAu?$AAz?$AA?9?$AAU?$AAZ?$AA?9?$AAC?$AAy?$AAr?$AAl?$AA?$AA@ 00000001800408c8     libcpmt:winapinls.obj
 0002:000048e0       ??_C@_1O@LAOBCMDF@?$AAq?$AAu?$AAz?$AA?9?$AAE?$AAC?$AA?$AA@ 00000001800408e0     libcpmt:winapinls.obj
 0002:000048f0       ??_C@_1M@POEEMAIO@?$AAa?$AAr?$AA?9?$AAE?$AAG?$AA?$AA@ 00000001800408f0     libcpmt:winapinls.obj
 0002:00004900       ??_C@_1M@EFAKDEDL@?$AAz?$AAh?$AA?9?$AAH?$AAK?$AA?$AA@ 0000000180040900     libcpmt:winapinls.obj
 0002:00004910       ??_C@_1M@HKKIJHGI@?$AAd?$AAe?$AA?9?$AAA?$AAT?$AA?$AA@ 0000000180040910     libcpmt:winapinls.obj
 0002:00004920       ??_C@_1M@KBFBEHJF@?$AAe?$AAn?$AA?9?$AAA?$AAU?$AA?$AA@ 0000000180040920     libcpmt:winapinls.obj
 0002:00004930       ??_C@_1M@MNPLFAAH@?$AAe?$AAs?$AA?9?$AAE?$AAS?$AA?$AA@ 0000000180040930     libcpmt:winapinls.obj
 0002:00004940       ??_C@_1M@HJOOJFMA@?$AAf?$AAr?$AA?9?$AAC?$AAA?$AA?$AA@ 0000000180040940     libcpmt:winapinls.obj
 0002:00004950       ??_C@_1BG@JPOFPNAB@?$AAs?$AAr?$AA?9?$AAS?$AAP?$AA?9?$AAC?$AAy?$AAr?$AAl?$AA?$AA@ 0000000180040950     libcpmt:winapinls.obj
 0002:00004968       ??_C@_1M@LNFOCMOB@?$AAs?$AAe?$AA?9?$AAF?$AAI?$AA?$AA@ 0000000180040968     libcpmt:winapinls.obj
 0002:00004978       ??_C@_1O@MGJBOAMB@?$AAq?$AAu?$AAz?$AA?9?$AAP?$AAE?$AA?$AA@ 0000000180040978     libcpmt:winapinls.obj
 0002:00004988       ??_C@_1M@GJINLBOK@?$AAa?$AAr?$AA?9?$AAL?$AAY?$AA?$AA@ 0000000180040988     libcpmt:winapinls.obj
 0002:00004998       ??_C@_1M@GGMNHJNL@?$AAz?$AAh?$AA?9?$AAS?$AAG?$AA?$AA@ 0000000180040998     libcpmt:winapinls.obj
 0002:000049a8       ??_C@_1M@HOIKODND@?$AAd?$AAe?$AA?9?$AAL?$AAU?$AA?$AA@ 00000001800409a8     libcpmt:winapinls.obj
 0002:000049b8       ??_C@_1M@DDOCCGFG@?$AAe?$AAn?$AA?9?$AAC?$AAA?$AA?$AA@ 00000001800409b8     libcpmt:winapinls.obj
 0002:000049c8       ??_C@_1M@BNOEMJLF@?$AAe?$AAs?$AA?9?$AAG?$AAT?$AA?$AA@ 00000001800409c8     libcpmt:winapinls.obj
 0002:000049d8       ??_C@_1M@EOGNKEK@?$AAf?$AAr?$AA?9?$AAC?$AAH?$AA?$AA@ 00000001800409d8     libcpmt:winapinls.obj
 0002:000049e8       ??_C@_1M@FLIDJFHL@?$AAh?$AAr?$AA?9?$AAB?$AAA?$AA?$AA@ 00000001800409e8     libcpmt:winapinls.obj
 0002:000049f8       ??_C@_1O@FMCELNAJ@?$AAs?$AAm?$AAj?$AA?9?$AAN?$AAO?$AA?$AA@ 00000001800409f8     libcpmt:winapinls.obj
 0002:00004a08       ??_C@_1M@JHGLJMGJ@?$AAa?$AAr?$AA?9?$AAD?$AAZ?$AA?$AA@ 0000000180040a08     libcpmt:winapinls.obj
 0002:00004a18       ??_C@_1M@JKKFDCNP@?$AAz?$AAh?$AA?9?$AAM?$AAO?$AA?$AA@ 0000000180040a18     libcpmt:winapinls.obj
 0002:00004a28       ??_C@_1M@GEEFALPE@?$AAd?$AAe?$AA?9?$AAL?$AAI?$AA?$AA@ 0000000180040a28     libcpmt:winapinls.obj
 0002:00004a38       ??_C@_1M@IGEOFBG@?$AAe?$AAn?$AA?9?$AAN?$AAZ?$AA?$AA@ 0000000180040a38     libcpmt:winapinls.obj
 0002:00004a48       ??_C@_1M@KDBONEHP@?$AAe?$AAs?$AA?9?$AAC?$AAR?$AA?$AA@ 0000000180040a48     libcpmt:winapinls.obj
 0002:00004a58       ??_C@_1M@FHMDOHNN@?$AAf?$AAr?$AA?9?$AAL?$AAU?$AA?$AA@ 0000000180040a58     libcpmt:winapinls.obj
 0002:00004a68       ??_C@_1BG@NFKKMAFG@?$AAb?$AAs?$AA?9?$AAB?$AAA?$AA?9?$AAL?$AAa?$AAt?$AAn?$AA?$AA@ 0000000180040a68     libcpmt:winapinls.obj
 0002:00004a80       ??_C@_1O@IMNBEMCI@?$AAs?$AAm?$AAj?$AA?9?$AAS?$AAE?$AA?$AA@ 0000000180040a80     libcpmt:winapinls.obj
 0002:00004a90       ??_C@_1M@DHHMBNDP@?$AAa?$AAr?$AA?9?$AAM?$AAA?$AA?$AA@ 0000000180040a90     libcpmt:winapinls.obj
 0002:00004aa0       ??_C@_1M@BNBLJCGH@?$AAe?$AAn?$AA?9?$AAI?$AAE?$AA?$AA@ 0000000180040aa0     libcpmt:winapinls.obj
 0002:00004ab0       ??_C@_1M@GEPAFMDL@?$AAe?$AAs?$AA?9?$AAP?$AAA?$AA?$AA@ 0000000180040ab0     libcpmt:winapinls.obj
 0002:00004ac0       ??_C@_1M@OJONDMDL@?$AAf?$AAr?$AA?9?$AAM?$AAC?$AA?$AA@ 0000000180040ac0     libcpmt:winapinls.obj
 0002:00004ad0       ??_C@_1BG@OBCNFJB@?$AAs?$AAr?$AA?9?$AAB?$AAA?$AA?9?$AAL?$AAa?$AAt?$AAn?$AA?$AA@ 0000000180040ad0     libcpmt:winapinls.obj
 0002:00004ae8       ??_C@_1O@KEMEEGPO@?$AAs?$AAm?$AAa?$AA?9?$AAN?$AAO?$AA?$AA@ 0000000180040ae8     libcpmt:winapinls.obj
 0002:00004af8       ??_C@_1M@ELMGFODK@?$AAa?$AAr?$AA?9?$AAT?$AAN?$AA?$AA@ 0000000180040af8     libcpmt:winapinls.obj
 0002:00004b08       ??_C@_1M@BHDLHFAF@?$AAe?$AAn?$AA?9?$AAZ?$AAA?$AA?$AA@ 0000000180040b08     libcpmt:winapinls.obj
 0002:00004b18       ??_C@_1M@BMGIGLIF@?$AAe?$AAs?$AA?9?$AAD?$AAO?$AA?$AA@ 0000000180040b18     libcpmt:winapinls.obj
 0002:00004b28       ??_C@_1BG@CMBHIPBE@?$AAs?$AAr?$AA?9?$AAB?$AAA?$AA?9?$AAC?$AAy?$AAr?$AAl?$AA?$AA@ 0000000180040b28     libcpmt:winapinls.obj
 0002:00004b40       ??_C@_1O@HEDBLHNP@?$AAs?$AAm?$AAa?$AA?9?$AAS?$AAE?$AA?$AA@ 0000000180040b40     libcpmt:winapinls.obj
 0002:00004b50       ??_C@_1M@DAGCADIM@?$AAa?$AAr?$AA?9?$AAO?$AAM?$AA?$AA@ 0000000180040b50     libcpmt:winapinls.obj
 0002:00004b60       ??_C@_1M@FODLMICG@?$AAe?$AAn?$AA?9?$AAJ?$AAM?$AA?$AA@ 0000000180040b60     libcpmt:winapinls.obj
 0002:00004b70       ??_C@_1M@DNMLCIHB@?$AAe?$AAs?$AA?9?$AAV?$AAE?$AA?$AA@ 0000000180040b70     libcpmt:winapinls.obj
 0002:00004b80       ??_C@_1O@EOKHMKJK@?$AAs?$AAm?$AAs?$AA?9?$AAF?$AAI?$AA?$AA@ 0000000180040b80     libcpmt:winapinls.obj
 0002:00004b90       ??_C@_1M@CAFJMKOF@?$AAa?$AAr?$AA?9?$AAY?$AAE?$AA?$AA@ 0000000180040b90     libcpmt:winapinls.obj
 0002:00004ba0       ??_C@_1M@CBFHIJLI@?$AAe?$AAn?$AA?9?$AAC?$AAB?$AA?$AA@ 0000000180040ba0     libcpmt:winapinls.obj
 0002:00004bb0       ??_C@_1M@BGNFLDN@?$AAe?$AAs?$AA?9?$AAC?$AAO?$AA?$AA@ 0000000180040bb0     libcpmt:winapinls.obj
 0002:00004bc0       ??_C@_1O@JMPHMAMC@?$AAs?$AAm?$AAn?$AA?9?$AAF?$AAI?$AA?$AA@ 0000000180040bc0     libcpmt:winapinls.obj
 0002:00004bd0       ??_C@_1M@JLANABKE@?$AAa?$AAr?$AA?9?$AAS?$AAY?$AA?$AA@ 0000000180040bd0     libcpmt:winapinls.obj
 0002:00004be0       ??_C@_1M@HPKGCFGN@?$AAe?$AAn?$AA?9?$AAB?$AAZ?$AA?$AA@ 0000000180040be0     libcpmt:winapinls.obj
 0002:00004bf0       ??_C@_1M@OLJCMLGM@?$AAe?$AAs?$AA?9?$AAP?$AAE?$AA?$AA@ 0000000180040bf0     libcpmt:winapinls.obj
 0002:00004c00       ??_C@_1M@MKKGFKLE@?$AAa?$AAr?$AA?9?$AAJ?$AAO?$AA?$AA@ 0000000180040c00     libcpmt:winapinls.obj
 0002:00004c10       ??_C@_1M@EKPGLDNI@?$AAe?$AAn?$AA?9?$AAT?$AAT?$AA?$AA@ 0000000180040c10     libcpmt:winapinls.obj
 0002:00004c20       ??_C@_1M@OONGHFHE@?$AAe?$AAs?$AA?9?$AAA?$AAR?$AA?$AA@ 0000000180040c20     libcpmt:winapinls.obj
 0002:00004c30       ??_C@_1M@OOJFGBHE@?$AAa?$AAr?$AA?9?$AAL?$AAB?$AA?$AA@ 0000000180040c30     libcpmt:winapinls.obj
 0002:00004c40       ??_C@_1M@GCEJHNEG@?$AAe?$AAn?$AA?9?$AAZ?$AAW?$AA?$AA@ 0000000180040c40     libcpmt:winapinls.obj
 0002:00004c50       ??_C@_1M@JNOCAHJI@?$AAe?$AAs?$AA?9?$AAE?$AAC?$AA?$AA@ 0000000180040c50     libcpmt:winapinls.obj
 0002:00004c60       ??_C@_1M@JEFHPGGB@?$AAa?$AAr?$AA?9?$AAK?$AAW?$AA?$AA@ 0000000180040c60     libcpmt:winapinls.obj
 0002:00004c70       ??_C@_1M@MLKIBJOJ@?$AAe?$AAn?$AA?9?$AAP?$AAH?$AA?$AA@ 0000000180040c70     libcpmt:winapinls.obj
 0002:00004c80       ??_C@_1M@BDNIPEND@?$AAe?$AAs?$AA?9?$AAC?$AAL?$AA?$AA@ 0000000180040c80     libcpmt:winapinls.obj
 0002:00004c90       ??_C@_1M@MPNMEKBD@?$AAa?$AAr?$AA?9?$AAA?$AAE?$AA?$AA@ 0000000180040c90     libcpmt:winapinls.obj
 0002:00004ca0       ??_C@_1M@KBJALCPI@?$AAe?$AAs?$AA?9?$AAU?$AAY?$AA?$AA@ 0000000180040ca0     libcpmt:winapinls.obj
 0002:00004cb0       ??_C@_1M@LLCCOAGA@?$AAa?$AAr?$AA?9?$AAB?$AAH?$AA?$AA@ 0000000180040cb0     libcpmt:winapinls.obj
 0002:00004cc0       ??_C@_1M@PBFNCDEL@?$AAe?$AAs?$AA?9?$AAP?$AAY?$AA?$AA@ 0000000180040cc0     libcpmt:winapinls.obj
 0002:00004cd0       ??_C@_1M@EDGINPNP@?$AAa?$AAr?$AA?9?$AAQ?$AAA?$AA?$AA@ 0000000180040cd0     libcpmt:winapinls.obj
 0002:00004ce0       ??_C@_1M@MKDBIIJI@?$AAe?$AAs?$AA?9?$AAB?$AAO?$AA?$AA@ 0000000180040ce0     libcpmt:winapinls.obj
 0002:00004cf0       ??_C@_1M@CPKKEBLD@?$AAe?$AAs?$AA?9?$AAS?$AAV?$AA?$AA@ 0000000180040cf0     libcpmt:winapinls.obj
 0002:00004d00       ??_C@_1M@NDBGMMJL@?$AAe?$AAs?$AA?9?$AAH?$AAN?$AA?$AA@ 0000000180040d00     libcpmt:winapinls.obj
 0002:00004d10       ??_C@_1M@JIJIBHDP@?$AAe?$AAs?$AA?9?$AAN?$AAI?$AA?$AA@ 0000000180040d10     libcpmt:winapinls.obj
 0002:00004d20       ??_C@_1M@CGFMKEEK@?$AAe?$AAs?$AA?9?$AAP?$AAR?$AA?$AA@ 0000000180040d20     libcpmt:winapinls.obj
 0002:00004d30       ??_C@_1O@ICJHKIIK@?$AAz?$AAh?$AA?9?$AAC?$AAH?$AAT?$AA?$AA@ 0000000180040d30     libcpmt:winapinls.obj
 0002:00004d40       ??_C@_15CLNEJCE@?$AAs?$AAr?$AA?$AA@ 0000000180040d40     libcpmt:winapinls.obj
 0002:00004d48       ??_C@_1M@KAHEKEIG@?$AAa?$AAf?$AA?9?$AAz?$AAa?$AA?$AA@ 0000000180040d48     libcpmt:winapinls.obj
 0002:00004d58       ??_C@_1M@GIECOABL@?$AAa?$AAr?$AA?9?$AAa?$AAe?$AA?$AA@ 0000000180040d58     libcpmt:winapinls.obj
 0002:00004d68       ??_C@_1M@BMLMEKGI@?$AAa?$AAr?$AA?9?$AAb?$AAh?$AA?$AA@ 0000000180040d68     libcpmt:winapinls.obj
 0002:00004d78       ??_C@_1M@DAPFDGGB@?$AAa?$AAr?$AA?9?$AAd?$AAz?$AA?$AA@ 0000000180040d78     libcpmt:winapinls.obj
 0002:00004d88       ??_C@_1M@FJNKGKIG@?$AAa?$AAr?$AA?9?$AAe?$AAg?$AA?$AA@ 0000000180040d88     libcpmt:winapinls.obj
 0002:00004d98       ??_C@_1M@FLGKKCLO@?$AAa?$AAr?$AA?9?$AAi?$AAq?$AA?$AA@ 0000000180040d98     libcpmt:winapinls.obj
 0002:00004da8       ??_C@_1M@GNDIPALM@?$AAa?$AAr?$AA?9?$AAj?$AAo?$AA?$AA@ 0000000180040da8     libcpmt:winapinls.obj
 0002:00004db8       ??_C@_1M@DDMJFMGJ@?$AAa?$AAr?$AA?9?$AAk?$AAw?$AA?$AA@ 0000000180040db8     libcpmt:winapinls.obj
 0002:00004dc8       ??_C@_1M@EJALMLHM@?$AAa?$AAr?$AA?9?$AAl?$AAb?$AA?$AA@ 0000000180040dc8     libcpmt:winapinls.obj
 0002:00004dd8       ??_C@_1M@MOBDBLOC@?$AAa?$AAr?$AA?9?$AAl?$AAy?$AA?$AA@ 0000000180040dd8     libcpmt:winapinls.obj
 0002:00004de8       ??_C@_1M@JAOCLHDH@?$AAa?$AAr?$AA?9?$AAm?$AAa?$AA?$AA@ 0000000180040de8     libcpmt:winapinls.obj
 0002:00004df8       ??_C@_1M@JHPMKJIE@?$AAa?$AAr?$AA?9?$AAo?$AAm?$AA?$AA@ 0000000180040df8     libcpmt:winapinls.obj
 0002:00004e08       ??_C@_1M@OEPGHFNH@?$AAa?$AAr?$AA?9?$AAq?$AAa?$AA?$AA@ 0000000180040e08     libcpmt:winapinls.obj
 0002:00004e18       ??_C@_1M@KJDONENM@?$AAa?$AAr?$AA?9?$AAs?$AAa?$AA?$AA@ 0000000180040e18     libcpmt:winapinls.obj
 0002:00004e28       ??_C@_1M@DMJDKLKM@?$AAa?$AAr?$AA?9?$AAs?$AAy?$AA?$AA@ 0000000180040e28     libcpmt:winapinls.obj
 0002:00004e38       ??_C@_1M@OMFIPEDC@?$AAa?$AAr?$AA?9?$AAt?$AAn?$AA?$AA@ 0000000180040e38     libcpmt:winapinls.obj
 0002:00004e48       ??_C@_1M@IHMHGAON@?$AAa?$AAr?$AA?9?$AAy?$AAe?$AA?$AA@ 0000000180040e48     libcpmt:winapinls.obj
 0002:00004e58       ??_C@_1BG@KDCPGJGB@?$AAa?$AAz?$AA?9?$AAa?$AAz?$AA?9?$AAc?$AAy?$AAr?$AAl?$AA?$AA@ 0000000180040e58     libcpmt:winapinls.obj
 0002:00004e70       ??_C@_1BG@IBCKDDOE@?$AAa?$AAz?$AA?9?$AAa?$AAz?$AA?9?$AAl?$AAa?$AAt?$AAn?$AA?$AA@ 0000000180040e70     libcpmt:winapinls.obj
 0002:00004e88       ??_C@_1M@EGPFDCPD@?$AAb?$AAe?$AA?9?$AAb?$AAy?$AA?$AA@ 0000000180040e88     libcpmt:winapinls.obj
 0002:00004e98       ??_C@_1M@PCMGMCGC@?$AAb?$AAg?$AA?9?$AAb?$AAg?$AA?$AA@ 0000000180040e98     libcpmt:winapinls.obj
 0002:00004ea8       ??_C@_1M@BJBMFGOB@?$AAb?$AAn?$AA?9?$AAi?$AAn?$AA?$AA@ 0000000180040ea8     libcpmt:winapinls.obj
 0002:00004eb8       ??_C@_1BG@EAKMMACD@?$AAb?$AAs?$AA?9?$AAb?$AAa?$AA?9?$AAl?$AAa?$AAt?$AAn?$AA?$AA@ 0000000180040eb8     libcpmt:winapinls.obj
 0002:00004ed0       ??_C@_1M@KGADAODK@?$AAc?$AAa?$AA?9?$AAe?$AAs?$AA?$AA@ 0000000180040ed0     libcpmt:winapinls.obj
 0002:00004ee0       ??_C@_1M@COAJPDHI@?$AAc?$AAs?$AA?9?$AAc?$AAz?$AA?$AA@ 0000000180040ee0     libcpmt:winapinls.obj
 0002:00004ef0       ??_C@_1M@DHBHFONH@?$AAc?$AAy?$AA?9?$AAg?$AAb?$AA?$AA@ 0000000180040ef0     libcpmt:winapinls.obj
 0002:00004f00       ??_C@_1M@IMGKELGA@?$AAd?$AAa?$AA?9?$AAd?$AAk?$AA?$AA@ 0000000180040f00     libcpmt:winapinls.obj
 0002:00004f10       ??_C@_1M@NNDGDNGA@?$AAd?$AAe?$AA?9?$AAa?$AAt?$AA?$AA@ 0000000180040f10     libcpmt:winapinls.obj
 0002:00004f20       ??_C@_1M@IKDBHEEM@?$AAd?$AAe?$AA?9?$AAc?$AAh?$AA?$AA@ 0000000180040f20     libcpmt:winapinls.obj
 0002:00004f30       ??_C@_1M@GFFOJMCJ@?$AAd?$AAe?$AA?9?$AAd?$AAe?$AA?$AA@ 0000000180040f30     libcpmt:winapinls.obj
 0002:00004f40       ??_C@_1M@MDNLKBPM@?$AAd?$AAe?$AA?9?$AAl?$AAi?$AA?$AA@ 0000000180040f40     libcpmt:winapinls.obj
 0002:00004f50       ??_C@_1M@NJBEEJNL@?$AAd?$AAe?$AA?9?$AAl?$AAu?$AA?$AA@ 0000000180040f50     libcpmt:winapinls.obj
 0002:00004f60       ??_C@_1O@GNNELBAP@?$AAd?$AAi?$AAv?$AA?9?$AAm?$AAv?$AA?$AA@ 0000000180040f60     libcpmt:winapinls.obj
 0002:00004f70       ??_C@_1M@EJLEOGAE@?$AAe?$AAl?$AA?9?$AAg?$AAr?$AA?$AA@ 0000000180040f70     libcpmt:winapinls.obj
 0002:00004f80       ??_C@_1M@GMPONJN@?$AAe?$AAn?$AA?9?$AAa?$AAu?$AA?$AA@ 0000000180040f80     libcpmt:winapinls.obj
 0002:00004f90       ??_C@_1M@NIDIIPGF@?$AAe?$AAn?$AA?9?$AAb?$AAz?$AA?$AA@ 0000000180040f90     libcpmt:winapinls.obj
 0002:00004fa0       ??_C@_1M@JEHMIMFO@?$AAe?$AAn?$AA?9?$AAc?$AAa?$AA?$AA@ 0000000180040fa0     libcpmt:winapinls.obj
 0002:00004fb0       ??_C@_1M@IGMJCDLA@?$AAe?$AAn?$AA?9?$AAc?$AAb?$AA?$AA@ 0000000180040fb0     libcpmt:winapinls.obj
 0002:00004fc0       ??_C@_1M@BNFIGBKG@?$AAe?$AAn?$AA?9?$AAg?$AAb?$AA?$AA@ 0000000180040fc0     libcpmt:winapinls.obj
 0002:00004fd0       ??_C@_1M@LKIFDIGP@?$AAe?$AAn?$AA?9?$AAi?$AAe?$AA?$AA@ 0000000180040fd0     libcpmt:winapinls.obj
 0002:00004fe0       ??_C@_1M@PJKFGCCO@?$AAe?$AAn?$AA?9?$AAj?$AAm?$AA?$AA@ 0000000180040fe0     libcpmt:winapinls.obj
 0002:00004ff0       ??_C@_1M@KPPKEPBO@?$AAe?$AAn?$AA?9?$AAn?$AAz?$AA?$AA@ 0000000180040ff0     libcpmt:winapinls.obj
 0002:00005000       ??_C@_1M@GMDGLDOB@?$AAe?$AAn?$AA?9?$AAp?$AAh?$AA?$AA@ 0000000180041000     libcpmt:winapinls.obj
 0002:00005010       ??_C@_1M@ONGIBJNA@?$AAe?$AAn?$AA?9?$AAt?$AAt?$AA?$AA@ 0000000180041010     libcpmt:winapinls.obj
 0002:00005020       ??_C@_1M@LLODPCMM@?$AAe?$AAn?$AA?9?$AAu?$AAs?$AA?$AA@ 0000000180041020     libcpmt:winapinls.obj
 0002:00005030       ??_C@_1M@LAKFNPAN@?$AAe?$AAn?$AA?9?$AAz?$AAa?$AA?$AA@ 0000000180041030     libcpmt:winapinls.obj
 0002:00005040       ??_C@_1M@MFNHNHEO@?$AAe?$AAn?$AA?9?$AAz?$AAw?$AA?$AA@ 0000000180041040     libcpmt:winapinls.obj
 0002:00005050       ??_C@_1M@EJEINPHM@?$AAe?$AAs?$AA?9?$AAa?$AAr?$AA?$AA@ 0000000180041050     libcpmt:winapinls.obj
 0002:00005060       ??_C@_1M@GNKPCCJA@?$AAe?$AAs?$AA?9?$AAb?$AAo?$AA?$AA@ 0000000180041060     libcpmt:winapinls.obj
 0002:00005070       ??_C@_1M@LEEGFONL@?$AAe?$AAs?$AA?9?$AAc?$AAl?$AA?$AA@ 0000000180041070     libcpmt:winapinls.obj
 0002:00005080       ??_C@_1M@KGPDPBDF@?$AAe?$AAs?$AA?9?$AAc?$AAo?$AA?$AA@ 0000000180041080     libcpmt:winapinls.obj
 0002:00005090       ??_C@_1M@EIAHOHH@?$AAe?$AAs?$AA?9?$AAc?$AAr?$AA?$AA@ 0000000180041090     libcpmt:winapinls.obj
 0002:000050a0       ??_C@_1M@LLPGMBIN@?$AAe?$AAs?$AA?9?$AAd?$AAo?$AA?$AA@ 00000001800410a0     libcpmt:winapinls.obj
 0002:000050b0       ??_C@_1M@DKHMKNJA@?$AAe?$AAs?$AA?9?$AAe?$AAc?$AA?$AA@ 00000001800410b0     libcpmt:winapinls.obj
 0002:000050c0       ??_C@_1M@GKGFPKAP@?$AAe?$AAs?$AA?9?$AAe?$AAs?$AA?$AA@ 00000001800410c0     libcpmt:winapinls.obj
 0002:000050d0       ??_C@_1M@LKHKGDLN@?$AAe?$AAs?$AA?9?$AAg?$AAt?$AA?$AA@ 00000001800410d0     libcpmt:winapinls.obj
 0002:000050e0       ??_C@_1M@HEIIGGJD@?$AAe?$AAs?$AA?9?$AAh?$AAn?$AA?$AA@ 00000001800410e0     libcpmt:winapinls.obj
 0002:000050f0       ??_C@_1M@FBDHPPGD@?$AAe?$AAs?$AA?9?$AAm?$AAx?$AA?$AA@ 00000001800410f0     libcpmt:winapinls.obj
 0002:00005100       ??_C@_1M@DPAGLNDH@?$AAe?$AAs?$AA?9?$AAn?$AAi?$AA?$AA@ 0000000180041100     libcpmt:winapinls.obj
 0002:00005110       ??_C@_1M@MDGOPGDD@?$AAe?$AAs?$AA?9?$AAp?$AAa?$AA?$AA@ 0000000180041110     libcpmt:winapinls.obj
 0002:00005120       ??_C@_1M@EMAMGBGE@?$AAe?$AAs?$AA?9?$AAp?$AAe?$AA?$AA@ 0000000180041120     libcpmt:winapinls.obj
 0002:00005130       ??_C@_1M@IBMCAOEC@?$AAe?$AAs?$AA?9?$AAp?$AAr?$AA?$AA@ 0000000180041130     libcpmt:winapinls.obj
 0002:00005140       ??_C@_1M@FGMDIJED@?$AAe?$AAs?$AA?9?$AAp?$AAy?$AA?$AA@ 0000000180041140     libcpmt:winapinls.obj
 0002:00005150       ??_C@_1M@IIDEOLLL@?$AAe?$AAs?$AA?9?$AAs?$AAv?$AA?$AA@ 0000000180041150     libcpmt:winapinls.obj
 0002:00005160       ??_C@_1M@GAOBIPA@?$AAe?$AAs?$AA?9?$AAu?$AAy?$AA?$AA@ 0000000180041160     libcpmt:winapinls.obj
 0002:00005178       ??_7type_info@@6B@         0000000180041178     LIBCMT:std_type_info_static.obj
 0002:00005180       _pDefaultRawDllMain        0000000180041180     LIBCMT:dll_dllmain.obj
 0002:00005180       _pRawDllMain               0000000180041180     LIBCMT:dll_dllmain.obj
 0002:000051a0       ??_7bad_array_new_length@std@@6B@ 00000001800411a0     LIBCMT:throw_bad_alloc.obj
 0002:000051b0       ??_C@_0BF@KINCDENJ@bad?5array?5new?5length?$AA@ 00000001800411b0     LIBCMT:throw_bad_alloc.obj
 0002:00005210       _pDestructExceptionObject  0000000180041210     libvcruntime:frame.obj
 0002:00005220       ??_7bad_exception@std@@6B@ 0000000180041220     libvcruntime:frame.obj
 0002:00005230       ??_C@_0O@DPKOEFFH@bad?5exception?$AA@ 0000000180041230     libvcruntime:frame.obj
 0002:000052f8       ??_C@_1BC@DNHGCMLG@?$AAa?$AAd?$AAv?$AAa?$AAp?$AAi?$AA3?$AA2?$AA?$AA@ 00000001800412f8     libvcruntime:winapi_downlevel.obj
 0002:00005310       ??_C@_1DM@KHCHBNEB@?$AAa?$AAp?$AAi?$AA?9?$AAm?$AAs?$AA?9?$AAw?$AAi?$AAn?$AA?9?$AAc?$AAo?$AAr?$AAe?$AA?9?$AAf?$AAi?$AAb?$AAe?$AAr?$AAs?$AA?9?$AAl?$AA1?$AA?9?$AA1?$AA?9?$AA1?$AA?$AA@ 0000000180041310     libvcruntime:winapi_downlevel.obj
 0002:00005350       ??_C@_1DK@LPPGFMPP@?$AAa?$AAp?$AAi?$AA?9?$AAm?$AAs?$AA?9?$AAw?$AAi?$AAn?$AA?9?$AAc?$AAo?$AAr?$AAe?$AA?9?$AAs?$AAy?$AAn?$AAc?$AAh?$AA?9?$AAl?$AA1?$AA?9?$AA2?$AA?9?$AA0?$AA?$AA@ 0000000180041350     libvcruntime:winapi_downlevel.obj
 0002:00005390       ??_C@_1BC@GDMECMAK@?$AAk?$AAe?$AAr?$AAn?$AAe?$AAl?$AA3?$AA2?$AA?$AA@ 0000000180041390     libvcruntime:winapi_downlevel.obj
 0002:000056f0       ??_C@_08EHJDFFNH@__based?$CI?$AA@ 00000001800416f0     libvcruntime:undname.obj
 0002:00005700       ??_C@_07KOLFKCDI@__cdecl?$AA@ 0000000180041700     libvcruntime:undname.obj
 0002:00005708       ??_C@_08GHMPAG@__pascal?$AA@ 0000000180041708     libvcruntime:undname.obj
 0002:00005718       ??_C@_09IFJBGAPI@__stdcall?$AA@ 0000000180041718     libvcruntime:undname.obj
 0002:00005728       ??_C@_0L@NPHFGOKO@__thiscall?$AA@ 0000000180041728     libvcruntime:undname.obj
 0002:00005738       ??_C@_0L@JMKHOMEK@__fastcall?$AA@ 0000000180041738     libvcruntime:undname.obj
 0002:00005748       ??_C@_0N@BCKKPABJ@__vectorcall?$AA@ 0000000180041748     libvcruntime:undname.obj
 0002:00005758       ??_C@_09HIJEGCPM@__clrcall?$AA@ 0000000180041758     libvcruntime:undname.obj
 0002:00005764       ??_C@_06GHPCKEAG@__eabi?$AA@ 0000000180041764     libvcruntime:undname.obj
 0002:00005770       ??_C@_07JOMMBBKO@__ptr64?$AA@ 0000000180041770     libvcruntime:undname.obj
 0002:00005778       ??_C@_0L@PILCLIHE@__restrict?$AA@ 0000000180041778     libvcruntime:undname.obj
 0002:00005788       ??_C@_0M@GFIIJFMG@__unaligned?$AA@ 0000000180041788     libvcruntime:undname.obj
 0002:00005798       ??_C@_09DHDLOLLB@restrict?$CI?$AA@ 0000000180041798     libvcruntime:undname.obj
 0002:000057a4       ??_C@_04NIHEBCM@?5new?$AA@ 00000001800417a4     libvcruntime:undname.obj
 0002:000057b0       ??_C@_07FPCDHGMM@?5delete?$AA@ 00000001800417b0     libvcruntime:undname.obj
 0002:000057b8       ??_C@_01NEMOKFLO@?$DN?$AA@ 00000001800417b8     libvcruntime:undname.obj
 0002:000057bc       ??_C@_02GPIOPFAK@?$DO?$DO?$AA@ 00000001800417bc     libvcruntime:undname.obj
 0002:000057c0       ??_C@_02FODMEDOG@?$DM?$DM?$AA@ 00000001800417c0     libvcruntime:undname.obj
 0002:000057c4       ??_C@_01DCLJPIOD@?$CB?$AA@ 00000001800417c4     libvcruntime:undname.obj
 0002:000057c8       ??_C@_02EGOFBIJA@?$DN?$DN?$AA@ 00000001800417c8     libvcruntime:undname.obj
 0002:000057cc       ??_C@_02FDNJECIE@?$CB?$DN?$AA@ 00000001800417cc     libvcruntime:undname.obj
 0002:000057d0       ??_C@_02GPECMEKF@?$FL?$FN?$AA@ 00000001800417d0     libvcruntime:undname.obj
 0002:000057d8       ??_C@_08LHJFAFGD@operator?$AA@ 00000001800417d8     libvcruntime:undname.obj
 0002:000057e4       ??_C@_02HBOOOICD@?9?$DO?$AA@ 00000001800417e4     libvcruntime:undname.obj
 0002:000057e8       ??_C@_02ECNGHCIF@?$CL?$CL?$AA@ 00000001800417e8     libvcruntime:undname.obj
 0002:000057ec       ??_C@_02BAABKJLB@?9?9?$AA@ 00000001800417ec     libvcruntime:undname.obj
 0002:000057f0       ??_C@_01MIFGBAGJ@?$CL?$AA@ 00000001800417f0     libvcruntime:undname.obj
 0002:000057f4       ??_C@_01HNPIGOCE@?$CG?$AA@ 00000001800417f4     libvcruntime:undname.obj
 0002:000057f8       ??_C@_03MNHNFDLC@?9?$DO?$CK?$AA@ 00000001800417f8     libvcruntime:undname.obj
 0002:000057fc       ??_C@_01KMDKNFGN@?1?$AA@   00000001800417fc     libvcruntime:undname.obj
 0002:00005800       ??_C@_01FGNFDNOH@?$CF?$AA@ 0000000180041800     libvcruntime:undname.obj
 0002:00005804       ??_C@_01MNNFJEPP@?$DM?$AA@ 0000000180041804     libvcruntime:undname.obj
 0002:00005808       ??_C@_02EHCHHCKH@?$DM?$DN?$AA@ 0000000180041808     libvcruntime:undname.obj
 0002:0000580c       ??_C@_01PPODPGHN@?$DO?$AA@ 000000018004180c     libvcruntime:undname.obj
 0002:00005810       ??_C@_02EEKDKGMJ@?$DO?$DN?$AA@ 0000000180041810     libvcruntime:undname.obj
 0002:00005814       ??_C@_01IHBHIGKO@?0?$AA@   0000000180041814     libvcruntime:undname.obj
 0002:00005818       ??_C@_02HCKGKOFO@?$CI?$CJ?$AA@ 0000000180041818     libvcruntime:undname.obj
 0002:0000581c       ??_C@_01PJKLJHI@?$HO?$AA@  000000018004181c     libvcruntime:undname.obj
 0002:00005820       ??_C@_01JKBOJNNK@?$FO?$AA@ 0000000180041820     libvcruntime:undname.obj
 0002:00005824       ??_C@_01DNKMNLPK@?$HM?$AA@ 0000000180041824     libvcruntime:undname.obj
 0002:00005828       ??_C@_02PPKAJPJL@?$CG?$CG?$AA@ 0000000180041828     libvcruntime:undname.obj
 0002:0000582c       ??_C@_02NONPIBCD@?$HM?$HM?$AA@ 000000018004182c     libvcruntime:undname.obj
 0002:00005830       ??_C@_02FPIMKNGF@?$CK?$DN?$AA@ 0000000180041830     libvcruntime:undname.obj
 0002:00005834       ??_C@_02FOEOMHFC@?$CL?$DN?$AA@ 0000000180041834     libvcruntime:undname.obj
 0002:00005838       ??_C@_02FKMDLLOA@?9?$DN?$AA@ 0000000180041838     libvcruntime:undname.obj
 0002:0000583c       ??_C@_02FJEHGPIO@?1?$DN?$AA@ 000000018004183c     libvcruntime:undname.obj
 0002:00005840       ??_C@_02FENAOKFI@?$CF?$DN?$AA@ 0000000180041840     libvcruntime:undname.obj
 0002:00005844       ??_C@_03IKFCCPFF@?$DO?$DO?$DN?$AA@ 0000000180041844     libvcruntime:undname.obj
 0002:00005848       ??_C@_03CDNPDDLA@?$DM?$DM?$DN?$AA@ 0000000180041848     libvcruntime:undname.obj
 0002:0000584c       ??_C@_02FGJGFEAB@?$CG?$DN?$AA@ 000000018004184c     libvcruntime:undname.obj
 0002:00005850       ??_C@_02DHLNPPGH@?$HM?$DN?$AA@ 0000000180041850     libvcruntime:undname.obj
 0002:00005854       ??_C@_02MHEGNOJ@?$FO?$DN?$AA@ 0000000180041854     libvcruntime:undname.obj
 0002:00005858       ??_C@_09IFPLHPGF@?$GAvftable?8?$AA@ 0000000180041858     libvcruntime:undname.obj
 0002:00005868       ??_C@_09BLBHBJP@?$GAvbtable?8?$AA@ 0000000180041868     libvcruntime:undname.obj
 0002:00005878       ??_C@_07FEEIOKP@?$GAvcall?8?$AA@ 0000000180041878     libvcruntime:undname.obj
 0002:00005880       ??_C@_08LLFFHHDJ@?$GAtypeof?8?$AA@ 0000000180041880     libvcruntime:undname.obj
 0002:00005890       ??_C@_0BF@KDPPACIK@?$GAlocal?5static?5guard?8?$AA@ 0000000180041890     libvcruntime:undname.obj
 0002:000058a8       ??_C@_08OBABFOLI@?$GAstring?8?$AA@ 00000001800418a8     libvcruntime:undname.obj
 0002:000058b8       ??_C@_0BD@JDLKDPAB@?$GAvbase?5destructor?8?$AA@ 00000001800418b8     libvcruntime:undname.obj
 0002:000058d0       ??_C@_0BN@DEGPLNFK@?$GAvector?5deleting?5destructor?8?$AA@ 00000001800418d0     libvcruntime:undname.obj
 0002:000058f0       ??_C@_0BO@OBMKPJIG@?$GAdefault?5constructor?5closure?8?$AA@ 00000001800418f0     libvcruntime:undname.obj
 0002:00005910       ??_C@_0BN@IMDCHIKM@?$GAscalar?5deleting?5destructor?8?$AA@ 0000000180041910     libvcruntime:undname.obj
 0002:00005930       ??_C@_0BO@PFGOCPJJ@?$GAvector?5constructor?5iterator?8?$AA@ 0000000180041930     libvcruntime:undname.obj
 0002:00005950       ??_C@_0BN@LFPFMEDL@?$GAvector?5destructor?5iterator?8?$AA@ 0000000180041950     libvcruntime:undname.obj
 0002:00005970       ??_C@_0CE@IKBNEHA@?$GAvector?5vbase?5constructor?5iterat@ 0000000180041970     libvcruntime:undname.obj
 0002:00005998       ??_C@_0BL@NILFHHPC@?$GAvirtual?5displacement?5map?8?$AA@ 0000000180041998     libvcruntime:undname.obj
 0002:000059b8       ??_C@_0CB@JONCMFFK@?$GAeh?5vector?5constructor?5iterator?8@ 00000001800419b8     libvcruntime:undname.obj
 0002:000059e0       ??_C@_0CA@GCEOPDGL@?$GAeh?5vector?5destructor?5iterator?8?$AA@ 00000001800419e0     libvcruntime:undname.obj
 0002:00005a00       ??_C@_0CH@OOJPLCPH@?$GAeh?5vector?5vbase?5constructor?5ite@ 0000000180041a00     libvcruntime:undname.obj
 0002:00005a28       ??_C@_0BL@LLKPOHJI@?$GAcopy?5constructor?5closure?8?$AA@ 0000000180041a28     libvcruntime:undname.obj
 0002:00005a48       ??_C@_0BA@KBCDOMBN@?$GAudt?5returning?8?$AA@ 0000000180041a48     libvcruntime:undname.obj
 0002:00005a58       ??_C@_03KLGMFNMG@?$GAEH?$AA@ 0000000180041a58     libvcruntime:undname.obj
 0002:00005a5c       ??_C@_05KHLCHHI@?$GARTTI?$AA@ 0000000180041a5c     libvcruntime:undname.obj
 0002:00005a68       ??_C@_0BA@KKLDJDLB@?$GAlocal?5vftable?8?$AA@ 0000000180041a68     libvcruntime:undname.obj
 0002:00005a78       ??_C@_0CE@IIHCMGGL@?$GAlocal?5vftable?5constructor?5closu@ 0000000180041a78     libvcruntime:undname.obj
 0002:00005a9c       ??_C@_06FHBGPFGH@?5new?$FL?$FN?$AA@ 0000000180041a9c     libvcruntime:undname.obj
 0002:00005aa8       ??_C@_09LBNFPBCA@?5delete?$FL?$FN?$AA@ 0000000180041aa8     libvcruntime:undname.obj
 0002:00005ab8       ??_C@_0P@HJKNJFNN@?$GAomni?5callsig?8?$AA@ 0000000180041ab8     libvcruntime:undname.obj
 0002:00005ac8       ??_C@_0BL@CNOONJFP@?$GAplacement?5delete?5closure?8?$AA@ 0000000180041ac8     libvcruntime:undname.obj
 0002:00005ae8       ??_C@_0BN@CKNJLHMB@?$GAplacement?5delete?$FL?$FN?5closure?8?$AA@ 0000000180041ae8     libvcruntime:undname.obj
 0002:00005b08       ??_C@_0CG@CFDHKGGD@?$GAmanaged?5vector?5constructor?5iter@ 0000000180041b08     libvcruntime:undname.obj
 0002:00005b30       ??_C@_0CF@IMGKMJNO@?$GAmanaged?5vector?5destructor?5itera@ 0000000180041b30     libvcruntime:undname.obj
 0002:00005b58       ??_C@_0CG@HLDDJMAG@?$GAeh?5vector?5copy?5constructor?5iter@ 0000000180041b58     libvcruntime:undname.obj
 0002:00005b80       ??_C@_0CM@FCBBDIGB@?$GAeh?5vector?5vbase?5copy?5constructo@ 0000000180041b80     libvcruntime:undname.obj
 0002:00005bb0       ??_C@_0BL@CLIPGLGB@?$GAdynamic?5initializer?5for?5?8?$AA@ 0000000180041bb0     libvcruntime:undname.obj
 0002:00005bd0       ??_C@_0CB@PDBIFEP@?$GAdynamic?5atexit?5destructor?5for?5?8@ 0000000180041bd0     libvcruntime:undname.obj
 0002:00005bf8       ??_C@_0CD@CGAJBKEJ@?$GAvector?5copy?5constructor?5iterato@ 0000000180041bf8     libvcruntime:undname.obj
 0002:00005c20       ??_C@_0CJ@GJELGAMM@?$GAvector?5vbase?5copy?5constructor?5i@ 0000000180041c20     libvcruntime:undname.obj
 0002:00005c50       ??_C@_0CL@FGIJHLCE@?$GAmanaged?5vector?5copy?5constructor@ 0000000180041c50     libvcruntime:undname.obj
 0002:00005c80       ??_C@_0BM@PMGGMLDN@?$GAlocal?5static?5thread?5guard?8?$AA@ 0000000180041c80     libvcruntime:undname.obj
 0002:00005ca0       ??_C@_0N@BDNMDMOL@operator?5?$CC?$CC?5?$AA@ 0000000180041ca0     libvcruntime:undname.obj
 0002:00005cb0       ??_C@_0BC@DAFEJGAK@?5Type?5Descriptor?8?$AA@ 0000000180041cb0     libvcruntime:undname.obj
 0002:00005cc8       ??_C@_0BM@LDKODKLH@?5Base?5Class?5Descriptor?5at?5?$CI?$AA@ 0000000180041cc8     libvcruntime:undname.obj
 0002:00005ce8       ??_C@_0BD@LGICGFMM@?5Base?5Class?5Array?8?$AA@ 0000000180041ce8     libvcruntime:undname.obj
 0002:00005d00       ??_C@_0BN@MECKDCOJ@?5Class?5Hierarchy?5Descriptor?8?$AA@ 0000000180041d00     libvcruntime:undname.obj
 0002:00005d20       ??_C@_0BK@CFCOFLF@?5Complete?5Object?5Locator?8?$AA@ 0000000180041d20     libvcruntime:undname.obj
 0002:00005d40       ??_C@_1EK@MBDPDCGA@?$AAM?$AAi?$AAc?$AAr?$AAo?$AAs?$AAo?$AAf?$AAt?$AA?5?$AAV?$AAi?$AAs?$AAu?$AAa?$AAl?$AA?5?$AAC?$AA?$CL?$AA?$CL?$AA?5?$AAR?$AAu?$AAn?$AAt?$AAi?$AAm?$AAe?$AA?5?$AAL?$AAi?$AAb@ 0000000180041d40     libucrt:assert.obj
 0002:00005d90       ??_C@_1FE@LHBLIKM@?$AAA?$AAs?$AAs?$AAe?$AAr?$AAt?$AAi?$AAo?$AAn?$AA?5?$AAf?$AAa?$AAi?$AAl?$AAe?$AAd?$AA?3?$AA?5?$AA?$CF?$AAT?$AAs?$AA?0?$AA?5?$AAf?$AAi?$AAl?$AAe?$AA?5?$AA?$CF?$AAT?$AAs?$AA?0@ 0000000180041d90     libucrt:assert.obj
 0002:00005de8       ??_C@_1CE@OJBNHDMO@?$AAA?$AAs?$AAs?$AAe?$AAr?$AAt?$AAi?$AAo?$AAn?$AA?5?$AAf?$AAa?$AAi?$AAl?$AAe?$AAd?$AA?$CB?$AA?$AA@ 0000000180041de8     libucrt:assert.obj
 0002:00005e10       ??_C@_1BE@PHKBBGE@?$AAP?$AAr?$AAo?$AAg?$AAr?$AAa?$AAm?$AA?3?$AA?5?$AA?$AA@ 0000000180041e10     libucrt:assert.obj
 0002:00005e28       ??_C@_1O@HEMHKNDC@?$AAF?$AAi?$AAl?$AAe?$AA?3?$AA?5?$AA?$AA@ 0000000180041e28     libucrt:assert.obj
 0002:00005e38       ??_C@_1O@KCAFKHJE@?$AAL?$AAi?$AAn?$AAe?$AA?3?$AA?5?$AA?$AA@ 0000000180041e38     libucrt:assert.obj
 0002:00005e48       ??_C@_1BK@PEDCIPMA@?$AAE?$AAx?$AAp?$AAr?$AAe?$AAs?$AAs?$AAi?$AAo?$AAn?$AA?3?$AA?5?$AA?$AA@ 0000000180041e48     libucrt:assert.obj
 0002:00005e70       ??_C@_1OA@EGMLFBHJ@?$AAF?$AAo?$AAr?$AA?5?$AAi?$AAn?$AAf?$AAo?$AAr?$AAm?$AAa?$AAt?$AAi?$AAo?$AAn?$AA?5?$AAo?$AAn?$AA?5?$AAh?$AAo?$AAw?$AA?5?$AAy?$AAo?$AAu?$AAr?$AA?5?$AAp?$AAr?$AAo?$AAg@ 0000000180041e70     libucrt:assert.obj
 0002:00005f50       ??_C@_1HK@POCJMFGK@?$AA?$CI?$AAP?$AAr?$AAe?$AAs?$AAs?$AA?5?$AAR?$AAe?$AAt?$AAr?$AAy?$AA?5?$AAt?$AAo?$AA?5?$AAd?$AAe?$AAb?$AAu?$AAg?$AA?5?$AAt?$AAh?$AAe?$AA?5?$AAa?$AAp?$AAp?$AAl?$AAi?$AAc@ 0000000180041f50     libucrt:assert.obj
 0002:00005fd0       ??_C@_17LGKOMLJ@?$AA?4?$AA?4?$AA?4?$AA?$AA@ 0000000180041fd0     libucrt:assert.obj
 0002:00005fd8       ??_C@_13LBAGMAIH@?$AA?6?$AA?$AA@ 0000000180041fd8     libucrt:assert.obj
 0002:00005fdc       ??_C@_15IABLJNFO@?$AA?6?$AA?6?$AA?$AA@ 0000000180041fdc     libucrt:assert.obj
 0002:00005fe8       ??_C@_1CO@EAEJAADC@?$AA?$DM?$AAp?$AAr?$AAo?$AAg?$AAr?$AAa?$AAm?$AA?5?$AAn?$AAa?$AAm?$AAe?$AA?5?$AAu?$AAn?$AAk?$AAn?$AAo?$AAw?$AAn?$AA?$DO?$AA?$AA@ 0000000180041fe8     libucrt:assert.obj
 0002:00006020       standard_lookup_table      0000000180042020     libucrt:output.obj
 0002:0000607c       ??_C@_06OJHGLDPL@?$CInull?$CJ?$AA@ 000000018004207c     libucrt:output.obj
 0002:00006088       ??_C@_1O@CEDCILHN@?$AA?$CI?$AAn?$AAu?$AAl?$AAl?$AA?$CJ?$AA?$AA@ 0000000180042088     libucrt:output.obj
 0002:00006210       __newctype                 0000000180042210     libucrt:ctype.obj
 0002:00006510       __newclmap                 0000000180042510     libucrt:ctype.obj
 0002:00006690       __newcumap                 0000000180042690     libucrt:ctype.obj
 0002:00006810       _wctype                    0000000180042810     libucrt:ctype.obj
 0002:00006a20       ?large_power_data@?1??multiply_by_power_of_ten@__crt_strtox@@YA_NAEAUbig_integer@2@I@Z@4QBIB 0000000180042a20     libucrt:strtod.obj
 0002:00007330       ?large_power_indices@?1??multiply_by_power_of_ten@__crt_strtox@@YA_NAEAUbig_integer@2@I@Z@4QBUunpack_index@?1??12@YA_N0I@Z@B 0000000180043330     libucrt:strtod.obj
 0002:000073c8       ?small_powers_of_ten@?6??multiply_by_power_of_ten@__crt_strtox@@YA_NAEAUbig_integer@2@I@Z@4QBIB 00000001800433c8     libucrt:strtod.obj
 0002:000090a0       __acrt_exception_action_table 00000001800450a0     libucrt:exception_filter.obj
 0002:00009160       __acrt_signal_action_table_count 0000000180045160     libucrt:exception_filter.obj
 0002:00009168       __acrt_signal_action_first_fpe_index 0000000180045168     libucrt:exception_filter.obj
 0002:00009170       __acrt_signal_action_fpe_count 0000000180045170     libucrt:exception_filter.obj
 0002:00009178       ??_C@_1BI@BGOHAHKC@?$AAm?$AAs?$AAc?$AAo?$AAr?$AAe?$AAe?$AA?4?$AAd?$AAl?$AAl?$AA?$AA@ 0000000180045178     libucrt:exit.obj
 0002:00009190       ??_C@_0P@MIGLKIOC@CorExitProcess?$AA@ 0000000180045190     libucrt:exit.obj
 0002:00009290       ??_C@_03OEIAHPBN@INF?$AA@  0000000180045290     libucrt:cvt.obj
 0002:00009294       ??_C@_03OJHLLCGB@inf?$AA@  0000000180045294     libucrt:cvt.obj
 0002:00009298       ??_C@_03LKNCIKJB@NAN?$AA@  0000000180045298     libucrt:cvt.obj
 0002:0000929c       ??_C@_03LHCJEHON@nan?$AA@  000000018004529c     libucrt:cvt.obj
 0002:000092a0       ??_C@_09OFJJIMPC@NAN?$CISNAN?$CJ?$AA@ 00000001800452a0     libucrt:cvt.obj
 0002:000092b0       ??_C@_09IPFBKMDL@nan?$CIsnan?$CJ?$AA@ 00000001800452b0     libucrt:cvt.obj
 0002:000092c0       ??_C@_08IKHNHAJ@NAN?$CIIND?$CJ?$AA@ 00000001800452c0     libucrt:cvt.obj
 0002:000092d0       ??_C@_08OFCDMILK@nan?$CIind?$CJ?$AA@ 00000001800452d0     libucrt:cvt.obj
 0002:000092dc       ??_C@_05KLBDPFGC@e?$CL000?$AA@ 00000001800452dc     libucrt:cvt.obj
 0002:000092f0       __lc_category              00000001800452f0     libucrt:wsetlocale.obj
 0002:00009380       ??_C@_1O@GIFLHMA@?$AAL?$AAC?$AA_?$AAA?$AAL?$AAL?$AA?$AA@ 0000000180045380     libucrt:wsetlocale.obj
 0002:00009390       ??_C@_1BG@PPOMIBNJ@?$AAL?$AAC?$AA_?$AAC?$AAO?$AAL?$AAL?$AAA?$AAT?$AAE?$AA?$AA@ 0000000180045390     libucrt:wsetlocale.obj
 0002:000093a8       ??_C@_1BC@FFJGAPJM@?$AAL?$AAC?$AA_?$AAC?$AAT?$AAY?$AAP?$AAE?$AA?$AA@ 00000001800453a8     libucrt:wsetlocale.obj
 0002:000093c0       ??_C@_1BI@PCKFNJFB@?$AAL?$AAC?$AA_?$AAM?$AAO?$AAN?$AAE?$AAT?$AAA?$AAR?$AAY?$AA?$AA@ 00000001800453c0     libucrt:wsetlocale.obj
 0002:000093d8       ??_C@_1BG@ENIEDKID@?$AAL?$AAC?$AA_?$AAN?$AAU?$AAM?$AAE?$AAR?$AAI?$AAC?$AA?$AA@ 00000001800453d8     libucrt:wsetlocale.obj
 0002:000093f0       ??_C@_1BA@HAAOMIIG@?$AAL?$AAC?$AA_?$AAT?$AAI?$AAM?$AAE?$AA?$AA@ 00000001800453f0     libucrt:wsetlocale.obj
 0002:00009480       ??_C@_15NBPDDFIP@?$AA?$DN?$AA?$DL?$AA?$AA@ 0000000180045480     libucrt:wsetlocale.obj
 0002:00009488       ??_C@_13PJJBFPED@?$AA?$DL?$AA?$AA@ 0000000180045488     libucrt:wsetlocale.obj
 0002:0000948c       ??_C@_13NMPKAAJP@?$AA?$DN?$AA?$AA@ 000000018004548c     libucrt:wsetlocale.obj
 0002:00009490       ??_C@_13FHBKNHDA@?$AAC?$AA?$AA@ 0000000180045490     libucrt:wsetlocale.obj
 0002:00009498       ??_C@_17MBJJLFDM@?$AA_?$AA?4?$AA?0?$AA?$AA@ 0000000180045498     libucrt:wsetlocale.obj
 0002:000094a0       ??_C@_13ENNFDPBH@?$AA_?$AA?$AA@ 00000001800454a0     libucrt:wsetlocale.obj
 0002:000094a4       ??_C@_13JOFGPIOO@?$AA?4?$AA?$AA@ 00000001800454a4     libucrt:wsetlocale.obj
 0002:000094b0       __lc_time_c                00000001800454b0     libucrt:nlsdata.obj
 0002:00009770       ??_C@_03KOEHGMDN@Sun?$AA@  0000000180045770     libucrt:nlsdata.obj
 0002:00009774       ??_C@_03PDAGKDH@Mon?$AA@   0000000180045774     libucrt:nlsdata.obj
 0002:00009778       ??_C@_03NAGEINEP@Tue?$AA@  0000000180045778     libucrt:nlsdata.obj
 0002:0000977c       ??_C@_03MHOMLAJA@Wed?$AA@  000000018004577c     libucrt:nlsdata.obj
 0002:00009780       ??_C@_03IOFIKPDN@Thu?$AA@  0000000180045780     libucrt:nlsdata.obj
 0002:00009784       ??_C@_03IDIOELNC@Fri?$AA@  0000000180045784     libucrt:nlsdata.obj
 0002:00009788       ??_C@_03FEFJNEK@Sat?$AA@   0000000180045788     libucrt:nlsdata.obj
 0002:0000978c       ??_C@_06OOPIFAJ@Sunday?$AA@ 000000018004578c     libucrt:nlsdata.obj
 0002:00009794       ??_C@_06JLEDEDGH@Monday?$AA@ 0000000180045794     libucrt:nlsdata.obj
 0002:000097a0       ??_C@_07BAAGCFCM@Tuesday?$AA@ 00000001800457a0     libucrt:nlsdata.obj
 0002:000097a8       ??_C@_09DLIGFAKA@Wednesday?$AA@ 00000001800457a8     libucrt:nlsdata.obj
 0002:000097b8       ??_C@_08HACCIKIA@Thursday?$AA@ 00000001800457b8     libucrt:nlsdata.obj
 0002:000097c4       ??_C@_06JECMNKMI@Friday?$AA@ 00000001800457c4     libucrt:nlsdata.obj
 0002:000097d0       ??_C@_08INBOOONO@Saturday?$AA@ 00000001800457d0     libucrt:nlsdata.obj
 0002:000097dc       ??_C@_03JIHJHPIE@Jan?$AA@  00000001800457dc     libucrt:nlsdata.obj
 0002:000097e0       ??_C@_03HJBDCHOM@Feb?$AA@  00000001800457e0     libucrt:nlsdata.obj
 0002:000097e4       ??_C@_03ODNJBKGA@Mar?$AA@  00000001800457e4     libucrt:nlsdata.obj
 0002:000097e8       ??_C@_03LEOLGMJP@Apr?$AA@  00000001800457e8     libucrt:nlsdata.obj
 0002:000097ec       ??_C@_03CNMDKL@May?$AA@    00000001800457ec     libucrt:nlsdata.obj
 0002:000097f0       ??_C@_03IDFGHECI@Jun?$AA@  00000001800457f0     libucrt:nlsdata.obj
 0002:000097f4       ??_C@_03LBGABGKK@Jul?$AA@  00000001800457f4     libucrt:nlsdata.obj
 0002:000097f8       ??_C@_03IFJFEIGA@Aug?$AA@  00000001800457f8     libucrt:nlsdata.obj
 0002:000097fc       ??_C@_03GGCAPAJC@Sep?$AA@  00000001800457fc     libucrt:nlsdata.obj
 0002:00009800       ??_C@_03BMAOKBAD@Oct?$AA@  0000000180045800     libucrt:nlsdata.obj
 0002:00009804       ??_C@_03JPJOFNIA@Nov?$AA@  0000000180045804     libucrt:nlsdata.obj
 0002:00009808       ??_C@_03MKABNOCG@Dec?$AA@  0000000180045808     libucrt:nlsdata.obj
 0002:00009810       ??_C@_07CGJPFGJA@January?$AA@ 0000000180045810     libucrt:nlsdata.obj
 0002:00009818       ??_C@_08GNJGEPFN@February?$AA@ 0000000180045818     libucrt:nlsdata.obj
 0002:00009824       ??_C@_05HPCKOFNC@March?$AA@ 0000000180045824     libucrt:nlsdata.obj
 0002:0000982c       ??_C@_05DMJDNLEJ@April?$AA@ 000000018004582c     libucrt:nlsdata.obj
 0002:00009834       ??_C@_04CNLMGBGM@June?$AA@ 0000000180045834     libucrt:nlsdata.obj
 0002:0000983c       ??_C@_04MIEPOIFP@July?$AA@ 000000018004583c     libucrt:nlsdata.obj
 0002:00009844       ??_C@_06LBBHFDDG@August?$AA@ 0000000180045844     libucrt:nlsdata.obj
 0002:00009850       ??_C@_09BHHEALKD@September?$AA@ 0000000180045850     libucrt:nlsdata.obj
 0002:00009860       ??_C@_07JJNFCEND@October?$AA@ 0000000180045860     libucrt:nlsdata.obj
 0002:00009868       ??_C@_08HCHEGEOA@November?$AA@ 0000000180045868     libucrt:nlsdata.obj
 0002:00009878       ??_C@_08EDHMEBNP@December?$AA@ 0000000180045878     libucrt:nlsdata.obj
 0002:00009884       ??_C@_02DEDBPAFC@AM?$AA@   0000000180045884     libucrt:nlsdata.obj
 0002:00009888       ??_C@_02CJNFDJBF@PM?$AA@   0000000180045888     libucrt:nlsdata.obj
 0002:00009890       ??_C@_08BPBNCDIB@MM?1dd?1yy?$AA@ 0000000180045890     libucrt:nlsdata.obj
 0002:000098a0       ??_C@_0BE@CKGJFCPC@dddd?0?5MMMM?5dd?0?5yyyy?$AA@ 00000001800458a0     libucrt:nlsdata.obj
 0002:000098b8       ??_C@_08JCCMCCIL@HH?3mm?3ss?$AA@ 00000001800458b8     libucrt:nlsdata.obj
 0002:000098c8       ??_C@_17MBGCMIPB@?$AAS?$AAu?$AAn?$AA?$AA@ 00000001800458c8     libucrt:nlsdata.obj
 0002:000098d0       ??_C@_17KBOMKBF@?$AAM?$AAo?$AAn?$AA?$AA@ 00000001800458d0     libucrt:nlsdata.obj
 0002:000098d8       ??_C@_17BMKGEGOJ@?$AAT?$AAu?$AAe?$AA?$AA@ 00000001800458d8     libucrt:nlsdata.obj
 0002:000098e0       ??_C@_17CJEDCEPE@?$AAW?$AAe?$AAd?$AA?$AA@ 00000001800458e0     libucrt:nlsdata.obj
 0002:000098e8       ??_C@_17PDPHAADD@?$AAT?$AAh?$AAu?$AA?$AA@ 00000001800458e8     libucrt:nlsdata.obj
 0002:000098f0       ??_C@_17HFOLPPLP@?$AAF?$AAr?$AAi?$AA?$AA@ 00000001800458f0     libucrt:nlsdata.obj
 0002:000098f8       ??_C@_17GGIBDPIH@?$AAS?$AAa?$AAt?$AA?$AA@ 00000001800458f8     libucrt:nlsdata.obj
 0002:00009900       ??_C@_1O@IHNHDHPB@?$AAS?$AAu?$AAn?$AAd?$AAa?$AAy?$AA?$AA@ 0000000180045900     libucrt:nlsdata.obj
 0002:00009910       ??_C@_1O@MMNBFLIA@?$AAM?$AAo?$AAn?$AAd?$AAa?$AAy?$AA?$AA@ 0000000180045910     libucrt:nlsdata.obj
 0002:00009920       ??_C@_1BA@ENFBFFEK@?$AAT?$AAu?$AAe?$AAs?$AAd?$AAa?$AAy?$AA?$AA@ 0000000180045920     libucrt:nlsdata.obj
 0002:00009930       ??_C@_1BE@EBOGMDOH@?$AAW?$AAe?$AAd?$AAn?$AAe?$AAs?$AAd?$AAa?$AAy?$AA?$AA@ 0000000180045930     libucrt:nlsdata.obj
 0002:00009948       ??_C@_1BC@HHMNLIHE@?$AAT?$AAh?$AAu?$AAr?$AAs?$AAd?$AAa?$AAy?$AA?$AA@ 0000000180045948     libucrt:nlsdata.obj
 0002:00009960       ??_C@_1O@PDICJHAG@?$AAF?$AAr?$AAi?$AAd?$AAa?$AAy?$AA?$AA@ 0000000180045960     libucrt:nlsdata.obj
 0002:00009970       ??_C@_1BC@ENMNNPAJ@?$AAS?$AAa?$AAt?$AAu?$AAr?$AAd?$AAa?$AAy?$AA?$AA@ 0000000180045970     libucrt:nlsdata.obj
 0002:00009988       ??_C@_17DKNBKCHM@?$AAJ?$AAa?$AAn?$AA?$AA@ 0000000180045988     libucrt:nlsdata.obj
 0002:00009990       ??_C@_17LMDJEKJN@?$AAF?$AAe?$AAb?$AA?$AA@ 0000000180045990     libucrt:nlsdata.obj
 0002:00009998       ??_C@_17CKNLEDEC@?$AAM?$AAa?$AAr?$AA?$AA@ 0000000180045998     libucrt:nlsdata.obj
 0002:000099a0       ??_C@_17LFPOIHDD@?$AAA?$AAp?$AAr?$AA?$AA@ 00000001800459a0     libucrt:nlsdata.obj
 0002:000099a8       ??_C@_17PNNKMEED@?$AAM?$AAa?$AAy?$AA?$AA@ 00000001800459a8     libucrt:nlsdata.obj
 0002:000099b0       ??_C@_17KCJGOCPB@?$AAJ?$AAu?$AAn?$AA?$AA@ 00000001800459b0     libucrt:nlsdata.obj
 0002:000099b8       ??_C@_17IJPCKHK@?$AAJ?$AAu?$AAl?$AA?$AA@ 00000001800459b8     libucrt:nlsdata.obj
 0002:000099c0       ??_C@_17ICPELBCN@?$AAA?$AAu?$AAg?$AA?$AA@ 00000001800459c0     libucrt:nlsdata.obj
 0002:000099c8       ??_C@_17HCHCOKMG@?$AAS?$AAe?$AAp?$AA?$AA@ 00000001800459c8     libucrt:nlsdata.obj
 0002:000099d0       ??_C@_17FNLKOI@?$AAO?$AAc?$AAt?$AA?$AA@ 00000001800459d0     libucrt:nlsdata.obj
 0002:000099d8       ??_C@_17BBDMLCIG@?$AAN?$AAo?$AAv?$AA?$AA@ 00000001800459d8     libucrt:nlsdata.obj
 0002:000099e0       ??_C@_17EGKACKIF@?$AAD?$AAe?$AAc?$AA?$AA@ 00000001800459e0     libucrt:nlsdata.obj
 0002:000099e8       ??_C@_1BA@EFMEIEBA@?$AAJ?$AAa?$AAn?$AAu?$AAa?$AAr?$AAy?$AA?$AA@ 00000001800459e8     libucrt:nlsdata.obj
 0002:000099f8       ??_C@_1BC@JGDDFFAM@?$AAF?$AAe?$AAb?$AAr?$AAu?$AAa?$AAr?$AAy?$AA?$AA@ 00000001800459f8     libucrt:nlsdata.obj
 0002:00009a10       ??_C@_1M@IKEENEDF@?$AAM?$AAa?$AAr?$AAc?$AAh?$AA?$AA@ 0000000180045a10     libucrt:nlsdata.obj
 0002:00009a20       ??_C@_1M@GJNLMHFD@?$AAA?$AAp?$AAr?$AAi?$AAl?$AA?$AA@ 0000000180045a20     libucrt:nlsdata.obj
 0002:00009a30       ??_C@_19EPFLPGAP@?$AAJ?$AAu?$AAn?$AAe?$AA?$AA@ 0000000180045a30     libucrt:nlsdata.obj
 0002:00009a40       ??_C@_19BIFMLPCD@?$AAJ?$AAu?$AAl?$AAy?$AA?$AA@ 0000000180045a40     libucrt:nlsdata.obj
 0002:00009a50       ??_C@_1O@PAHLKOAC@?$AAA?$AAu?$AAg?$AAu?$AAs?$AAt?$AA?$AA@ 0000000180045a50     libucrt:nlsdata.obj
 0002:00009a60       ??_C@_1BE@DKAAMBJL@?$AAS?$AAe?$AAp?$AAt?$AAe?$AAm?$AAb?$AAe?$AAr?$AA?$AA@ 0000000180045a60     libucrt:nlsdata.obj
 0002:00009a78       ??_C@_1BA@EPANDLNG@?$AAO?$AAc?$AAt?$AAo?$AAb?$AAe?$AAr?$AA?$AA@ 0000000180045a78     libucrt:nlsdata.obj
 0002:00009a88       ??_C@_1BC@BGLIFPF@?$AAN?$AAo?$AAv?$AAe?$AAm?$AAb?$AAe?$AAr?$AA?$AA@ 0000000180045a88     libucrt:nlsdata.obj
 0002:00009aa0       ??_C@_1BC@FEMKIFH@?$AAD?$AAe?$AAc?$AAe?$AAm?$AAb?$AAe?$AAr?$AA?$AA@ 0000000180045aa0     libucrt:nlsdata.obj
 0002:00009ab4       ??_C@_15ODEHAHHF@?$AAA?$AAM?$AA?$AA@ 0000000180045ab4     libucrt:nlsdata.obj
 0002:00009abc       ??_C@_15CLMNNGEL@?$AAP?$AAM?$AA?$AA@ 0000000180045abc     libucrt:nlsdata.obj
 0002:00009ac8       ??_C@_1BC@IEBCMHCM@?$AAM?$AAM?$AA?1?$AAd?$AAd?$AA?1?$AAy?$AAy?$AA?$AA@ 0000000180045ac8     libucrt:nlsdata.obj
 0002:00009ae0       ??_C@_1CI@KNAKOEBC@?$AAd?$AAd?$AAd?$AAd?$AA?0?$AA?5?$AAM?$AAM?$AAM?$AAM?$AA?5?$AAd?$AAd?$AA?0?$AA?5?$AAy?$AAy?$AAy?$AAy?$AA?$AA@ 0000000180045ae0     libucrt:nlsdata.obj
 0002:00009b08       ??_C@_1BC@GDGBMEMK@?$AAH?$AAH?$AA?3?$AAm?$AAm?$AA?3?$AAs?$AAs?$AA?$AA@ 0000000180045b08     libucrt:nlsdata.obj
 0002:00009b1c       ??_C@_03JGHBODFD@pow?$AA@  0000000180045b1c     libucrt:fpexcept.obj
 0002:00009b20       ??_C@_05HGHHAHAP@log10?$AA@ 0000000180045b20     libucrt:fpexcept.obj
 0002:00009bd0       ??_C@_1EG@CNNIPFIM@?$AAa?$AAp?$AAi?$AA?9?$AAm?$AAs?$AA?9?$AAw?$AAi?$AAn?$AA?9?$AAa?$AAp?$AAp?$AAm?$AAo?$AAd?$AAe?$AAl?$AA?9?$AAr?$AAu?$AAn?$AAt?$AAi?$AAm?$AAe?$AA?9?$AAl?$AA1?$AA?9?$AA1@ 0000000180045bd0     libucrt:winapi_thunks.obj
 0002:00009c20       ??_C@_1EA@JGEFHKEI@?$AAa?$AAp?$AAi?$AA?9?$AAm?$AAs?$AA?9?$AAw?$AAi?$AAn?$AA?9?$AAc?$AAo?$AAr?$AAe?$AA?9?$AAd?$AAa?$AAt?$AAe?$AAt?$AAi?$AAm?$AAe?$AA?9?$AAl?$AA1?$AA?9?$AA1?$AA?9?$AA1?$AA?$AA@ 0000000180045c20     libucrt:winapi_thunks.obj
 0002:00009c60       ??_C@_1DI@GCIAAENM@?$AAa?$AAp?$AAi?$AA?9?$AAm?$AAs?$AA?9?$AAw?$AAi?$AAn?$AA?9?$AAc?$AAo?$AAr?$AAe?$AA?9?$AAf?$AAi?$AAl?$AAe?$AA?9?$AAl?$AA2?$AA?9?$AA1?$AA?9?$AA1?$AA?$AA@ 0000000180045c60     libucrt:winapi_thunks.obj
 0002:00009ca0       ??_C@_1EI@MPIAOHOC@?$AAa?$AAp?$AAi?$AA?9?$AAm?$AAs?$AA?9?$AAw?$AAi?$AAn?$AA?9?$AAc?$AAo?$AAr?$AAe?$AA?9?$AAl?$AAo?$AAc?$AAa?$AAl?$AAi?$AAz?$AAa?$AAt?$AAi?$AAo?$AAn?$AA?9?$AAl?$AA1?$AA?9@ 0000000180045ca0     libucrt:winapi_thunks.obj
 0002:00009cf0       ??_C@_1FK@FPHCKFIE@?$AAa?$AAp?$AAi?$AA?9?$AAm?$AAs?$AA?9?$AAw?$AAi?$AAn?$AA?9?$AAc?$AAo?$AAr?$AAe?$AA?9?$AAl?$AAo?$AAc?$AAa?$AAl?$AAi?$AAz?$AAa?$AAt?$AAi?$AAo?$AAn?$AA?9?$AAo?$AAb?$AAs@ 0000000180045cf0     libucrt:winapi_thunks.obj
 0002:00009d50       ??_C@_1EM@DILCGIIO@?$AAa?$AAp?$AAi?$AA?9?$AAm?$AAs?$AA?9?$AAw?$AAi?$AAn?$AA?9?$AAc?$AAo?$AAr?$AAe?$AA?9?$AAp?$AAr?$AAo?$AAc?$AAe?$AAs?$AAs?$AAt?$AAh?$AAr?$AAe?$AAa?$AAd?$AAs?$AA?9?$AAl@ 0000000180045d50     libucrt:winapi_thunks.obj
 0002:00009da0       ??_C@_1DM@LNCGDDPN@?$AAa?$AAp?$AAi?$AA?9?$AAm?$AAs?$AA?9?$AAw?$AAi?$AAn?$AA?9?$AAc?$AAo?$AAr?$AAe?$AA?9?$AAs?$AAt?$AAr?$AAi?$AAn?$AAg?$AA?9?$AAl?$AA1?$AA?9?$AA1?$AA?9?$AA0?$AA?$AA@ 0000000180045da0     libucrt:winapi_thunks.obj
 0002:00009de0       ??_C@_1DO@FPAPJEMD@?$AAa?$AAp?$AAi?$AA?9?$AAm?$AAs?$AA?9?$AAw?$AAi?$AAn?$AA?9?$AAc?$AAo?$AAr?$AAe?$AA?9?$AAs?$AAy?$AAs?$AAi?$AAn?$AAf?$AAo?$AA?9?$AAl?$AA1?$AA?9?$AA2?$AA?9?$AA1?$AA?$AA@ 0000000180045de0     libucrt:winapi_thunks.obj
 0002:00009e20       ??_C@_1DK@NDHNAHIO@?$AAa?$AAp?$AAi?$AA?9?$AAm?$AAs?$AA?9?$AAw?$AAi?$AAn?$AA?9?$AAc?$AAo?$AAr?$AAe?$AA?9?$AAw?$AAi?$AAn?$AAr?$AAt?$AA?9?$AAl?$AA1?$AA?9?$AA1?$AA?9?$AA0?$AA?$AA@ 0000000180045e20     libucrt:winapi_thunks.obj
 0002:00009e60       ??_C@_1DM@KGHDGBCM@?$AAa?$AAp?$AAi?$AA?9?$AAm?$AAs?$AA?9?$AAw?$AAi?$AAn?$AA?9?$AAc?$AAo?$AAr?$AAe?$AA?9?$AAx?$AAs?$AAt?$AAa?$AAt?$AAe?$AA?9?$AAl?$AA2?$AA?9?$AA1?$AA?9?$AA0?$AA?$AA@ 0000000180045e60     libucrt:winapi_thunks.obj
 0002:00009ea0       ??_C@_1EO@IJIOEFOH@?$AAa?$AAp?$AAi?$AA?9?$AAm?$AAs?$AA?9?$AAw?$AAi?$AAn?$AA?9?$AAr?$AAt?$AAc?$AAo?$AAr?$AAe?$AA?9?$AAn?$AAt?$AAu?$AAs?$AAe?$AAr?$AA?9?$AAw?$AAi?$AAn?$AAd?$AAo?$AAw?$AA?9@ 0000000180045ea0     libucrt:winapi_thunks.obj
 0002:00009ef0       ??_C@_1FG@HHGEKANL@?$AAa?$AAp?$AAi?$AA?9?$AAm?$AAs?$AA?9?$AAw?$AAi?$AAn?$AA?9?$AAs?$AAe?$AAc?$AAu?$AAr?$AAi?$AAt?$AAy?$AA?9?$AAs?$AAy?$AAs?$AAt?$AAe?$AAm?$AAf?$AAu?$AAn?$AAc?$AAt?$AAi@ 0000000180045ef0     libucrt:winapi_thunks.obj
 0002:00009f50       ??_C@_1FG@NCKKOLKO@?$AAe?$AAx?$AAt?$AA?9?$AAm?$AAs?$AA?9?$AAw?$AAi?$AAn?$AA?9?$AAk?$AAe?$AAr?$AAn?$AAe?$AAl?$AA3?$AA2?$AA?9?$AAp?$AAa?$AAc?$AAk?$AAa?$AAg?$AAe?$AA?9?$AAc?$AAu?$AAr?$AAr@ 0000000180045f50     libucrt:winapi_thunks.obj
 0002:00009fb0       ??_C@_1EG@DBIOJECG@?$AAe?$AAx?$AAt?$AA?9?$AAm?$AAs?$AA?9?$AAw?$AAi?$AAn?$AA?9?$AAn?$AAt?$AAu?$AAs?$AAe?$AAr?$AA?9?$AAd?$AAi?$AAa?$AAl?$AAo?$AAg?$AAb?$AAo?$AAx?$AA?9?$AAl?$AA1?$AA?9?$AA1@ 0000000180045fb0     libucrt:winapi_thunks.obj
 0002:0000a000       ??_C@_1EO@FIHMJCLF@?$AAe?$AAx?$AAt?$AA?9?$AAm?$AAs?$AA?9?$AAw?$AAi?$AAn?$AA?9?$AAn?$AAt?$AAu?$AAs?$AAe?$AAr?$AA?9?$AAw?$AAi?$AAn?$AAd?$AAo?$AAw?$AAs?$AAt?$AAa?$AAt?$AAi?$AAo?$AAn?$AA?9@ 0000000180046000     libucrt:winapi_thunks.obj
 0002:0000a050       ??_C@_1O@BCCLBEOE@?$AAu?$AAs?$AAe?$AAr?$AA3?$AA2?$AA?$AA@ 0000000180046050     libucrt:winapi_thunks.obj
 0002:0000a070       ??_C@_0BE@LJANKFHF@EnumSystemLocalesEx?$AA@ 0000000180046070     libucrt:winapi_thunks.obj
 0002:0000a0b0       ??_C@_0BA@HNOPNCHB@GetActiveWindow?$AA@ 00000001800460b0     libucrt:winapi_thunks.obj
 0002:0000a0d0       ??_C@_0BD@HHGDFDBJ@GetLastActivePopup?$AA@ 00000001800460d0     libucrt:winapi_thunks.obj
 0002:0000a0f8       ??_C@_0BI@DFKBFLJE@GetProcessWindowStation?$AA@ 00000001800460f8     libucrt:winapi_thunks.obj
 0002:0000a120       ??_C@_0BJ@PBCCBIPI@GetUserDefaultLocaleName?$AA@ 0000000180046120     libucrt:winapi_thunks.obj
 0002:0000a148       ??_C@_0BK@DEKFELLI@GetUserObjectInformationW?$AA@ 0000000180046148     libucrt:winapi_thunks.obj
 0002:0000a178       ??_C@_0BC@CELBKLLA@IsValidLocaleName?$AA@ 0000000180046178     libucrt:winapi_thunks.obj
 0002:0000a1a0       ??_C@_0BB@CDHDDLLP@LCIDToLocaleName?$AA@ 00000001800461a0     libucrt:winapi_thunks.obj
 0002:0000a1c0       ??_C@_0BB@HBDEELFH@LocaleNameToLCID?$AA@ 00000001800461c0     libucrt:winapi_thunks.obj
 0002:0000a1e0       ??_C@_0M@CHKKJDAI@MessageBoxA?$AA@ 00000001800461e0     libucrt:winapi_thunks.obj
 0002:0000a1f8       ??_C@_0M@DLDCCGNP@MessageBoxW?$AA@ 00000001800461f8     libucrt:winapi_thunks.obj
 0002:0000a210       __log_256_lead             0000000180046210     libucrt:log_256_lead_tail_table.obj
 0002:0000aa20       __log_256_tail             0000000180046a20     libucrt:log_256_lead_tail_table.obj
 0002:0000b230       __two_to_jby64_head_table  0000000180047230     libucrt:two_to_jby64_head_tail_table.obj
 0002:0000b430       __two_to_jby64_tail_table  0000000180047430     libucrt:two_to_jby64_head_tail_table.obj
 0002:0000b630       ??_C@_04MBFDLNIM@powf?$AA@ 0000000180047630     libucrt:pow_special.obj
 0002:0000b640       __two_to_jby64_table       0000000180047640     libucrt:two_to_jby64_table.obj
 0002:0000b840       __log_F_inv_qword          0000000180047840     libucrt:log_f_inv_qword_table.obj
 0002:0000c070       ??_C@_01GBGANLPD@0?$AA@    0000000180048070     libucrt:cfout.obj
 0002:0000c074       ??_C@_05DNEBIAHO@1?$CDINF?$AA@ 0000000180048074     libucrt:cfout.obj
 0002:0000c07c       ??_C@_06IMKFLFPG@1?$CDQNAN?$AA@ 000000018004807c     libucrt:cfout.obj
 0002:0000c084       ??_C@_06PGGFOGJG@1?$CDSNAN?$AA@ 0000000180048084     libucrt:cfout.obj
 0002:0000c08c       ??_C@_05PHHOCPM@1?$CDIND?$AA@ 000000018004808c     libucrt:cfout.obj
 0002:0000c0a0       __acrt_rg_language         00000001800480a0     libucrt:get_qualified_locale.obj
 0002:0000c4b0       __acrt_rg_language_count   00000001800484b0     libucrt:get_qualified_locale.obj
 0002:0000c4c0       __acrt_rg_country          00000001800484c0     libucrt:get_qualified_locale.obj
 0002:0000c630       __acrt_rg_country_count    0000000180048630     libucrt:get_qualified_locale.obj
 0002:0000c638       ??_C@_1BC@LLOKLNP@?$AAa?$AAm?$AAe?$AAr?$AAi?$AAc?$AAa?$AAn?$AA?$AA@ 0000000180048638     libucrt:get_qualified_locale.obj
 0002:0000c650       ??_C@_1CC@HEIGCDGG@?$AAa?$AAm?$AAe?$AAr?$AAi?$AAc?$AAa?$AAn?$AA?5?$AAe?$AAn?$AAg?$AAl?$AAi?$AAs?$AAh?$AA?$AA@ 0000000180048650     libucrt:get_qualified_locale.obj
 0002:0000c678       ??_C@_1CC@IHCNOMIN@?$AAa?$AAm?$AAe?$AAr?$AAi?$AAc?$AAa?$AAn?$AA?9?$AAe?$AAn?$AAg?$AAl?$AAi?$AAs?$AAh?$AA?$AA@ 0000000180048678     libucrt:get_qualified_locale.obj
 0002:0000c6a0       ??_C@_1BG@GKAGPCGG@?$AAa?$AAu?$AAs?$AAt?$AAr?$AAa?$AAl?$AAi?$AAa?$AAn?$AA?$AA@ 00000001800486a0     libucrt:get_qualified_locale.obj
 0002:0000c6b8       ??_C@_1BA@GMENCENF@?$AAb?$AAe?$AAl?$AAg?$AAi?$AAa?$AAn?$AA?$AA@ 00000001800486b8     libucrt:get_qualified_locale.obj
 0002:0000c6c8       ??_C@_1BC@PJMIIAAN@?$AAc?$AAa?$AAn?$AAa?$AAd?$AAi?$AAa?$AAn?$AA?$AA@ 00000001800486c8     libucrt:get_qualified_locale.obj
 0002:0000c6e0       ??_C@_17NOIMNFBF@?$AAc?$AAh?$AAh?$AA?$AA@ 00000001800486e0     libucrt:get_qualified_locale.obj
 0002:0000c6e8       ??_C@_17GGDALCHA@?$AAc?$AAh?$AAi?$AA?$AA@ 00000001800486e8     libucrt:get_qualified_locale.obj
 0002:0000c6f0       ??_C@_1BA@NPNJKIBL@?$AAc?$AAh?$AAi?$AAn?$AAe?$AAs?$AAe?$AA?$AA@ 00000001800486f0     libucrt:get_qualified_locale.obj
 0002:0000c700       ??_C@_1CC@DINBAMMJ@?$AAc?$AAh?$AAi?$AAn?$AAe?$AAs?$AAe?$AA?9?$AAh?$AAo?$AAn?$AAg?$AAk?$AAo?$AAn?$AAg?$AA?$AA@ 0000000180048700     libucrt:get_qualified_locale.obj
 0002:0000c728       ??_C@_1CG@IOBJPACO@?$AAc?$AAh?$AAi?$AAn?$AAe?$AAs?$AAe?$AA?9?$AAs?$AAi?$AAm?$AAp?$AAl?$AAi?$AAf?$AAi?$AAe?$AAd?$AA?$AA@ 0000000180048728     libucrt:get_qualified_locale.obj
 0002:0000c750       ??_C@_1CE@GAJNDCKG@?$AAc?$AAh?$AAi?$AAn?$AAe?$AAs?$AAe?$AA?9?$AAs?$AAi?$AAn?$AAg?$AAa?$AAp?$AAo?$AAr?$AAe?$AA?$AA@ 0000000180048750     libucrt:get_qualified_locale.obj
 0002:0000c778       ??_C@_1CI@PAJPIOOD@?$AAc?$AAh?$AAi?$AAn?$AAe?$AAs?$AAe?$AA?9?$AAt?$AAr?$AAa?$AAd?$AAi?$AAt?$AAi?$AAo?$AAn?$AAa?$AAl?$AA?$AA@ 0000000180048778     libucrt:get_qualified_locale.obj
 0002:0000c7a0       ??_C@_1BM@NILJBMMD@?$AAd?$AAu?$AAt?$AAc?$AAh?$AA?9?$AAb?$AAe?$AAl?$AAg?$AAi?$AAa?$AAn?$AA?$AA@ 00000001800487a0     libucrt:get_qualified_locale.obj
 0002:0000c7c0       ??_C@_1CC@OOJPJNEJ@?$AAe?$AAn?$AAg?$AAl?$AAi?$AAs?$AAh?$AA?9?$AAa?$AAm?$AAe?$AAr?$AAi?$AAc?$AAa?$AAn?$AA?$AA@ 00000001800487c0     libucrt:get_qualified_locale.obj
 0002:0000c7e8       ??_C@_1BI@IOLFEEM@?$AAe?$AAn?$AAg?$AAl?$AAi?$AAs?$AAh?$AA?9?$AAa?$AAu?$AAs?$AA?$AA@ 00000001800487e8     libucrt:get_qualified_locale.obj
 0002:0000c800       ??_C@_1BO@HFFNLENJ@?$AAe?$AAn?$AAg?$AAl?$AAi?$AAs?$AAh?$AA?9?$AAb?$AAe?$AAl?$AAi?$AAz?$AAe?$AA?$AA@ 0000000180048800     libucrt:get_qualified_locale.obj
 0002:0000c820       ??_C@_1BI@HAPKJMPO@?$AAe?$AAn?$AAg?$AAl?$AAi?$AAs?$AAh?$AA?9?$AAc?$AAa?$AAn?$AA?$AA@ 0000000180048820     libucrt:get_qualified_locale.obj
 0002:0000c838       ??_C@_1CE@HLNDMIOJ@?$AAe?$AAn?$AAg?$AAl?$AAi?$AAs?$AAh?$AA?9?$AAc?$AAa?$AAr?$AAi?$AAb?$AAb?$AAe?$AAa?$AAn?$AA?$AA@ 0000000180048838     libucrt:get_qualified_locale.obj
 0002:0000c860       ??_C@_1BI@LDHJHHAC@?$AAe?$AAn?$AAg?$AAl?$AAi?$AAs?$AAh?$AA?9?$AAi?$AAr?$AAe?$AA?$AA@ 0000000180048860     libucrt:get_qualified_locale.obj
 0002:0000c878       ??_C@_1CA@NJMMCFOC@?$AAe?$AAn?$AAg?$AAl?$AAi?$AAs?$AAh?$AA?9?$AAj?$AAa?$AAm?$AAa?$AAi?$AAc?$AAa?$AA?$AA@ 0000000180048878     libucrt:get_qualified_locale.obj
 0002:0000c898       ??_C@_1BG@BHJEBBGG@?$AAe?$AAn?$AAg?$AAl?$AAi?$AAs?$AAh?$AA?9?$AAn?$AAz?$AA?$AA@ 0000000180048898     libucrt:get_qualified_locale.obj
 0002:0000c8b0       ??_C@_1CK@FGOEJJCO@?$AAe?$AAn?$AAg?$AAl?$AAi?$AAs?$AAh?$AA?9?$AAs?$AAo?$AAu?$AAt?$AAh?$AA?5?$AAa?$AAf?$AAr?$AAi?$AAc?$AAa?$AA?$AA@ 00000001800488b0     libucrt:get_qualified_locale.obj
 0002:0000c8e0       ??_C@_1DE@PDBJPCJ@?$AAe?$AAn?$AAg?$AAl?$AAi?$AAs?$AAh?$AA?9?$AAt?$AAr?$AAi?$AAn?$AAi?$AAd?$AAa?$AAd?$AA?5?$AAy?$AA?5?$AAt?$AAo?$AAb?$AAa?$AAg?$AAo?$AA?$AA@ 00000001800488e0     libucrt:get_qualified_locale.obj
 0002:0000c918       ??_C@_1BG@JGCANDME@?$AAe?$AAn?$AAg?$AAl?$AAi?$AAs?$AAh?$AA?9?$AAu?$AAk?$AA?$AA@ 0000000180048918     libucrt:get_qualified_locale.obj
 0002:0000c930       ??_C@_1BG@DINKMLE@?$AAe?$AAn?$AAg?$AAl?$AAi?$AAs?$AAh?$AA?9?$AAu?$AAs?$AA?$AA@ 0000000180048930     libucrt:get_qualified_locale.obj
 0002:0000c948       ??_C@_1BI@NMFDBHJE@?$AAe?$AAn?$AAg?$AAl?$AAi?$AAs?$AAh?$AA?9?$AAu?$AAs?$AAa?$AA?$AA@ 0000000180048948     libucrt:get_qualified_locale.obj
 0002:0000c960       ??_C@_1BO@OIHKJKII@?$AAf?$AAr?$AAe?$AAn?$AAc?$AAh?$AA?9?$AAb?$AAe?$AAl?$AAg?$AAi?$AAa?$AAn?$AA?$AA@ 0000000180048960     libucrt:get_qualified_locale.obj
 0002:0000c980       ??_C@_1CA@NKAELJKI@?$AAf?$AAr?$AAe?$AAn?$AAc?$AAh?$AA?9?$AAc?$AAa?$AAn?$AAa?$AAd?$AAi?$AAa?$AAn?$AA?$AA@ 0000000180048980     libucrt:get_qualified_locale.obj
 0002:0000c9a0       ??_C@_1CE@MGKCNLGN@?$AAf?$AAr?$AAe?$AAn?$AAc?$AAh?$AA?9?$AAl?$AAu?$AAx?$AAe?$AAm?$AAb?$AAo?$AAu?$AAr?$AAg?$AA?$AA@ 00000001800489a0     libucrt:get_qualified_locale.obj
 0002:0000c9c8       ??_C@_1BK@CEGEAILM@?$AAf?$AAr?$AAe?$AAn?$AAc?$AAh?$AA?9?$AAs?$AAw?$AAi?$AAs?$AAs?$AA?$AA@ 00000001800489c8     libucrt:get_qualified_locale.obj
 0002:0000c9e8       ??_C@_1CA@PAFKEOCC@?$AAg?$AAe?$AAr?$AAm?$AAa?$AAn?$AA?9?$AAa?$AAu?$AAs?$AAt?$AAr?$AAi?$AAa?$AAn?$AA?$AA@ 00000001800489e8     libucrt:get_qualified_locale.obj
 0002:0000ca08       ??_C@_1CI@HCFHGOFD@?$AAg?$AAe?$AAr?$AAm?$AAa?$AAn?$AA?9?$AAl?$AAi?$AAc?$AAh?$AAt?$AAe?$AAn?$AAs?$AAt?$AAe?$AAi?$AAn?$AA?$AA@ 0000000180048a08     libucrt:get_qualified_locale.obj
 0002:0000ca30       ??_C@_1CE@FEDDNPDG@?$AAg?$AAe?$AAr?$AAm?$AAa?$AAn?$AA?9?$AAl?$AAu?$AAx?$AAe?$AAm?$AAb?$AAo?$AAu?$AAr?$AAg?$AA?$AA@ 0000000180048a30     libucrt:get_qualified_locale.obj
 0002:0000ca58       ??_C@_1BK@LIMINNMN@?$AAg?$AAe?$AAr?$AAm?$AAa?$AAn?$AA?9?$AAs?$AAw?$AAi?$AAs?$AAs?$AA?$AA@ 0000000180048a58     libucrt:get_qualified_locale.obj
 0002:0000ca78       ??_C@_1BM@LGMDBEPD@?$AAi?$AAr?$AAi?$AAs?$AAh?$AA?9?$AAe?$AAn?$AAg?$AAl?$AAi?$AAs?$AAh?$AA?$AA@ 0000000180048a78     libucrt:get_qualified_locale.obj
 0002:0000ca98       ??_C@_1BM@NNCFBAEE@?$AAi?$AAt?$AAa?$AAl?$AAi?$AAa?$AAn?$AA?9?$AAs?$AAw?$AAi?$AAs?$AAs?$AA?$AA@ 0000000180048a98     libucrt:get_qualified_locale.obj
 0002:0000cab8       ??_C@_1BE@FEDJNPIB@?$AAn?$AAo?$AAr?$AAw?$AAe?$AAg?$AAi?$AAa?$AAn?$AA?$AA@ 0000000180048ab8     libucrt:get_qualified_locale.obj
 0002:0000cad0       ??_C@_1CC@CILKDEIE@?$AAn?$AAo?$AAr?$AAw?$AAe?$AAg?$AAi?$AAa?$AAn?$AA?9?$AAb?$AAo?$AAk?$AAm?$AAa?$AAl?$AA?$AA@ 0000000180048ad0     libucrt:get_qualified_locale.obj
 0002:0000caf8       ??_C@_1CE@DHMMHEPL@?$AAn?$AAo?$AAr?$AAw?$AAe?$AAg?$AAi?$AAa?$AAn?$AA?9?$AAn?$AAy?$AAn?$AAo?$AAr?$AAs?$AAk?$AA?$AA@ 0000000180048af8     libucrt:get_qualified_locale.obj
 0002:0000cb20       ??_C@_1CK@OPNMHECD@?$AAp?$AAo?$AAr?$AAt?$AAu?$AAg?$AAu?$AAe?$AAs?$AAe?$AA?9?$AAb?$AAr?$AAa?$AAz?$AAi?$AAl?$AAi?$AAa?$AAn?$AA?$AA@ 0000000180048b20     libucrt:get_qualified_locale.obj
 0002:0000cb50       ??_C@_1CE@KEEHCDB@?$AAs?$AAp?$AAa?$AAn?$AAi?$AAs?$AAh?$AA?9?$AAa?$AAr?$AAg?$AAe?$AAn?$AAt?$AAi?$AAn?$AAa?$AA?$AA@ 0000000180048b50     libucrt:get_qualified_locale.obj
 0002:0000cb78       ??_C@_1CA@GIAOLHJD@?$AAs?$AAp?$AAa?$AAn?$AAi?$AAs?$AAh?$AA?9?$AAb?$AAo?$AAl?$AAi?$AAv?$AAi?$AAa?$AA?$AA@ 0000000180048b78     libucrt:get_qualified_locale.obj
 0002:0000cb98       ??_C@_1BM@OJNDFNPD@?$AAs?$AAp?$AAa?$AAn?$AAi?$AAs?$AAh?$AA?9?$AAc?$AAh?$AAi?$AAl?$AAe?$AA?$AA@ 0000000180048b98     libucrt:get_qualified_locale.obj
 0002:0000cbb8       ??_C@_1CC@OCOLPALL@?$AAs?$AAp?$AAa?$AAn?$AAi?$AAs?$AAh?$AA?9?$AAc?$AAo?$AAl?$AAo?$AAm?$AAb?$AAi?$AAa?$AA?$AA@ 0000000180048bb8     libucrt:get_qualified_locale.obj
 0002:0000cbe0       ??_C@_1CG@BPOFMKBB@?$AAs?$AAp?$AAa?$AAn?$AAi?$AAs?$AAh?$AA?9?$AAc?$AAo?$AAs?$AAt?$AAa?$AA?5?$AAr?$AAi?$AAc?$AAa?$AA?$AA@ 0000000180048be0     libucrt:get_qualified_locale.obj
 0002:0000cc08       ??_C@_1DG@IGOBAPBB@?$AAs?$AAp?$AAa?$AAn?$AAi?$AAs?$AAh?$AA?9?$AAd?$AAo?$AAm?$AAi?$AAn?$AAi?$AAc?$AAa?$AAn?$AA?5?$AAr?$AAe?$AAp?$AAu?$AAb?$AAl?$AAi?$AAc?$AA?$AA@ 0000000180048c08     libucrt:get_qualified_locale.obj
 0002:0000cc40       ??_C@_1CA@JHAPGEGI@?$AAs?$AAp?$AAa?$AAn?$AAi?$AAs?$AAh?$AA?9?$AAe?$AAc?$AAu?$AAa?$AAd?$AAo?$AAr?$AA?$AA@ 0000000180048c40     libucrt:get_qualified_locale.obj
 0002:0000cc60       ??_C@_1CI@LAPALJPP@?$AAs?$AAp?$AAa?$AAn?$AAi?$AAs?$AAh?$AA?9?$AAe?$AAl?$AA?5?$AAs?$AAa?$AAl?$AAv?$AAa?$AAd?$AAo?$AAr?$AA?$AA@ 0000000180048c60     libucrt:get_qualified_locale.obj
 0002:0000cc88       ??_C@_1CE@PDGBOFOM@?$AAs?$AAp?$AAa?$AAn?$AAi?$AAs?$AAh?$AA?9?$AAg?$AAu?$AAa?$AAt?$AAe?$AAm?$AAa?$AAl?$AAa?$AA?$AA@ 0000000180048c88     libucrt:get_qualified_locale.obj
 0002:0000ccb0       ??_C@_1CC@NBEBAODI@?$AAs?$AAp?$AAa?$AAn?$AAi?$AAs?$AAh?$AA?9?$AAh?$AAo?$AAn?$AAd?$AAu?$AAr?$AAa?$AAs?$AA?$AA@ 0000000180048cb0     libucrt:get_qualified_locale.obj
 0002:0000ccd8       ??_C@_1CA@LLKGHBMF@?$AAs?$AAp?$AAa?$AAn?$AAi?$AAs?$AAh?$AA?9?$AAm?$AAe?$AAx?$AAi?$AAc?$AAa?$AAn?$AA?$AA@ 0000000180048cd8     libucrt:get_qualified_locale.obj
 0002:0000ccf8       ??_C@_1BO@LKNDOIGD@?$AAs?$AAp?$AAa?$AAn?$AAi?$AAs?$AAh?$AA?9?$AAm?$AAo?$AAd?$AAe?$AAr?$AAn?$AA?$AA@ 0000000180048cf8     libucrt:get_qualified_locale.obj
 0002:0000cd18       ??_C@_1CE@NMDMOEEB@?$AAs?$AAp?$AAa?$AAn?$AAi?$AAs?$AAh?$AA?9?$AAn?$AAi?$AAc?$AAa?$AAr?$AAa?$AAg?$AAu?$AAa?$AA?$AA@ 0000000180048d18     libucrt:get_qualified_locale.obj
 0002:0000cd40       ??_C@_1BO@LLCBEJGB@?$AAs?$AAp?$AAa?$AAn?$AAi?$AAs?$AAh?$AA?9?$AAp?$AAa?$AAn?$AAa?$AAm?$AAa?$AA?$AA@ 0000000180048d40     libucrt:get_qualified_locale.obj
 0002:0000cd60       ??_C@_1CC@FKPGGIHO@?$AAs?$AAp?$AAa?$AAn?$AAi?$AAs?$AAh?$AA?9?$AAp?$AAa?$AAr?$AAa?$AAg?$AAu?$AAa?$AAy?$AA?$AA@ 0000000180048d60     libucrt:get_qualified_locale.obj
 0002:0000cd88       ??_C@_1BK@CDEIHOOP@?$AAs?$AAp?$AAa?$AAn?$AAi?$AAs?$AAh?$AA?9?$AAp?$AAe?$AAr?$AAu?$AA?$AA@ 0000000180048d88     libucrt:get_qualified_locale.obj
 0002:0000cda8       ??_C@_1CI@GAHAKKGP@?$AAs?$AAp?$AAa?$AAn?$AAi?$AAs?$AAh?$AA?9?$AAp?$AAu?$AAe?$AAr?$AAt?$AAo?$AA?5?$AAr?$AAi?$AAc?$AAo?$AA?$AA@ 0000000180048da8     libucrt:get_qualified_locale.obj
 0002:0000cdd0       ??_C@_1CA@NKJBCAGP@?$AAs?$AAp?$AAa?$AAn?$AAi?$AAs?$AAh?$AA?9?$AAu?$AAr?$AAu?$AAg?$AAu?$AAa?$AAy?$AA?$AA@ 0000000180048dd0     libucrt:get_qualified_locale.obj
 0002:0000cdf0       ??_C@_1CE@ODILCONM@?$AAs?$AAp?$AAa?$AAn?$AAi?$AAs?$AAh?$AA?9?$AAv?$AAe?$AAn?$AAe?$AAz?$AAu?$AAe?$AAl?$AAa?$AA?$AA@ 0000000180048df0     libucrt:get_qualified_locale.obj
 0002:0000ce18       ??_C@_1CA@OBNMCGFO@?$AAs?$AAw?$AAe?$AAd?$AAi?$AAs?$AAh?$AA?9?$AAf?$AAi?$AAn?$AAl?$AAa?$AAn?$AAd?$AA?$AA@ 0000000180048e18     libucrt:get_qualified_locale.obj
 0002:0000ce38       ??_C@_1M@PIPDDPPI@?$AAs?$AAw?$AAi?$AAs?$AAs?$AA?$AA@ 0000000180048e38     libucrt:get_qualified_locale.obj
 0002:0000ce44       ??_C@_15GMFIMNFM@?$AAu?$AAs?$AA?$AA@ 0000000180048e44     libucrt:get_qualified_locale.obj
 0002:0000ce50       ??_C@_17HAEBFAGL@?$AAu?$AAs?$AAa?$AA?$AA@ 0000000180048e50     libucrt:get_qualified_locale.obj
 0002:0000ce58       ??_C@_1BA@DPFJEPHB@?$AAa?$AAm?$AAe?$AAr?$AAi?$AAc?$AAa?$AA?$AA@ 0000000180048e58     libucrt:get_qualified_locale.obj
 0002:0000ce68       ??_C@_1BA@ELOGGFK@?$AAb?$AAr?$AAi?$AAt?$AAa?$AAi?$AAn?$AA?$AA@ 0000000180048e68     libucrt:get_qualified_locale.obj
 0002:0000ce78       ??_C@_1M@GHBGIGDA@?$AAc?$AAh?$AAi?$AAn?$AAa?$AA?$AA@ 0000000180048e78     libucrt:get_qualified_locale.obj
 0002:0000ce88       ??_C@_1M@NCHEJOPO@?$AAc?$AAz?$AAe?$AAc?$AAh?$AA?$AA@ 0000000180048e88     libucrt:get_qualified_locale.obj
 0002:0000ce98       ??_C@_1BA@BKPAPBLA@?$AAe?$AAn?$AAg?$AAl?$AAa?$AAn?$AAd?$AA?$AA@ 0000000180048e98     libucrt:get_qualified_locale.obj
 0002:0000cea8       ??_C@_1BM@HKBCKIPC@?$AAg?$AAr?$AAe?$AAa?$AAt?$AA?5?$AAb?$AAr?$AAi?$AAt?$AAa?$AAi?$AAn?$AA?$AA@ 0000000180048ea8     libucrt:get_qualified_locale.obj
 0002:0000cec8       ??_C@_1BA@PPCHPGJB@?$AAh?$AAo?$AAl?$AAl?$AAa?$AAn?$AAd?$AA?$AA@ 0000000180048ec8     libucrt:get_qualified_locale.obj
 0002:0000ced8       ??_C@_1BE@JBMPEGDG@?$AAh?$AAo?$AAn?$AAg?$AA?9?$AAk?$AAo?$AAn?$AAg?$AA?$AA@ 0000000180048ed8     libucrt:get_qualified_locale.obj
 0002:0000cef0       ??_C@_1BI@KOELBBPJ@?$AAn?$AAe?$AAw?$AA?9?$AAz?$AAe?$AAa?$AAl?$AAa?$AAn?$AAd?$AA?$AA@ 0000000180048ef0     libucrt:get_qualified_locale.obj
 0002:0000cf08       ??_C@_15HIEBHAIO@?$AAn?$AAz?$AA?$AA@ 0000000180048f08     libucrt:get_qualified_locale.obj
 0002:0000cf10       ??_C@_1BC@CHBCPFPI@?$AAp?$AAr?$AA?5?$AAc?$AAh?$AAi?$AAn?$AAa?$AA?$AA@ 0000000180048f10     libucrt:get_qualified_locale.obj
 0002:0000cf28       ??_C@_1BC@JAOIIFKD@?$AAp?$AAr?$AA?9?$AAc?$AAh?$AAi?$AAn?$AAa?$AA?$AA@ 0000000180048f28     libucrt:get_qualified_locale.obj
 0002:0000cf40       ??_C@_1BI@BEHPPHKC@?$AAp?$AAu?$AAe?$AAr?$AAt?$AAo?$AA?9?$AAr?$AAi?$AAc?$AAo?$AA?$AA@ 0000000180048f40     libucrt:get_qualified_locale.obj
 0002:0000cf58       ??_C@_1O@PAEOFKDI@?$AAs?$AAl?$AAo?$AAv?$AAa?$AAk?$AA?$AA@ 0000000180048f58     libucrt:get_qualified_locale.obj
 0002:0000cf68       ??_C@_1BK@FIHMCKAM@?$AAs?$AAo?$AAu?$AAt?$AAh?$AA?5?$AAa?$AAf?$AAr?$AAi?$AAc?$AAa?$AA?$AA@ 0000000180048f68     libucrt:get_qualified_locale.obj
 0002:0000cf88       ??_C@_1BI@NAEOODKB@?$AAs?$AAo?$AAu?$AAt?$AAh?$AA?5?$AAk?$AAo?$AAr?$AAe?$AAa?$AA?$AA@ 0000000180048f88     libucrt:get_qualified_locale.obj
 0002:0000cfa0       ??_C@_1BK@FBDGGIFF@?$AAs?$AAo?$AAu?$AAt?$AAh?$AA?9?$AAa?$AAf?$AAr?$AAi?$AAc?$AAa?$AA?$AA@ 0000000180048fa0     libucrt:get_qualified_locale.obj
 0002:0000cfc0       ??_C@_1BI@GHLEJDPK@?$AAs?$AAo?$AAu?$AAt?$AAh?$AA?9?$AAk?$AAo?$AAr?$AAe?$AAa?$AA?$AA@ 0000000180048fc0     libucrt:get_qualified_locale.obj
 0002:0000cfd8       ??_C@_1CE@PLHLOMJF@?$AAt?$AAr?$AAi?$AAn?$AAi?$AAd?$AAa?$AAd?$AA?5?$AA?$CG?$AA?5?$AAt?$AAo?$AAb?$AAa?$AAg?$AAo?$AA?$AA@ 0000000180048fd8     libucrt:get_qualified_locale.obj
 0002:0000d000       ??_C@_1BO@MODIMHHI@?$AAu?$AAn?$AAi?$AAt?$AAe?$AAd?$AA?9?$AAk?$AAi?$AAn?$AAg?$AAd?$AAo?$AAm?$AA?$AA@ 0000000180049000     libucrt:get_qualified_locale.obj
 0002:0000d020       ??_C@_1BM@FFHJONBJ@?$AAu?$AAn?$AAi?$AAt?$AAe?$AAd?$AA?9?$AAs?$AAt?$AAa?$AAt?$AAe?$AAs?$AA?$AA@ 0000000180049020     libucrt:get_qualified_locale.obj
 0002:0000d040       ??_C@_17DNCLJFIF@?$AAA?$AAC?$AAP?$AA?$AA@ 0000000180049040     libucrt:get_qualified_locale.obj
 0002:0000d048       ??_C@_17CIKBIHLH@?$AAO?$AAC?$AAP?$AA?$AA@ 0000000180049048     libucrt:get_qualified_locale.obj
 0002:0000d050       __rglangidNotDefault       0000000180049050     libucrt:getqloc_downlevel.obj
 0002:0000ef50       ??_C@_1BA@BALFACEM@?$AAC?$AAO?$AAN?$AAO?$AAU?$AAT?$AA$?$AA?$AA@ 000000018004af50     libucrt:initcon.obj
 0002:0000ef60       __log10_256_lead           000000018004af60     libucrt:log10_256_lead_tail_table.obj
 0002:0000f770       __log10_256_tail           000000018004b770     libucrt:log10_256_lead_tail_table.obj
 0002:0000ff78       ??_C@_1BK@DBDEIDLH@?$AAK?$AAE?$AAR?$AAN?$AAE?$AAL?$AA3?$AA2?$AA?4?$AAD?$AAL?$AAL?$AA?$AA@ 000000018004bf78     DelayImp:delayhlp.obj
 0002:0000ff98       __pfnDliFailureHook2       000000018004bf98     DelayImp:delayhk1.obj
 0002:0000ffa0       _load_config_used          000000018004bfa0     LIBCMT:loadcfg.obj
 0002:00010038       ??_C@_0BA@JFNIOLAK@string?5too?5long?$AA@ 000000018004c038     binding.obj
 0002:00010050       ??_C@_1IC@ONMCPCFM@?$AAc?$AA?3?$AA?2?$AAt?$AAm?$AAp?$AA?2?$AAn?$AAo?$AAd?$AAe?$AA?9?$AAr?$AAd?$AAk?$AAa?$AAf?$AAk?$AAa?$AA?2?$AAn?$AAo?$AAd?$AAe?$AA_?$AAm?$AAo?$AAd?$AAu?$AAl?$AAe?$AAs@ 000000018004c050     binding.obj
 0002:000100e0       ??_C@_1FK@CBGIJHDF@?$AAv?$AAa?$AAl?$AAu?$AAe?$AA?4?$AAs?$AAi?$AAz?$AAe?$AA?$CI?$AA?$CJ?$AA?5?$AA?$DM?$AA?$DN?$AA?5?$AAI?$AAN?$AAT?$AA_?$AAM?$AAA?$AAX?$AA?5?$AA?$CG?$AA?$CG?$AA?5?$AA?$CC?$AAs?$AAt?$AAr?$AAi@ 000000018004c0e0     binding.obj
 0002:00010140       ??_C@_0BB@IKBIFPPL@builtin?4features?$AA@ 000000018004c140     binding.obj
 0002:00010158       ??_C@_0BG@JLPIEFEK@ErrorCode?3?3ERR__BEGIN?$AA@ 000000018004c158     binding.obj
 0002:00010170       ??_C@_0BI@FCCMFLDC@ErrorCode?3?3ERR__BAD_MSG?$AA@ 000000018004c170     binding.obj
 0002:00010188       ??_C@_0CA@PLJDDKOA@ErrorCode?3?3ERR__BAD_COMPRESSION?$AA@ 000000018004c188     binding.obj
 0002:000101a8       ??_C@_0BI@MAAIFHJG@ErrorCode?3?3ERR__DESTROY?$AA@ 000000018004c1a8     binding.obj
 0002:000101c0       ??_C@_0BF@OIHOIP@ErrorCode?3?3ERR__FAIL?$AA@ 000000018004c1c0     binding.obj
 0002:000101d8       ??_C@_0BK@CNFKMLHO@ErrorCode?3?3ERR__TRANSPORT?$AA@ 000000018004c1d8     binding.obj
 0002:000101f8       ??_C@_0CC@IOMMNDPE@ErrorCode?3?3ERR__CRIT_SYS_RESOURC@ 000000018004c1f8     binding.obj
 0002:00010220       ??_C@_0BI@CIKKCMKH@ErrorCode?3?3ERR__RESOLVE?$AA@ 000000018004c220     binding.obj
 0002:00010238       ??_C@_0BO@EKAHMPGI@ErrorCode?3?3ERR__MSG_TIMED_OUT?$AA@ 000000018004c238     binding.obj
 0002:00010258       ??_C@_0BO@PAAIOGNL@ErrorCode?3?3ERR__PARTITION_EOF?$AA@ 000000018004c258     binding.obj
 0002:00010278       ??_C@_0CC@NFGNMCI@ErrorCode?3?3ERR__UNKNOWN_PARTITIO@ 000000018004c278     binding.obj
 0002:000102a0       ??_C@_0BD@LBKPLKOM@ErrorCode?3?3ERR__FS?$AA@ 000000018004c2a0     binding.obj
 0002:000102b8       ??_C@_0BO@LCLFGNB@ErrorCode?3?3ERR__UNKNOWN_TOPIC?$AA@ 000000018004c2b8     binding.obj
 0002:000102d8       ??_C@_0CB@LBCLLLGF@ErrorCode?3?3ERR__ALL_BROKERS_DOWN@ 000000018004c2d8     binding.obj
 0002:00010300       ??_C@_0BM@ODNHMHBN@ErrorCode?3?3ERR__INVALID_ARG?$AA@ 000000018004c300     binding.obj
 0002:00010320       ??_C@_0BK@MPKLOFBA@ErrorCode?3?3ERR__TIMED_OUT?$AA@ 000000018004c320     binding.obj
 0002:00010340       ??_C@_0BL@HDEAHOJC@ErrorCode?3?3ERR__QUEUE_FULL?$AA@ 000000018004c340     binding.obj
 0002:00010360       ??_C@_0BL@GDFINGMP@ErrorCode?3?3ERR__ISR_INSUFF?$AA@ 000000018004c360     binding.obj
 0002:00010380       ??_C@_0BM@MDPAMJNH@ErrorCode?3?3ERR__NODE_UPDATE?$AA@ 000000018004c380     binding.obj
 0002:000103a0       ??_C@_0BE@JCAGKGEN@ErrorCode?3?3ERR__SSL?$AA@ 000000018004c3a0     binding.obj
 0002:000103b8       ??_C@_0BL@MEEBLGFB@ErrorCode?3?3ERR__WAIT_COORD?$AA@ 000000018004c3b8     binding.obj
 0002:000103d8       ??_C@_0BO@GKLACJJI@ErrorCode?3?3ERR__UNKNOWN_GROUP?$AA@ 000000018004c3d8     binding.obj
 0002:000103f8       ??_C@_0BM@HAJCDAOM@ErrorCode?3?3ERR__IN_PROGRESS?$AA@ 000000018004c3f8     binding.obj
 0002:00010418       ??_C@_0CB@IPODIPLB@ErrorCode?3?3ERR__PREV_IN_PROGRESS@ 000000018004c418     binding.obj
 0002:00010440       ??_C@_0CG@IKHBIDPC@ErrorCode?3?3ERR__EXISTING_SUBSCRI@ 000000018004c440     binding.obj
 0002:00010468       ??_C@_0CC@EGLDFPKJ@ErrorCode?3?3ERR__ASSIGN_PARTITION@ 000000018004c468     binding.obj
 0002:00010490       ??_C@_0CC@KHGMNHMM@ErrorCode?3?3ERR__REVOKE_PARTITION@ 000000018004c490     binding.obj
 0002:000104b8       ??_C@_0BJ@JBMHNJHA@ErrorCode?3?3ERR__CONFLICT?$AA@ 000000018004c4b8     binding.obj
 0002:000104d8       ??_C@_0BG@NMJDJMHC@ErrorCode?3?3ERR__STATE?$AA@ 000000018004c4d8     binding.obj
 0002:000104f0       ??_C@_0CB@DDMBAECM@ErrorCode?3?3ERR__UNKNOWN_PROTOCOL@ 000000018004c4f0     binding.obj
 0002:00010518       ??_C@_0CA@KAOKABFC@ErrorCode?3?3ERR__NOT_IMPLEMENTED?$AA@ 000000018004c518     binding.obj
 0002:00010538       ??_C@_0BP@NKDMBOEM@ErrorCode?3?3ERR__AUTHENTICATION?$AA@ 000000018004c538     binding.obj
 0002:00010558       ??_C@_0BK@DAACPLAM@ErrorCode?3?3ERR__NO_OFFSET?$AA@ 000000018004c558     binding.obj
 0002:00010578       ??_C@_0BJ@ECEABM@ErrorCode?3?3ERR__OUTDATED?$AA@ 000000018004c578     binding.obj
 0002:00010598       ??_C@_0BE@DLFDBECF@ErrorCode?3?3ERR__END?$AA@ 000000018004c598     binding.obj
 0002:000105b0       ??_C@_0BH@KPIOIANO@ErrorCode?3?3ERR_UNKNOWN?$AA@ 000000018004c5b0     binding.obj
 0002:000105c8       ??_C@_0BI@FMEMBDJP@ErrorCode?3?3ERR_NO_ERROR?$AA@ 000000018004c5c8     binding.obj
 0002:000105e0       ??_C@_0CD@HFCEBKLK@ErrorCode?3?3ERR_OFFSET_OUT_OF_RAN@ 000000018004c5e0     binding.obj
 0002:00010608       ??_C@_0BL@NKCGOJKF@ErrorCode?3?3ERR_INVALID_MSG?$AA@ 000000018004c608     binding.obj
 0002:00010628       ??_C@_0CF@NCMOKN@ErrorCode?3?3ERR_UNKNOWN_TOPIC_OR_@ 000000018004c628     binding.obj
 0002:00010650       ??_C@_0CA@NMPFABDL@ErrorCode?3?3ERR_INVALID_MSG_SIZE?$AA@ 000000018004c650     binding.obj
 0002:00010670       ??_C@_0CE@PCNEJOF@ErrorCode?3?3ERR_LEADER_NOT_AVAILA@ 000000018004c670     binding.obj
 0002:00010698       ??_C@_0CI@HOOAOAAO@ErrorCode?3?3ERR_NOT_LEADER_FOR_PA@ 000000018004c698     binding.obj
 0002:000106c0       ??_C@_0CB@CMKGIGFJ@ErrorCode?3?3ERR_REQUEST_TIMED_OUT@ 000000018004c6c0     binding.obj
 0002:000106e8       ??_C@_0CE@LPGCPKBN@ErrorCode?3?3ERR_BROKER_NOT_AVAILA@ 000000018004c6e8     binding.obj
 0002:00010710       ??_C@_0CF@NPPLILDK@ErrorCode?3?3ERR_REPLICA_NOT_AVAIL@ 000000018004c710     binding.obj
 0002:00010738       ??_C@_0CC@PHMOBDFD@ErrorCode?3?3ERR_MSG_SIZE_TOO_LARG@ 000000018004c738     binding.obj
 0002:00010760       ??_C@_0CA@NCOCBBOO@ErrorCode?3?3ERR_STALE_CTRL_EPOCH?$AA@ 000000018004c760     binding.obj
 0002:00010780       ??_C@_0CJ@OAPALGAP@ErrorCode?3?3ERR_OFFSET_METADATA_T@ 000000018004c780     binding.obj
 0002:000107b0       ??_C@_0CB@LADDOCLE@ErrorCode?3?3ERR_NETWORK_EXCEPTION@ 000000018004c7b0     binding.obj
 0002:000107d8       ??_C@_0CG@BNFGAFDI@ErrorCode?3?3ERR_GROUP_LOAD_IN_PRO@ 000000018004c7d8     binding.obj
 0002:00010800       ??_C@_0CP@HBIALBPH@ErrorCode?3?3ERR_GROUP_COORDINATOR@ 000000018004c800     binding.obj
 0002:00010830       ??_C@_0CJ@GBLFNAAD@ErrorCode?3?3ERR_NOT_COORDINATOR_F@ 000000018004c830     binding.obj
 0002:00010860       ??_C@_0BP@DJJENCD@ErrorCode?3?3ERR_TOPIC_EXCEPTION?$AA@ 000000018004c860     binding.obj
 0002:00010880       ??_C@_0CF@JEMCINJN@ErrorCode?3?3ERR_RECORD_LIST_TOO_L@ 000000018004c880     binding.obj
 0002:000108a8       ??_C@_0CD@DJLMDDPD@ErrorCode?3?3ERR_NOT_ENOUGH_REPLIC@ 000000018004c8a8     binding.obj
 0002:000108d0       ??_C@_0DA@DPCCGAKH@ErrorCode?3?3ERR_NOT_ENOUGH_REPLIC@ 000000018004c8d0     binding.obj
 0002:00010900       ??_C@_0CF@DEMHIBNP@ErrorCode?3?3ERR_INVALID_REQUIRED_@ 000000018004c900     binding.obj
 0002:00010928       ??_C@_0CC@CLLKBLDL@ErrorCode?3?3ERR_ILLEGAL_GENERATIO@ 000000018004c928     binding.obj
 0002:00010950       ??_C@_0CL@IBLADMCN@ErrorCode?3?3ERR_INCONSISTENT_GROU@ 000000018004c950     binding.obj
 0002:00010980       ??_C@_0CA@CCKMLIMB@ErrorCode?3?3ERR_INVALID_GROUP_ID?$AA@ 000000018004c980     binding.obj
 0002:000109a0       ??_C@_0CB@MAKCPPMC@ErrorCode?3?3ERR_UNKNOWN_MEMBER_ID@ 000000018004c9a0     binding.obj
 0002:000109c8       ??_C@_0CH@IFDLGLNL@ErrorCode?3?3ERR_INVALID_SESSION_T@ 000000018004c9c8     binding.obj
 0002:000109f0       ??_C@_0CF@HLLILDKC@ErrorCode?3?3ERR_REBALANCE_IN_PROG@ 000000018004c9f0     binding.obj
 0002:00010a18       ??_C@_0CK@HEACMMNC@ErrorCode?3?3ERR_INVALID_COMMIT_OF@ 000000018004ca18     binding.obj
 0002:00010a48       ??_C@_0CK@DHPKANFC@ErrorCode?3?3ERR_TOPIC_AUTHORIZATI@ 000000018004ca48     binding.obj
 0002:00010a78       ??_C@_0CK@OBFDOHJF@ErrorCode?3?3ERR_GROUP_AUTHORIZATI@ 000000018004ca78     binding.obj
 0002:00010aa8       ??_C@_0CM@PBPLOCKM@ErrorCode?3?3ERR_CLUSTER_AUTHORIZA@ 000000018004caa8     binding.obj
 0002:00010ad8       ??_C@_0CA@EKHEPIOO@ErrorCode?3?3ERR__TIMED_OUT_QUEUE?$AA@ 000000018004cad8     binding.obj
 0002:00010af8       ??_C@_0L@IHMKGCHO@errorCodes?$AA@ 000000018004caf8     binding.obj
 0002:00010b08       ??_C@_0BN@GLDCAAC@RdKafka?3?3Topic?3?3PARTITION_UA?$AA@ 000000018004cb08     binding.obj
 0002:00010b28       ??_C@_0CB@KCPBJAGM@RdKafka?3?3Topic?3?3OFFSET_BEGINNING@ 000000018004cb28     binding.obj
 0002:00010b50       ??_C@_0BL@EEPLOBEF@RdKafka?3?3Topic?3?3OFFSET_END?$AA@ 000000018004cb50     binding.obj
 0002:00010b70       ??_C@_0BO@EJIIBNEN@RdKafka?3?3Topic?3?3OFFSET_STORED?$AA@ 000000018004cb70     binding.obj
 0002:00010b90       ??_C@_0BP@MEKNLDIK@RdKafka?3?3Topic?3?3OFFSET_INVALID?$AA@ 000000018004cb90     binding.obj
 0002:00010bb0       ??_C@_05KHAFJJEA@topic?$AA@ 000000018004cbb0     binding.obj
 0002:00010bb8       ??_C@_07NDFBNMON@err2str?$AA@ 000000018004cbb8     binding.obj
 0002:00010bc0       ??_C@_08KJPMJBHA@features?$AA@ 000000018004cbc0     binding.obj
 0002:00010bd0       ??_C@_0BC@DIPIDPDK@librdkafkaVersion?$AA@ 000000018004cbd0     binding.obj
 0002:00010be8       ??_C@_0BC@OMDPIAIO@?4?4?2src?2binding?4cc?$AA@ 000000018004cbe8     binding.obj
 0002:00010bfc       ??_C@_05KOHFCJMA@kafka?$AA@ 000000018004cbfc     binding.obj
 0002:00010c08       ??_C@_0BI@CFPLBAOH@invalid?5string?5position?$AA@ 000000018004cc08     binding.obj
 0002:00010c20       ??_C@_00CNPNBAHC@?$AA@     000000018004cc20     callbacks.obj
 0002:00010c30       ??_C@_1FG@KIJHPOEN@?$AAC?$AA?3?$AA?2?$AAt?$AAm?$AAp?$AA?2?$AAn?$AAo?$AAd?$AAe?$AA?9?$AAr?$AAd?$AAk?$AAa?$AAf?$AAk?$AAa?$AA?2?$AAn?$AAo?$AAd?$AAe?$AA_?$AAm?$AAo?$AAd?$AAu?$AAl?$AAe?$AAs@ 000000018004cc30     callbacks.obj
 0002:00010c90       ??_C@_1FM@LOELJOFK@?$AAs?$AAi?$AAz?$AAe?$AA?5?$AA?$DM?$AA?$DN?$AA?5?$AAi?$AAm?$AAp?$AA?3?$AA?3?$AAk?$AAM?$AAa?$AAx?$AAL?$AAe?$AAn?$AAg?$AAt?$AAh?$AA?5?$AA?$CG?$AA?$CG?$AA?5?$AA?$CC?$AAt?$AAo?$AAo?$AA?5@ 000000018004cc90     callbacks.obj
 0002:00010cf0       ??_C@_0BI@KPLHLBNP@nan?3Callback?3operator?$CI?$CJ?$AA@ 000000018004ccf0     callbacks.obj
 0002:00010d08       ??_C@_0BC@EBHDFLHM@nan?3Callback?3Call?$AA@ 000000018004cd08     callbacks.obj
 0002:00010d20       ??_C@_09IKAEIPAD@partition?$AA@ 000000018004cd20     callbacks.obj
 0002:00010d2c       ??_C@_06KLHHMIGM@offset?$AA@ 000000018004cd2c     callbacks.obj
 0002:00010d34       ??_C@_05KKCIMGE@error?$AA@ 000000018004cd34     callbacks.obj
 0002:00010d3c       ??_C@_05BLKJBNOD@stats?$AA@ 000000018004cd3c     callbacks.obj
 0002:00010d48       ??_C@_07ONPBMBOP@message?$AA@ 000000018004cd48     callbacks.obj
 0002:00010d50       ??_C@_03MGHMBJCF@log?$AA@  000000018004cd50     callbacks.obj
 0002:00010d58       ??_C@_08PHGLMIHD@severity?$AA@ 000000018004cd58     callbacks.obj
 0002:00010d64       ??_C@_03MHDDBBEP@fac?$AA@  000000018004cd64     callbacks.obj
 0002:00010d68       ??_C@_08IEKKGCGJ@throttle?$AA@ 000000018004cd68     callbacks.obj
 0002:00010d78       ??_C@_0N@GAHIKCIO@throttleTime?$AA@ 000000018004cd78     callbacks.obj
 0002:00010d88       ??_C@_0L@MDJPLIIA@brokerName?$AA@ 000000018004cd88     callbacks.obj
 0002:00010d98       ??_C@_08HEOFJPMN@brokerId?$AA@ 000000018004cd98     callbacks.obj
 0002:00010da4       ??_C@_05GFHEIIDD@event?$AA@ 000000018004cda4     callbacks.obj
 0002:00010dac       ??_C@_03ICHNJLJF@key?$AA@  000000018004cdac     callbacks.obj
 0002:00010db0       ??_C@_06CJCOLNBB@opaque?$AA@ 000000018004cdb0     callbacks.obj
 0002:00010db8       ??_C@_09OMDJNLDP@timestamp?$AA@ 000000018004cdb8     callbacks.obj
 0002:00010dc4       ??_C@_05MFEJDJP@value?$AA@ 000000018004cdc4     callbacks.obj
 0002:00010dcc       ??_C@_04IAGNFIBA@size?$AA@ 000000018004cdcc     callbacks.obj
 0002:00010dd8       ??_C@_0BD@OLBABOEK@vector?$DMT?$DO?5too?5long?$AA@ 000000018004cdd8     callbacks.obj
 0002:00010df8       ??_7Event@Callbacks@NodeKafka@@6B@ 000000018004cdf8     callbacks.obj
 0002:00010e10       ??_7Dispatcher@Callbacks@NodeKafka@@6B@ 000000018004ce10     callbacks.obj
 0002:00010e20       ??_7EventDispatcher@Callbacks@NodeKafka@@6B@ 000000018004ce20     callbacks.obj
 0002:00010e30       ??_7DeliveryReportDispatcher@Callbacks@NodeKafka@@6B@ 000000018004ce30     callbacks.obj
 0002:00010e40       ??_7Delivery@Callbacks@NodeKafka@@6B@ 000000018004ce40     callbacks.obj
 0002:00010e58       ??_7RebalanceDispatcher@Callbacks@NodeKafka@@6B@ 000000018004ce58     callbacks.obj
 0002:00010e68       ??_7Rebalance@Callbacks@NodeKafka@@6B@ 000000018004ce68     callbacks.obj
 0002:00010e80       ??_7Partitioner@Callbacks@NodeKafka@@6B@ 000000018004ce80     callbacks.obj
 0002:00010e98       ??_7OffsetCommit@Callbacks@NodeKafka@@6B@ 000000018004ce98     callbacks.obj
 0002:00010eb0       ??_7OffsetCommitDispatcher@Callbacks@NodeKafka@@6B@ 000000018004ceb0     callbacks.obj
 0002:00010eb8       ??_C@_0BC@BDKFLDHL@unknown?5exception?$AA@ 000000018004ceb8     common.obj
 0002:00010ed0       ??_C@_0BA@ELKIONDK@bad?5locale?5name?$AA@ 000000018004ced0     common.obj
 0002:00010ee0       ??_C@_02LMMGGCAJ@?3?5?$AA@ 000000018004cee0     common.obj
 0002:00010ee8       ??_C@_08LLGCOLLL@iostream?$AA@ 000000018004cee8     common.obj
 0002:00010ef8       ??_C@_0BG@PADBLCHM@iostream?5stream?5error?$AA@ 000000018004cef8     common.obj
 0002:00010f10       ??_C@_0BF@PHHKMMFD@ios_base?3?3badbit?5set?$AA@ 000000018004cf10     common.obj
 0002:00010f28       ??_C@_0BG@FMKFHCIL@ios_base?3?3failbit?5set?$AA@ 000000018004cf28     common.obj
 0002:00010f40       ??_C@_0BF@OOHOMBOF@ios_base?3?3eofbit?5set?$AA@ 000000018004cf40     common.obj
 0002:00010f58       ??_C@_1BO@OPFMAOCA@?$AAl?$AAe?$AAn?$AA?5?$AA?$DM?$AA?$DN?$AA?5?$AAI?$AAN?$AAT?$AA_?$AAM?$AAA?$AAX?$AA?$AA@ 000000018004cf58     common.obj
 0002:00010f78       ??_C@_1BE@CKDJNAPC@?$AAs?$AAt?$AAr?$AA_?$AA?5?$AA?$CB?$AA?$DN?$AA?5?$AA0?$AA?$AA@ 000000018004cf78     common.obj
 0002:00010f8c       ??_C@_02KLLMIGEE@?$CF?5?$AA@ 000000018004cf8c     common.obj
 0002:00010f90       ??_C@_02EGCJHIOB@id?$AA@   000000018004cf90     common.obj
 0002:00010f94       ??_C@_04OODOLJMA@host?$AA@ 000000018004cf94     common.obj
 0002:00010f9c       ??_C@_04LPGMAPLE@port?$AA@ 000000018004cf9c     common.obj
 0002:00010fa4       ??_C@_04MEMAJGDJ@name?$AA@ 000000018004cfa4     common.obj
 0002:00010fac       ??_C@_06DFLPLEOP@leader?$AA@ 000000018004cfac     common.obj
 0002:00010fb8       ??_C@_08DMEAHHCE@replicas?$AA@ 000000018004cfb8     common.obj
 0002:00010fc4       ??_C@_04IHBCIEKH@isrs?$AA@ 000000018004cfc4     common.obj
 0002:00010fd0       ??_C@_0L@JNJBHPAA@partitions?$AA@ 000000018004cfd0     common.obj
 0002:00010fe0       ??_C@_0P@IOJOIIPF@orig_broker_id?$AA@ 000000018004cfe0     common.obj
 0002:00010ff0       ??_C@_0BB@FHNDHLMH@orig_broker_name?$AA@ 000000018004cff0     common.obj
 0002:00011004       ??_C@_06HCGJGODM@topics?$AA@ 000000018004d004     common.obj
 0002:00011010       ??_C@_07DLDLCMLL@brokers?$AA@ 000000018004d010     common.obj
 0002:00011020       ??_7exception@stdext@@6B@  000000018004d020     common.obj
 0002:00011040       ??_7runtime_error@std@@6B@ 000000018004d040     common.obj
 0002:00011060       ??_7_System_error@std@@6B@ 000000018004d060     common.obj
 0002:00011080       ??_7system_error@std@@6B@  000000018004d080     common.obj
 0002:000110a0       ??_7failure@ios_base@std@@6B@ 000000018004d0a0     common.obj
 0002:000110b8       ??_C@_0N@IAFGCIFB@rebalance_cb?$AA@ 000000018004d0b8     config.obj
 0002:000110c8       ??_C@_0BB@HFKDGBCN@offset_commit_cb?$AA@ 000000018004d0c8     config.obj
 0002:000110e0       ??_C@_1DG@OKCGPKIB@?$AAp?$AAe?$AAr?$AAs?$AAi?$AAs?$AAt?$AAe?$AAn?$AAt?$AA?$CI?$AA?$CJ?$AA?4?$AAI?$AAs?$AAN?$AAe?$AAa?$AAr?$AAD?$AAe?$AAa?$AAt?$AAh?$AA?$CI?$AA?$CJ?$AA?$AA@ 000000018004d0e0     connection.obj
 0002:00011118       ??_C@_1DA@FBGAEOIO@?$AA?$CB?$AAp?$AAe?$AAr?$AAs?$AAi?$AAs?$AAt?$AAe?$AAn?$AAt?$AA?$CI?$AA?$CJ?$AA?4?$AAI?$AAs?$AAE?$AAm?$AAp?$AAt?$AAy?$AA?$CI?$AA?$CJ?$AA?$AA@ 000000018004d118     connection.obj
 0002:00011148       ??_C@_1CO@JCKLEFMA@?$AA?$CB?$AAp?$AAe?$AAr?$AAs?$AAi?$AAs?$AAt?$AAe?$AAn?$AAt?$AA?$CI?$AA?$CJ?$AA?4?$AAI?$AAs?$AAW?$AAe?$AAa?$AAk?$AA?$CI?$AA?$CJ?$AA?$AA@ 000000018004d148     connection.obj
 0002:00011178       ??_C@_1BE@GMLLOIPJ@?$AAr?$AAe?$AAf?$AAs?$AA_?$AA?5?$AA?$DO?$AA?5?$AA0?$AA?$AA@ 000000018004d178     connection.obj
 0002:00011190       ??_C@_1CC@GBFLAAPF@?$AAw?$AAr?$AAa?$AAp?$AA?9?$AA?$DO?$AAr?$AAe?$AAf?$AAs?$AA_?$AA?5?$AA?$DN?$AA?$DN?$AA?5?$AA0?$AA?$AA@ 000000018004d190     connection.obj
 0002:000111c0       ??_C@_1GO@FLDIPLPJ@?$AAc?$AA?3?$AA?2?$AAt?$AAm?$AAp?$AA?2?$AAn?$AAo?$AAd?$AAe?$AA?9?$AAr?$AAd?$AAk?$AAa?$AAf?$AAk?$AAa?$AA?2?$AAn?$AAo?$AAd?$AAe?$AA_?$AAm?$AAo?$AAd?$AAu?$AAl?$AAe?$AAs@ 000000018004d1c0     connection.obj
 0002:00011230       ??_C@_1EC@MGGLMBLC@?$AAo?$AAb?$AAj?$AAe?$AAc?$AAt?$AA?9?$AA?$DO?$AAI?$AAn?$AAt?$AAe?$AAr?$AAn?$AAa?$AAl?$AAF?$AAi?$AAe?$AAl?$AAd?$AAC?$AAo?$AAu?$AAn?$AAt?$AA?$CI?$AA?$CJ?$AA?5?$AA?$DO?$AA?5?$AA0@ 000000018004d230     connection.obj
 0002:00011278       ??_C@_1DI@ELDBKNAK@?$AAw?$AAr?$AAa?$AAp?$AA?9?$AA?$DO?$AAh?$AAa?$AAn?$AAd?$AAl?$AAe?$AA_?$AA?4?$AAI?$AAs?$AAN?$AAe?$AAa?$AAr?$AAD?$AAe?$AAa?$AAt?$AAh?$AA?$CI?$AA?$CJ?$AA?$AA@ 000000018004d278     connection.obj
 0002:000112b0       ??_C@_08MCLJPGC@event_cb?$AA@ 000000018004d2b0     connection.obj
 0002:000112c0       ??_C@_0CE@ILNHGCNL@Second?5parameter?5must?5be?5a?5callb@ 000000018004d2c0     connection.obj
 0002:000112e8       ??_C@_09MAAEEIKC@allTopics?$AA@ 000000018004d2e8     connection.obj
 0002:000112f8       ??_C@_07DDHNKDGP@timeout?$AA@ 000000018004d2f8     connection.obj
 0002:00011300       ??_C@_0CN@JDCLNOPP@Need?5to?5specify?5an?5array?5of?5topi@ 000000018004d300     connection.obj
 0002:00011330       ??_C@_0CF@LKHKNIEJ@1st?5parameter?5must?5be?5a?5topic?5st@ 000000018004d330     connection.obj
 0002:00011358       ??_C@_0CJ@JHJNGLMD@2nd?5parameter?5must?5be?5a?5partitio@ 000000018004d358     connection.obj
 0002:00011388       ??_C@_0CP@KAACANLK@3rd?5parameter?5must?5be?5a?5number?5o@ 000000018004d388     connection.obj
 0002:000113b8       ??_C@_0CB@BENOIIIC@4th?5parameter?5must?5be?5a?5callback@ 000000018004d3b8     connection.obj
 0002:000113e0       ??_C@_0BL@DKJOLHL@Need?5to?5specify?5a?5callback?$AA@ 000000018004d3e0     connection.obj
 0002:00011400       ??_C@_1CE@LNAGEONJ@?$AA?$CB?$AAo?$AAb?$AAj?$AAe?$AAc?$AAt?$AA?4?$AAI?$AAs?$AAE?$AAm?$AAp?$AAt?$AAy?$AA?$CI?$AA?$CJ?$AA?$AA@ 000000018004d400     connection.obj
 0002:00011430       ??_7Connection@NodeKafka@@6B@ 000000018004d430     connection.obj
 0002:00011460       ??_7ObjectWrap@Nan@@6B@    000000018004d460     connection.obj
 0002:00011478       ??_C@_04NDFOBODE@code?$AA@ 000000018004d478     errors.obj
 0002:00011480       ??_C@_1CO@EGNPJLKI@?$AAp?$AAe?$AAr?$AAs?$AAi?$AAs?$AAt?$AAe?$AAn?$AAt?$AA?$CI?$AA?$CJ?$AA?4?$AAI?$AAs?$AAE?$AAm?$AAp?$AAt?$AAy?$AA?$CI?$AA?$CJ?$AA?$AA@ 000000018004d480     kafka-consumer.obj
 0002:000114b0       ??_C@_0BD@JKCEHHPF@default_topic_conf?$AA@ 000000018004d4b0     kafka-consumer.obj
 0002:000114c8       ??_C@_0BO@GLGBAFFC@KafkaConsumer?5is?5disconnected?$AA@ 000000018004d4c8     kafka-consumer.obj
 0002:000114e8       ??_C@_0BP@CPMBDOCM@KafkaConsumer?5is?5not?5connected?$AA@ 000000018004d4e8     kafka-consumer.obj
 0002:00011508       ??_C@_0BK@FCBFBJAG@Consumer?5is?5not?5connected?$AA@ 000000018004d508     kafka-consumer.obj
 0002:00011528       ??_C@_0O@GKJPGJPJ@KafkaConsumer?$AA@ 000000018004d528     kafka-consumer.obj
 0002:00011538       ??_C@_07GEHKHGGA@onEvent?$AA@ 000000018004d538     kafka-consumer.obj
 0002:00011540       ??_C@_07KAIBNCHO@connect?$AA@ 000000018004d540     kafka-consumer.obj
 0002:00011548       ??_C@_0L@KKPFIJOL@disconnect?$AA@ 000000018004d548     kafka-consumer.obj
 0002:00011558       ??_C@_0M@KKKOBKEG@getMetadata?$AA@ 000000018004d558     kafka-consumer.obj
 0002:00011568       ??_C@_0BG@LMMIHAAG@queryWatermarkOffsets?$AA@ 000000018004d568     kafka-consumer.obj
 0002:00011580       ??_C@_0BA@LLFEFEE@offsetsForTimes?$AA@ 000000018004d580     kafka-consumer.obj
 0002:00011590       ??_C@_0BE@CCMNDBCI@getWatermarkOffsets?$AA@ 000000018004d590     kafka-consumer.obj
 0002:000115a8       ??_C@_0N@DCIEFFHI@subscription?$AA@ 000000018004d5a8     kafka-consumer.obj
 0002:000115b8       ??_C@_09OMPELEIG@subscribe?$AA@ 000000018004d5b8     kafka-consumer.obj
 0002:000115c8       ??_C@_0M@MKOAFBEF@unsubscribe?$AA@ 000000018004d5c8     kafka-consumer.obj
 0002:000115d8       ??_C@_0M@NKNAKFIL@consumeLoop?$AA@ 000000018004d5d8     kafka-consumer.obj
 0002:000115e8       ??_C@_07DBKPNIMI@consume?$AA@ 000000018004d5e8     kafka-consumer.obj
 0002:000115f0       ??_C@_04EDECCOGL@seek?$AA@ 000000018004d5f0     kafka-consumer.obj
 0002:000115f8       ??_C@_05PDJBBECF@pause?$AA@ 000000018004d5f8     kafka-consumer.obj
 0002:00011600       ??_C@_06PLELHCEK@resume?$AA@ 000000018004d600     kafka-consumer.obj
 0002:00011608       ??_C@_09IMIJHGPO@committed?$AA@ 000000018004d608     kafka-consumer.obj
 0002:00011618       ??_C@_08OAGMDKAF@position?$AA@ 000000018004d618     kafka-consumer.obj
 0002:00011624       ??_C@_06IMFOKBKF@assign?$AA@ 000000018004d624     kafka-consumer.obj
 0002:00011630       ??_C@_08IIGOFOGG@unassign?$AA@ 000000018004d630     kafka-consumer.obj
 0002:00011640       ??_C@_0M@NFKPDEEL@assignments?$AA@ 000000018004d640     kafka-consumer.obj
 0002:0001164c       ??_C@_06IFNEBLAJ@commit?$AA@ 000000018004d64c     kafka-consumer.obj
 0002:00011658       ??_C@_0L@HAOAPAOM@commitSync?$AA@ 000000018004d658     kafka-consumer.obj
 0002:00011668       ??_C@_0N@PCOEHEPG@offsetsStore?$AA@ 000000018004d668     kafka-consumer.obj
 0002:00011678       ??_C@_0CJ@IPKDMCOA@non?9constructor?5invocation?5not?5s@ 000000018004d678     kafka-consumer.obj
 0002:000116a8       ??_C@_0CP@JEILJKBG@You?5must?5supply?5global?5and?5topic@ 000000018004d6a8     kafka-consumer.obj
 0002:000116d8       ??_C@_0CM@IPGPHFB@Global?5configuration?5data?5must?5b@ 000000018004d6d8     kafka-consumer.obj
 0002:00011708       ??_C@_0CG@OEANMBLF@Topic?5configuration?5must?5be?5spec@ 000000018004d708     kafka-consumer.obj
 0002:00011730       ??_C@_0CH@LIPEGELN@Need?5to?5specify?5an?5array?5of?5part@ 000000018004d730     kafka-consumer.obj
 0002:00011758       ??_C@_0CC@GCHCAJED@Must?5pass?5topic?9partition?5object@ 000000018004d758     kafka-consumer.obj
 0002:00011780       ??_C@_0CB@CIIIMCEP@Invalid?5topic?5partition?5provided@ 000000018004d780     kafka-consumer.obj
 0002:000117a8       ??_C@_0CO@HCGCMKFN@First?5parameter?5must?5be?5an?5objec@ 000000018004d7a8     kafka-consumer.obj
 0002:000117d8       ??_C@_0CB@MLLBHOO@First?5parameter?5must?5be?5an?5array@ 000000018004d7d8     kafka-consumer.obj
 0002:00011800       ??_C@_0DG@OKCAAIPE@Must?5provide?5a?5topic?5partition?0?5@ 000000018004d800     kafka-consumer.obj
 0002:00011838       ??_C@_0CC@GOICINAG@Topic?5partition?5must?5be?5an?5objec@ 000000018004d838     kafka-consumer.obj
 0002:00011860       ??_C@_0BK@NPADAGOD@Timeout?5must?5be?5a?5number?4?$AA@ 000000018004d860     kafka-consumer.obj
 0002:00011880       ??_C@_0BM@FIGLNHDP@Callback?5must?5be?5a?5function?$AA@ 000000018004d880     kafka-consumer.obj
 0002:000118a0       ??_C@_0CI@ELKHKCD@Must?5provide?5a?5list?5of?5topic?5par@ 000000018004d8a0     kafka-consumer.obj
 0002:000118c8       ??_C@_0CM@NKPAIEPA@Topic?5partition?5must?5be?5an?5array@ 000000018004d8c8     kafka-consumer.obj
 0002:000118f8       ??_C@_0BN@KGKKLFLP@Invalid?5number?5of?5parameters?$AA@ 000000018004d8f8     kafka-consumer.obj
 0002:00011918       ??_C@_0BK@KKHCFPDE@Need?5to?5specify?5a?5timeout?$AA@ 000000018004d918     kafka-consumer.obj
 0002:00011938       ??_C@_0CC@FMJIHABO@Parameter?5must?5be?5a?5number?5over?5@ 000000018004d938     kafka-consumer.obj
 0002:00011960       ??_C@_09PELIHEPK@lowOffset?$AA@ 000000018004d960     kafka-consumer.obj
 0002:00011970       ??_C@_0L@GOMIJAMG@highOffset?$AA@ 000000018004d970     kafka-consumer.obj
 0002:00011988       ??_7KafkaConsumer@NodeKafka@@6B@ 000000018004d988     kafka-consumer.obj
 0002:000119b0       ??_C@_05NAHOMDBH@dr_cb?$AA@ 000000018004d9b0     producer.obj
 0002:000119b8       ??_C@_08CAPOGIGH@Producer?$AA@ 000000018004d9b8     producer.obj
 0002:000119c4       ??_C@_04CLMPBJJH@poll?$AA@ 000000018004d9c4     producer.obj
 0002:000119d0       ??_C@_0BB@NFCOIMJO@onDeliveryReport?$AA@ 000000018004d9d0     producer.obj
 0002:000119e8       ??_C@_0P@NEBKAMDK@setPartitioner?$AA@ 000000018004d9e8     producer.obj
 0002:000119f8       ??_C@_07NGJAKGDD@produce?$AA@ 000000018004d9f8     producer.obj
 0002:00011a00       ??_C@_05GLCAEPFP@flush?$AA@ 000000018004da00     producer.obj
 0002:00011a08       ??_C@_0DA@OHIABEIO@Need?5to?5specify?5a?5topic?0?5partiti@ 000000018004da08     producer.obj
 0002:00011a38       ??_C@_0CB@HDAEPOAD@Message?5must?5be?5a?5buffer?5or?5null@ 000000018004da38     producer.obj
 0002:00011a60       ??_C@_0BL@OHPBGLFN@Timestamp?5must?5be?5a?5number?$AA@ 000000018004da60     producer.obj
 0002:00011a80       ??_C@_0BJ@NOMCGCKJ@Producer?5is?5disconnected?$AA@ 000000018004da80     producer.obj
 0002:00011aa0       ??_C@_0CJ@DKJCLHAC@Need?5to?5specify?5a?5timeout?5and?5a?5@ 000000018004daa0     producer.obj
 0002:00011ad8       ??_7Producer@NodeKafka@@6B@ 000000018004dad8     producer.obj
 0002:00011b00       ??_C@_05KAKJJMHG@Topic?$AA@ 000000018004db00     topic.obj
 0002:00011b08       ??_C@_0BH@PHFBEEI@topic?5name?5is?5required?$AA@ 000000018004db08     topic.obj
 0002:00011b20       ??_C@_0BM@GPBEPHJB@Topic?5name?5must?5be?5a?5string?$AA@ 000000018004db20     topic.obj
 0002:00011b40       ??_C@_0CF@EKEFDMDL@Configuration?5data?5must?5be?5speci@ 000000018004db40     topic.obj
 0002:00011b70       ??_7Topic@NodeKafka@@6B@   000000018004db70     topic.obj
 0002:00011b88       ??_C@_0BA@KEENCHNI@nan?3AsyncWorker?$AA@ 000000018004db88     workers.obj
 0002:00011b98       ??_C@_1CE@JBACKEGO@?$AA?4?$AA?4?$AA?2?$AAs?$AAr?$AAc?$AA?2?$AAw?$AAo?$AAr?$AAk?$AAe?$AAr?$AAs?$AA?4?$AAc?$AAc?$AA?$AA@ 000000018004db98     workers.obj
 0002:00011bbc       ??_C@_13COJANIEC@?$AA0?$AA?$AA@ 000000018004dbbc     workers.obj
 0002:00011bc8       ??_7AsyncWorker@Nan@@6B@   000000018004dbc8     workers.obj
 0002:00011c00       ??_7KafkaConsumerSeek@Workers@NodeKafka@@6B@ 000000018004dc00     workers.obj
 0002:00011c38       ??_7ProducerConnect@Workers@NodeKafka@@6B@ 000000018004dc38     workers.obj
 0002:00011c70       ??_7KafkaConsumerDisconnect@Workers@NodeKafka@@6B@ 000000018004dc70     workers.obj
 0002:00011ca8       ??_7ProducerFlush@Workers@NodeKafka@@6B@ 000000018004dca8     workers.obj
 0002:00011ce0       ??_7ErrorAwareWorker@Workers@NodeKafka@@6B@ 000000018004dce0     workers.obj
 0002:00011d18       ??_7KafkaConsumerConsumeLoop@Workers@NodeKafka@@6B@ 000000018004dd18     workers.obj
 0002:00011d60       ??_7KafkaConsumerConsume@Workers@NodeKafka@@6B@ 000000018004dd60     workers.obj
 0002:00011d98       ??_7KafkaConsumerCommitted@Workers@NodeKafka@@6B@ 000000018004dd98     workers.obj
 0002:00011dd0       ??_7KafkaConsumerConsumeNum@Workers@NodeKafka@@6B@ 000000018004ddd0     workers.obj
 0002:00011e08       ??_7ProducerDisconnect@Workers@NodeKafka@@6B@ 000000018004de08     workers.obj
 0002:00011e40       ??_7ConnectionQueryWatermarkOffsets@Workers@NodeKafka@@6B@ 000000018004de40     workers.obj
 0002:00011e78       ??_7ConnectionMetadata@Workers@NodeKafka@@6B@ 000000018004de78     workers.obj
 0002:00011eb0       ??_7MessageWorker@Workers@NodeKafka@@6B@ 000000018004deb0     workers.obj
 0002:00011ef8       ??_7KafkaConsumerConnect@Workers@NodeKafka@@6B@ 000000018004def8     workers.obj
 0002:00011f30       ??_7OffsetsForTimes@Handle@Workers@NodeKafka@@6B@ 000000018004df30     workers.obj
 0002:00011f60       ??_C@_08HCOMDCCD@iojs?4exe?$AA@ 000000018004df60     win_delay_load_hook.obj
 0002:00011f70       ??_C@_08JDDNMFDB@node?4exe?$AA@ 000000018004df70     win_delay_load_hook.obj
 0002:00011f80       __pfnDliNotifyHook2        000000018004df80     win_delay_load_hook.obj
 0002:00011f88       __real@3ff0000000000000    000000018004df88     binding.obj
 0002:00011f90       __real@4000000000000000    000000018004df90     binding.obj
 0002:00011f98       __real@4008000000000000    000000018004df98     binding.obj
 0002:00011fa0       __real@4010000000000000    000000018004dfa0     binding.obj
 0002:00011fa8       __real@4014000000000000    000000018004dfa8     binding.obj
 0002:00011fb0       __real@4018000000000000    000000018004dfb0     binding.obj
 0002:00011fb8       __real@401c000000000000    000000018004dfb8     binding.obj
 0002:00011fc0       __real@4020000000000000    000000018004dfc0     binding.obj
 0002:00011fc8       __real@4022000000000000    000000018004dfc8     binding.obj
 0002:00011fd0       __real@4024000000000000    000000018004dfd0     binding.obj
 0002:00011fd8       __real@4026000000000000    000000018004dfd8     binding.obj
 0002:00011fe0       __real@4028000000000000    000000018004dfe0     binding.obj
 0002:00011fe8       __real@402a000000000000    000000018004dfe8     binding.obj
 0002:00011ff0       __real@402c000000000000    000000018004dff0     binding.obj
 0002:00011ff8       __real@402e000000000000    000000018004dff8     binding.obj
 0002:00012000       __real@4030000000000000    000000018004e000     binding.obj
 0002:00012008       __real@4031000000000000    000000018004e008     binding.obj
 0002:00012010       __real@4032000000000000    000000018004e010     binding.obj
 0002:00012018       __real@4033000000000000    000000018004e018     binding.obj
 0002:00012020       __real@4034000000000000    000000018004e020     binding.obj
 0002:00012028       __real@4035000000000000    000000018004e028     binding.obj
 0002:00012030       __real@4036000000000000    000000018004e030     binding.obj
 0002:00012038       __real@4037000000000000    000000018004e038     binding.obj
 0002:00012040       __real@4038000000000000    000000018004e040     binding.obj
 0002:00012048       __real@4039000000000000    000000018004e048     binding.obj
 0002:00012050       __real@403a000000000000    000000018004e050     binding.obj
 0002:00012058       __real@403b000000000000    000000018004e058     binding.obj
 0002:00012060       __real@403c000000000000    000000018004e060     binding.obj
 0002:00012068       __real@403d000000000000    000000018004e068     binding.obj
 0002:00012070       __real@403e000000000000    000000018004e070     binding.obj
 0002:00012078       __real@403f000000000000    000000018004e078     binding.obj
 0002:00012080       __real@43f0000000000000    000000018004e080     callbacks.obj
 0002:00012088       __real@bff0000000000000    000000018004e088     callbacks.obj
 0002:00012090       __real@c059000000000000    000000018004e090     binding.obj
 0002:00012098       __real@c064c00000000000    000000018004e098     binding.obj
 0002:000120a0       __real@c064e00000000000    000000018004e0a0     binding.obj
 0002:000120a8       __real@c065000000000000    000000018004e0a8     binding.obj
 0002:000120b0       __real@c065200000000000    000000018004e0b0     binding.obj
 0002:000120b8       __real@c065400000000000    000000018004e0b8     binding.obj
 0002:000120c0       __real@c065600000000000    000000018004e0c0     binding.obj
 0002:000120c8       __real@c065800000000000    000000018004e0c8     binding.obj
 0002:000120d0       __real@c065a00000000000    000000018004e0d0     binding.obj
 0002:000120d8       __real@c065c00000000000    000000018004e0d8     binding.obj
 0002:000120e0       __real@c065e00000000000    000000018004e0e0     binding.obj
 0002:000120e8       __real@c066000000000000    000000018004e0e8     binding.obj
 0002:000120f0       __real@c066200000000000    000000018004e0f0     binding.obj
 0002:000120f8       __real@c066400000000000    000000018004e0f8     binding.obj
 0002:00012100       __real@c066600000000000    000000018004e100     binding.obj
 0002:00012108       __real@c066800000000000    000000018004e108     binding.obj
 0002:00012110       __real@c066a00000000000    000000018004e110     binding.obj
 0002:00012118       __real@c066c00000000000    000000018004e118     binding.obj
 0002:00012120       __real@c066e00000000000    000000018004e120     binding.obj
 0002:00012128       __real@c067000000000000    000000018004e128     binding.obj
 0002:00012130       __real@c067200000000000    000000018004e130     binding.obj
 0002:00012138       __real@c067400000000000    000000018004e138     binding.obj
 0002:00012140       __real@c067600000000000    000000018004e140     binding.obj
 0002:00012148       __real@c067800000000000    000000018004e148     binding.obj
 0002:00012150       __real@c067a00000000000    000000018004e150     binding.obj
 0002:00012158       __real@c067c00000000000    000000018004e158     binding.obj
 0002:00012160       __real@c067e00000000000    000000018004e160     binding.obj
 0002:00012168       __real@c068000000000000    000000018004e168     binding.obj
 0002:00012170       __real@c068200000000000    000000018004e170     binding.obj
 0002:00012178       __real@c068400000000000    000000018004e178     binding.obj
 0002:00012180       __real@c068600000000000    000000018004e180     binding.obj
 0002:00012188       __real@c068800000000000    000000018004e188     binding.obj
 0002:00012190       __real@c068a00000000000    000000018004e190     binding.obj
 0002:00012198       __real@c068c00000000000    000000018004e198     binding.obj
 0002:000121a0       __real@c068e00000000000    000000018004e1a0     binding.obj
 0002:000121a8       __real@c069000000000000    000000018004e1a8     binding.obj
 0002:000121b8       ??_7bad_typeid@std@@6B@    000000018004e1b8     libvcruntime:rtti.obj
 0002:000121d0       ??_7__non_rtti_object@std@@6B@ 000000018004e1d0     libvcruntime:rtti.obj
 0002:000121e0       ??_C@_0CB@CGKGGDFI@Access?5violation?5?9?5no?5RTTI?5data?$CB@ 000000018004e1e0     libvcruntime:rtti.obj
 0002:00012208       ??_C@_0BC@JNJNLHBP@Bad?5dynamic_cast?$CB?$AA@ 000000018004e208     libvcruntime:rtti.obj
 0002:00012290       _tls_used                  000000018004e290     LIBCMT:tlssup.obj
 0002:000122b8       ??_R4exception@std@@6B@    000000018004e2b8     libcpmt:xthrow.obj
 0002:000122e0       ??_R3exception@std@@8      000000018004e2e0     libcpmt:xthrow.obj
 0002:000122f8       ??_R2exception@std@@8      000000018004e2f8     libcpmt:xthrow.obj
 0002:00012308       ??_R1A@?0A@EA@exception@std@@8 000000018004e308     libcpmt:xthrow.obj
 0002:00012330       ??_R4bad_alloc@std@@6B@    000000018004e330     libcpmt:xthrow.obj
 0002:00012358       ??_R3bad_alloc@std@@8      000000018004e358     libcpmt:xthrow.obj
 0002:00012370       ??_R2bad_alloc@std@@8      000000018004e370     libcpmt:xthrow.obj
 0002:00012388       ??_R1A@?0A@EA@bad_alloc@std@@8 000000018004e388     libcpmt:xthrow.obj
 0002:000123b0       ??_R4logic_error@std@@6B@  000000018004e3b0     libcpmt:xthrow.obj
 0002:000123d8       ??_R3logic_error@std@@8    000000018004e3d8     libcpmt:xthrow.obj
 0002:000123f0       ??_R2logic_error@std@@8    000000018004e3f0     libcpmt:xthrow.obj
 0002:00012408       ??_R1A@?0A@EA@logic_error@std@@8 000000018004e408     libcpmt:xthrow.obj
 0002:00012430       ??_R4length_error@std@@6B@ 000000018004e430     libcpmt:xthrow.obj
 0002:00012458       ??_R3length_error@std@@8   000000018004e458     libcpmt:xthrow.obj
 0002:00012470       ??_R2length_error@std@@8   000000018004e470     libcpmt:xthrow.obj
 0002:00012490       ??_R1A@?0A@EA@length_error@std@@8 000000018004e490     libcpmt:xthrow.obj
 0002:000124b8       ??_R4out_of_range@std@@6B@ 000000018004e4b8     libcpmt:xthrow.obj
 0002:000124e0       ??_R3out_of_range@std@@8   000000018004e4e0     libcpmt:xthrow.obj
 0002:000124f8       ??_R2out_of_range@std@@8   000000018004e4f8     libcpmt:xthrow.obj
 0002:00012518       ??_R1A@?0A@EA@out_of_range@std@@8 000000018004e518     libcpmt:xthrow.obj
 0002:00012540       ??_R4_Locimp@locale@std@@6B@ 000000018004e540     libcpmt:locale0.obj
 0002:00012568       ??_R3_Locimp@locale@std@@8 000000018004e568     libcpmt:locale0.obj
 0002:00012580       ??_R2_Locimp@locale@std@@8 000000018004e580     libcpmt:locale0.obj
 0002:000125a8       ??_R1A@?0A@EA@_Locimp@locale@std@@8 000000018004e5a8     libcpmt:locale0.obj
 0002:000125d0       ??_R4ios_base@std@@6B@     000000018004e5d0     libcpmt:cerr.obj
 0002:000125f8       ??_R3ios_base@std@@8       000000018004e5f8     libcpmt:cerr.obj
 0002:00012610       ??_R2ios_base@std@@8       000000018004e610     libcpmt:cerr.obj
 0002:00012628       ??_R1A@?0A@EA@ios_base@std@@8 000000018004e628     libcpmt:cerr.obj
 0002:00012650       ??_R17?0A@EA@?$_Iosb@H@std@@8 000000018004e650     libcpmt:cerr.obj
 0002:00012678       ??_R3?$_Iosb@H@std@@8      000000018004e678     libcpmt:cerr.obj
 0002:00012690       ??_R2?$_Iosb@H@std@@8      000000018004e690     libcpmt:cerr.obj
 0002:000126a0       ??_R1A@?0A@EA@?$_Iosb@H@std@@8 000000018004e6a0     libcpmt:cerr.obj
 0002:000126c8       ??_R4?$basic_ios@DU?$char_traits@D@std@@@std@@6B@ 000000018004e6c8     libcpmt:cerr.obj
 0002:000126f0       ??_R3?$basic_ios@DU?$char_traits@D@std@@@std@@8 000000018004e6f0     libcpmt:cerr.obj
 0002:00012708       ??_R2?$basic_ios@DU?$char_traits@D@std@@@std@@8 000000018004e708     libcpmt:cerr.obj
 0002:00012728       ??_R1A@?0A@EA@?$basic_ios@DU?$char_traits@D@std@@@std@@8 000000018004e728     libcpmt:cerr.obj
 0002:00012750       ??_R4?$basic_streambuf@DU?$char_traits@D@std@@@std@@6B@ 000000018004e750     libcpmt:cerr.obj
 0002:00012778       ??_R3?$basic_streambuf@DU?$char_traits@D@std@@@std@@8 000000018004e778     libcpmt:cerr.obj
 0002:00012790       ??_R2?$basic_streambuf@DU?$char_traits@D@std@@@std@@8 000000018004e790     libcpmt:cerr.obj
 0002:000127a0       ??_R1A@?0A@EA@?$basic_streambuf@DU?$char_traits@D@std@@@std@@8 000000018004e7a0     libcpmt:cerr.obj
 0002:000127c8       ??_R4?$basic_ostream@DU?$char_traits@D@std@@@std@@6B@ 000000018004e7c8     libcpmt:cerr.obj
 0002:000127f0       ??_R3?$basic_ostream@DU?$char_traits@D@std@@@std@@8 000000018004e7f0     libcpmt:cerr.obj
 0002:00012808       ??_R2?$basic_ostream@DU?$char_traits@D@std@@@std@@8 000000018004e808     libcpmt:cerr.obj
 0002:00012830       ??_R1A@?0A@EA@?$basic_ostream@DU?$char_traits@D@std@@@std@@8 000000018004e830     libcpmt:cerr.obj
 0002:00012858       ??_R1A@A@3FA@?$basic_ios@DU?$char_traits@D@std@@@std@@8 000000018004e858     libcpmt:cerr.obj
 0002:00012880       ??_R1A@A@3EA@ios_base@std@@8 000000018004e880     libcpmt:cerr.obj
 0002:000128a8       ??_R17A@3EA@?$_Iosb@H@std@@8 000000018004e8a8     libcpmt:cerr.obj
 0002:000128d0       ??_R4?$basic_filebuf@DU?$char_traits@D@std@@@std@@6B@ 000000018004e8d0     libcpmt:cerr.obj
 0002:000128f8       ??_R3?$basic_filebuf@DU?$char_traits@D@std@@@std@@8 000000018004e8f8     libcpmt:cerr.obj
 0002:00012910       ??_R2?$basic_filebuf@DU?$char_traits@D@std@@@std@@8 000000018004e910     libcpmt:cerr.obj
 0002:00012928       ??_R1A@?0A@EA@?$basic_filebuf@DU?$char_traits@D@std@@@std@@8 000000018004e928     libcpmt:cerr.obj
 0002:00012950       ??_R4bad_cast@std@@6B@     000000018004e950     libcpmt:cerr.obj
 0002:00012978       ??_R3bad_cast@std@@8       000000018004e978     libcpmt:cerr.obj
 0002:00012990       ??_R2bad_cast@std@@8       000000018004e990     libcpmt:cerr.obj
 0002:000129a8       ??_R1A@?0A@EA@bad_cast@std@@8 000000018004e9a8     libcpmt:cerr.obj
 0002:000129d0       ??_R3codecvt_base@std@@8   000000018004e9d0     libcpmt:cerr.obj
 0002:000129e8       ??_R2codecvt_base@std@@8   000000018004e9e8     libcpmt:cerr.obj
 0002:00012a10       ??_R1A@?0A@EA@codecvt_base@std@@8 000000018004ea10     libcpmt:cerr.obj
 0002:00012a38       ??_R4?$codecvt@DDU_Mbstatet@@@std@@6B@ 000000018004ea38     libcpmt:cerr.obj
 0002:00012a60       ??_R3?$codecvt@DDU_Mbstatet@@@std@@8 000000018004ea60     libcpmt:cerr.obj
 0002:00012a78       ??_R2?$codecvt@DDU_Mbstatet@@@std@@8 000000018004ea78     libcpmt:cerr.obj
 0002:00012aa8       ??_R1A@?0A@EA@?$codecvt@DDU_Mbstatet@@@std@@8 000000018004eaa8     libcpmt:cerr.obj
 0002:00012ad0       ??_R4type_info@@6B@        000000018004ead0     LIBCMT:std_type_info_static.obj
 0002:00012af8       ??_R3type_info@@8          000000018004eaf8     LIBCMT:std_type_info_static.obj
 0002:00012b10       ??_R2type_info@@8          000000018004eb10     LIBCMT:std_type_info_static.obj
 0002:00012b20       ??_R1A@?0A@EA@type_info@@8 000000018004eb20     LIBCMT:std_type_info_static.obj
 0002:00012b48       ??_R4bad_array_new_length@std@@6B@ 000000018004eb48     LIBCMT:throw_bad_alloc.obj
 0002:00012b70       ??_R3bad_array_new_length@std@@8 000000018004eb70     LIBCMT:throw_bad_alloc.obj
 0002:00012b88       ??_R2bad_array_new_length@std@@8 000000018004eb88     LIBCMT:throw_bad_alloc.obj
 0002:00012ba8       ??_R1A@?0A@EA@bad_array_new_length@std@@8 000000018004eba8     LIBCMT:throw_bad_alloc.obj
 0002:00012bd0       ??_R4bad_exception@std@@6B@ 000000018004ebd0     libvcruntime:frame.obj
 0002:00012bf8       ??_R3bad_exception@std@@8  000000018004ebf8     libvcruntime:frame.obj
 0002:00012c10       ??_R2bad_exception@std@@8  000000018004ec10     libvcruntime:frame.obj
 0002:00012c28       ??_R1A@?0A@EA@bad_exception@std@@8 000000018004ec28     libvcruntime:frame.obj
 0002:00012c50       ??_R1A@?0A@EA@EventCb@RdKafka@@8 000000018004ec50     callbacks.obj
 0002:00012c78       ??_R1A@?0A@EA@Partitioner@Callbacks@NodeKafka@@8 000000018004ec78     callbacks.obj
 0002:00012ca0       ??_R4EventDispatcher@Callbacks@NodeKafka@@6B@ 000000018004eca0     callbacks.obj
 0002:00012cc8       ??_R1A@?0A@EA@Event@Callbacks@NodeKafka@@8 000000018004ecc8     callbacks.obj
 0002:00012cf0       ??_R3RebalanceCb@RdKafka@@8 000000018004ecf0     callbacks.obj
 0002:00012d08       ??_R1A@?0A@EA@OffsetCommitDispatcher@Callbacks@NodeKafka@@8 000000018004ed08     callbacks.obj
 0002:00012d30       ??_R3Rebalance@Callbacks@NodeKafka@@8 000000018004ed30     callbacks.obj
 0002:00012d48       ??_R3OffsetCommit@Callbacks@NodeKafka@@8 000000018004ed48     callbacks.obj
 0002:00012d60       ??_R3DeliveryReportDispatcher@Callbacks@NodeKafka@@8 000000018004ed60     callbacks.obj
 0002:00012d78       ??_R2Dispatcher@Callbacks@NodeKafka@@8 000000018004ed78     callbacks.obj
 0002:00012d88       ??_R1A@?0A@EA@RebalanceCb@RdKafka@@8 000000018004ed88     callbacks.obj
 0002:00012db0       ??_R1A@?0A@EA@DeliveryReportCb@RdKafka@@8 000000018004edb0     callbacks.obj
 0002:00012dd8       ??_R3Dispatcher@Callbacks@NodeKafka@@8 000000018004edd8     callbacks.obj
 0002:00012df0       ??_R1A@?0A@EA@EventDispatcher@Callbacks@NodeKafka@@8 000000018004edf0     callbacks.obj
 0002:00012e18       ??_R4DeliveryReportDispatcher@Callbacks@NodeKafka@@6B@ 000000018004ee18     callbacks.obj
 0002:00012e40       ??_R1A@?0A@EA@RebalanceDispatcher@Callbacks@NodeKafka@@8 000000018004ee40     callbacks.obj
 0002:00012e68       ??_R2Delivery@Callbacks@NodeKafka@@8 000000018004ee68     callbacks.obj
 0002:00012e80       ??_R2DeliveryReportDispatcher@Callbacks@NodeKafka@@8 000000018004ee80     callbacks.obj
 0002:00012e98       ??_R3Delivery@Callbacks@NodeKafka@@8 000000018004ee98     callbacks.obj
 0002:00012eb0       ??_R2OffsetCommitDispatcher@Callbacks@NodeKafka@@8 000000018004eeb0     callbacks.obj
 0002:00012ec8       ??_R1A@?0A@EA@OffsetCommit@Callbacks@NodeKafka@@8 000000018004eec8     callbacks.obj
 0002:00012ef0       ??_R1A@?0A@EA@OffsetCommitCb@RdKafka@@8 000000018004eef0     callbacks.obj
 0002:00012f18       ??_R3OffsetCommitCb@RdKafka@@8 000000018004ef18     callbacks.obj
 0002:00012f30       ??_R2OffsetCommit@Callbacks@NodeKafka@@8 000000018004ef30     callbacks.obj
 0002:00012f48       ??_R1A@?0A@EA@Dispatcher@Callbacks@NodeKafka@@8 000000018004ef48     callbacks.obj
 0002:00012f70       ??_R1A@?0A@EA@DeliveryReportDispatcher@Callbacks@NodeKafka@@8 000000018004ef70     callbacks.obj
 0002:00012f98       ??_R1A@?0A@EA@PartitionerCb@RdKafka@@8 000000018004ef98     callbacks.obj
 0002:00012fc0       ??_R4OffsetCommitDispatcher@Callbacks@NodeKafka@@6B@ 000000018004efc0     callbacks.obj
 0002:00012fe8       ??_R2Rebalance@Callbacks@NodeKafka@@8 000000018004efe8     callbacks.obj
 0002:00013000       ??_R2Partitioner@Callbacks@NodeKafka@@8 000000018004f000     callbacks.obj
 0002:00013018       ??_R2PartitionerCb@RdKafka@@8 000000018004f018     callbacks.obj
 0002:00013028       ??_R4OffsetCommit@Callbacks@NodeKafka@@6B@ 000000018004f028     callbacks.obj
 0002:00013050       ??_R1A@?0A@EA@Delivery@Callbacks@NodeKafka@@8 000000018004f050     callbacks.obj
 0002:00013078       ??_R3OffsetCommitDispatcher@Callbacks@NodeKafka@@8 000000018004f078     callbacks.obj
 0002:00013090       ??_R3EventDispatcher@Callbacks@NodeKafka@@8 000000018004f090     callbacks.obj
 0002:000130a8       ??_R4Rebalance@Callbacks@NodeKafka@@6B@ 000000018004f0a8     callbacks.obj
 0002:000130d0       ??_R2DeliveryReportCb@RdKafka@@8 000000018004f0d0     callbacks.obj
 0002:000130e0       ??_R2RebalanceDispatcher@Callbacks@NodeKafka@@8 000000018004f0e0     callbacks.obj
 0002:000130f8       ??_R4RebalanceDispatcher@Callbacks@NodeKafka@@6B@ 000000018004f0f8     callbacks.obj
 0002:00013120       ??_R3DeliveryReportCb@RdKafka@@8 000000018004f120     callbacks.obj
 0002:00013138       ??_R3RebalanceDispatcher@Callbacks@NodeKafka@@8 000000018004f138     callbacks.obj
 0002:00013150       ??_R1A@?0A@EA@Rebalance@Callbacks@NodeKafka@@8 000000018004f150     callbacks.obj
 0002:00013178       ??_R3Event@Callbacks@NodeKafka@@8 000000018004f178     callbacks.obj
 0002:00013190       ??_R3PartitionerCb@RdKafka@@8 000000018004f190     callbacks.obj
 0002:000131a8       ??_R4Dispatcher@Callbacks@NodeKafka@@6B@ 000000018004f1a8     callbacks.obj
 0002:000131d0       ??_R4Partitioner@Callbacks@NodeKafka@@6B@ 000000018004f1d0     callbacks.obj
 0002:000131f8       ??_R2EventDispatcher@Callbacks@NodeKafka@@8 000000018004f1f8     callbacks.obj
 0002:00013210       ??_R2RebalanceCb@RdKafka@@8 000000018004f210     callbacks.obj
 0002:00013220       ??_R4Delivery@Callbacks@NodeKafka@@6B@ 000000018004f220     callbacks.obj
 0002:00013248       ??_R3Partitioner@Callbacks@NodeKafka@@8 000000018004f248     callbacks.obj
 0002:00013260       ??_R2OffsetCommitCb@RdKafka@@8 000000018004f260     callbacks.obj
 0002:00013270       ??_R4Event@Callbacks@NodeKafka@@6B@ 000000018004f270     callbacks.obj
 0002:00013298       ??_R2Event@Callbacks@NodeKafka@@8 000000018004f298     callbacks.obj
 0002:000132b0       ??_R2EventCb@RdKafka@@8    000000018004f2b0     callbacks.obj
 0002:000132c0       ??_R3EventCb@RdKafka@@8    000000018004f2c0     callbacks.obj
 0002:000132d8       ??_R2system_error@std@@8   000000018004f2d8     common.obj
 0002:00013300       ??_R1A@?0A@EA@system_error@std@@8 000000018004f300     common.obj
 0002:00013328       ??_R3?$ctype@D@std@@8      000000018004f328     common.obj
 0002:00013340       ??_R1A@?0A@EA@_Iostream_error_category@std@@8 000000018004f340     common.obj
 0002:00013368       ??_R4runtime_error@std@@6B@ 000000018004f368     common.obj
 0002:00013390       ??_R4_System_error@std@@6B@ 000000018004f390     common.obj
 0002:000133b8       ??_R3_Facet_base@std@@8    000000018004f3b8     common.obj
 0002:000133d0       ??_R3_Crt_new_delete@std@@8 000000018004f3d0     common.obj
 0002:000133e8       ??_R1A@?0A@EA@runtime_error@std@@8 000000018004f3e8     common.obj
 0002:00013410       ??_R2_System_error@std@@8  000000018004f410     common.obj
 0002:00013430       ??_R3exception@stdext@@8   000000018004f430     common.obj
 0002:00013448       ??_R4_Iostream_error_category@std@@6B@ 000000018004f448     common.obj
 0002:00013470       ??_R4system_error@std@@6B@ 000000018004f470     common.obj
 0002:00013498       ??_R1A@?0A@EA@_Generic_error_category@std@@8 000000018004f498     common.obj
 0002:000134c0       ??_R1A@?0A@EA@_Facet_base@std@@8 000000018004f4c0     common.obj
 0002:000134e8       ??_R3_System_error@std@@8  000000018004f4e8     common.obj
 0002:00013500       ??_R3_Iostream_error_category@std@@8 000000018004f500     common.obj
 0002:00013518       ??_R17?0A@EA@_Crt_new_delete@std@@8 000000018004f518     common.obj
 0002:00013540       ??_R4failure@ios_base@std@@6B@ 000000018004f540     common.obj
 0002:00013568       ??_R4exception@stdext@@6B@ 000000018004f568     common.obj
 0002:00013590       ??_R3_Generic_error_category@std@@8 000000018004f590     common.obj
 0002:000135a8       ??_R2_Iostream_error_category@std@@8 000000018004f5a8     common.obj
 0002:000135c8       ??_R2error_category@std@@8 000000018004f5c8     common.obj
 0002:000135d8       ??_R1A@?0A@EA@facet@locale@std@@8 000000018004f5d8     common.obj
 0002:00013600       ??_R2exception@stdext@@8   000000018004f600     common.obj
 0002:00013610       ??_R2failure@ios_base@std@@8 000000018004f610     common.obj
 0002:00013640       ??_R4error_category@std@@6B@ 000000018004f640     common.obj
 0002:00013668       ??_R3failure@ios_base@std@@8 000000018004f668     common.obj
 0002:00013680       ??_R2?$ctype@D@std@@8      000000018004f680     common.obj
 0002:000136b0       ??_R1A@?0A@EA@failure@ios_base@std@@8 000000018004f6b0     common.obj
 0002:000136d8       ??_R3facet@locale@std@@8   000000018004f6d8     common.obj
 0002:000136f0       ??_R3ctype_base@std@@8     000000018004f6f0     common.obj
 0002:00013708       ??_R2_Generic_error_category@std@@8 000000018004f708     common.obj
 0002:00013720       ??_R1A@?0A@EA@_System_error@std@@8 000000018004f720     common.obj
 0002:00013748       ??_R3error_category@std@@8 000000018004f748     common.obj
 0002:00013760       ??_R1A@?0A@EA@_Crt_new_delete@std@@8 000000018004f760     common.obj
 0002:00013788       ??_R4_Facet_base@std@@6B@  000000018004f788     common.obj
 0002:000137b0       ??_R2runtime_error@std@@8  000000018004f7b0     common.obj
 0002:000137c8       ??_R1A@?0A@EA@ctype_base@std@@8 000000018004f7c8     common.obj
 0002:000137f0       ??_R2_Crt_new_delete@std@@8 000000018004f7f0     common.obj
 0002:00013800       ??_R1A@?0A@EA@?$ctype@D@std@@8 000000018004f800     common.obj
 0002:00013828       ??_R1A@?0A@EA@exception@stdext@@8 000000018004f828     common.obj
 0002:00013850       ??_R3system_error@std@@8   000000018004f850     common.obj
 0002:00013868       ??_R2_Facet_base@std@@8    000000018004f868     common.obj
 0002:00013878       ??_R2facet@locale@std@@8   000000018004f878     common.obj
 0002:00013898       ??_R4?$ctype@D@std@@6B@    000000018004f898     common.obj
 0002:000138c0       ??_R3runtime_error@std@@8  000000018004f8c0     common.obj
 0002:000138d8       ??_R2ctype_base@std@@8     000000018004f8d8     common.obj
 0002:00013900       ??_R1A@?0A@EA@error_category@std@@8 000000018004f900     common.obj
 0002:00013928       ??_R4ObjectWrap@Nan@@6B@   000000018004f928     connection.obj
 0002:00013950       ??_R1A@?0A@EA@ObjectWrap@Nan@@8 000000018004f950     connection.obj
 0002:00013978       ??_R3Connection@NodeKafka@@8 000000018004f978     connection.obj
 0002:00013990       ??_R4Connection@NodeKafka@@6B@ 000000018004f990     connection.obj
 0002:000139b8       ??_R2Connection@NodeKafka@@8 000000018004f9b8     connection.obj
 0002:000139d0       ??_R2ObjectWrap@Nan@@8     000000018004f9d0     connection.obj
 0002:000139e0       ??_R1A@?0A@EA@Connection@NodeKafka@@8 000000018004f9e0     connection.obj
 0002:00013a08       ??_R3ObjectWrap@Nan@@8     000000018004fa08     connection.obj
 0002:00013a20       ??_R3KafkaConsumer@NodeKafka@@8 000000018004fa20     kafka-consumer.obj
 0002:00013a38       ??_R4KafkaConsumer@NodeKafka@@6B@ 000000018004fa38     kafka-consumer.obj
 0002:00013a60       ??_R2KafkaConsumer@NodeKafka@@8 000000018004fa60     kafka-consumer.obj
 0002:00013a80       ??_R1A@?0A@EA@KafkaConsumer@NodeKafka@@8 000000018004fa80     kafka-consumer.obj
 0002:00013aa8       ??_R2Producer@NodeKafka@@8 000000018004faa8     producer.obj
 0002:00013ac8       ??_R3Producer@NodeKafka@@8 000000018004fac8     producer.obj
 0002:00013ae0       ??_R1A@?0A@EA@Producer@NodeKafka@@8 000000018004fae0     producer.obj
 0002:00013b08       ??_R4Producer@NodeKafka@@6B@ 000000018004fb08     producer.obj
 0002:00013b30       ??_R2Topic@NodeKafka@@8    000000018004fb30     topic.obj
 0002:00013b48       ??_R3Topic@NodeKafka@@8    000000018004fb48     topic.obj
 0002:00013b60       ??_R1A@?0A@EA@Topic@NodeKafka@@8 000000018004fb60     topic.obj
 0002:00013b88       ??_R4Topic@NodeKafka@@6B@  000000018004fb88     topic.obj
 0002:00013bb0       ??_R2AsyncWorker@Nan@@8    000000018004fbb0     workers.obj
 0002:00013bc0       ??_R3OffsetsForTimes@Handle@Workers@NodeKafka@@8 000000018004fbc0     workers.obj
 0002:00013bd8       ??_R1A@?0A@EA@KafkaConsumerCommitted@Workers@NodeKafka@@8 000000018004fbd8     workers.obj
 0002:00013c00       ??_R2KafkaConsumerDisconnect@Workers@NodeKafka@@8 000000018004fc00     workers.obj
 0002:00013c20       ??_R3ConnectionQueryWatermarkOffsets@Workers@NodeKafka@@8 000000018004fc20     workers.obj
 0002:00013c38       ??_R3KafkaConsumerConsumeNum@Workers@NodeKafka@@8 000000018004fc38     workers.obj
 0002:00013c50       ??_R2MessageWorker@Workers@NodeKafka@@8 000000018004fc50     workers.obj
 0002:00013c70       ??_R4KafkaConsumerConsumeNum@Workers@NodeKafka@@6B@ 000000018004fc70     workers.obj
 0002:00013c98       ??_R1A@?0A@EA@ProducerFlush@Workers@NodeKafka@@8 000000018004fc98     workers.obj
 0002:00013cc0       ??_R1A@?0A@EA@ConnectionMetadata@Workers@NodeKafka@@8 000000018004fcc0     workers.obj
 0002:00013ce8       ??_R2KafkaConsumerConnect@Workers@NodeKafka@@8 000000018004fce8     workers.obj
 0002:00013d08       ??_R4KafkaConsumerSeek@Workers@NodeKafka@@6B@ 000000018004fd08     workers.obj
 0002:00013d30       ??_R4ProducerFlush@Workers@NodeKafka@@6B@ 000000018004fd30     workers.obj
 0002:00013d58       ??_R3AsyncWorker@Nan@@8    000000018004fd58     workers.obj
 0002:00013d70       ??_R4KafkaConsumerConsume@Workers@NodeKafka@@6B@ 000000018004fd70     workers.obj
 0002:00013d98       ??_R3ConnectionMetadata@Workers@NodeKafka@@8 000000018004fd98     workers.obj
 0002:00013db0       ??_R4AsyncWorker@Nan@@6B@  000000018004fdb0     workers.obj
 0002:00013dd8       ??_R1A@?0A@EA@ProducerConnect@Workers@NodeKafka@@8 000000018004fdd8     workers.obj
 0002:00013e00       ??_R1A@?0A@EA@KafkaConsumerConsume@Workers@NodeKafka@@8 000000018004fe00     workers.obj
 0002:00013e28       ??_R1A@?0A@EA@AsyncWorker@Nan@@8 000000018004fe28     workers.obj
 0002:00013e50       ??_R2ConnectionQueryWatermarkOffsets@Workers@NodeKafka@@8 000000018004fe50     workers.obj
 0002:00013e70       ??_R4OffsetsForTimes@Handle@Workers@NodeKafka@@6B@ 000000018004fe70     workers.obj
 0002:00013e98       ??_R1A@?0A@EA@KafkaConsumerConsumeLoop@Workers@NodeKafka@@8 000000018004fe98     workers.obj
 0002:00013ec0       ??_R1A@?0A@EA@KafkaConsumerSeek@Workers@NodeKafka@@8 000000018004fec0     workers.obj
 0002:00013ee8       ??_R3KafkaConsumerSeek@Workers@NodeKafka@@8 000000018004fee8     workers.obj
 0002:00013f00       ??_R4KafkaConsumerCommitted@Workers@NodeKafka@@6B@ 000000018004ff00     workers.obj
 0002:00013f28       ??_R2KafkaConsumerSeek@Workers@NodeKafka@@8 000000018004ff28     workers.obj
 0002:00013f48       ??_R3KafkaConsumerConsumeLoop@Workers@NodeKafka@@8 000000018004ff48     workers.obj
 0002:00013f60       ??_R2ProducerDisconnect@Workers@NodeKafka@@8 000000018004ff60     workers.obj
 0002:00013f80       ??_R1A@?0A@EA@ProducerDisconnect@Workers@NodeKafka@@8 000000018004ff80     workers.obj
 0002:00013fa8       ??_R4ConnectionMetadata@Workers@NodeKafka@@6B@ 000000018004ffa8     workers.obj
 0002:00013fd0       ??_R4KafkaConsumerConsumeLoop@Workers@NodeKafka@@6B@ 000000018004ffd0     workers.obj
 0002:00013ff8       ??_R1A@?0A@EA@OffsetsForTimes@Handle@Workers@NodeKafka@@8 000000018004fff8     workers.obj
 0002:00014020       ??_R2ProducerFlush@Workers@NodeKafka@@8 0000000180050020     workers.obj
 0002:00014040       ??_R2ErrorAwareWorker@Workers@NodeKafka@@8 0000000180050040     workers.obj
 0002:00014058       ??_R3ProducerFlush@Workers@NodeKafka@@8 0000000180050058     workers.obj
 0002:00014070       ??_R2KafkaConsumerConsumeLoop@Workers@NodeKafka@@8 0000000180050070     workers.obj
 0002:00014098       ??_R3MessageWorker@Workers@NodeKafka@@8 0000000180050098     workers.obj
 0002:000140b0       ??_R1A@?0A@EA@KafkaConsumerConsumeNum@Workers@NodeKafka@@8 00000001800500b0     workers.obj
 0002:000140d8       ??_R1A@?0A@EA@ConnectionQueryWatermarkOffsets@Workers@NodeKafka@@8 00000001800500d8     workers.obj
 0002:00014100       ??_R4KafkaConsumerConnect@Workers@NodeKafka@@6B@ 0000000180050100     workers.obj
 0002:00014128       ??_R4KafkaConsumerDisconnect@Workers@NodeKafka@@6B@ 0000000180050128     workers.obj
 0002:00014150       ??_R3KafkaConsumerCommitted@Workers@NodeKafka@@8 0000000180050150     workers.obj
 0002:00014168       ??_R1A@?0A@EA@MessageWorker@Workers@NodeKafka@@8 0000000180050168     workers.obj
 0002:00014190       ??_R1A@?0A@EA@KafkaConsumerDisconnect@Workers@NodeKafka@@8 0000000180050190     workers.obj
 0002:000141b8       ??_R2ProducerConnect@Workers@NodeKafka@@8 00000001800501b8     workers.obj
 0002:000141d8       ??_R2KafkaConsumerCommitted@Workers@NodeKafka@@8 00000001800501d8     workers.obj
 0002:000141f8       ??_R2KafkaConsumerConsumeNum@Workers@NodeKafka@@8 00000001800501f8     workers.obj
 0002:00014218       ??_R3KafkaConsumerDisconnect@Workers@NodeKafka@@8 0000000180050218     workers.obj
 0002:00014230       ??_R4ProducerDisconnect@Workers@NodeKafka@@6B@ 0000000180050230     workers.obj
 0002:00014258       ??_R3ProducerDisconnect@Workers@NodeKafka@@8 0000000180050258     workers.obj
 0002:00014270       ??_R4MessageWorker@Workers@NodeKafka@@6B@ 0000000180050270     workers.obj
 0002:00014298       ??_R3KafkaConsumerConsume@Workers@NodeKafka@@8 0000000180050298     workers.obj
 0002:000142b0       ??_R3ProducerConnect@Workers@NodeKafka@@8 00000001800502b0     workers.obj
 0002:000142c8       ??_R2OffsetsForTimes@Handle@Workers@NodeKafka@@8 00000001800502c8     workers.obj
 0002:000142e8       ??_R4ConnectionQueryWatermarkOffsets@Workers@NodeKafka@@6B@ 00000001800502e8     workers.obj
 0002:00014310       ??_R3KafkaConsumerConnect@Workers@NodeKafka@@8 0000000180050310     workers.obj
 0002:00014328       ??_R1A@?0A@EA@KafkaConsumerConnect@Workers@NodeKafka@@8 0000000180050328     workers.obj
 0002:00014350       ??_R2KafkaConsumerConsume@Workers@NodeKafka@@8 0000000180050350     workers.obj
 0002:00014370       ??_R4ErrorAwareWorker@Workers@NodeKafka@@6B@ 0000000180050370     workers.obj
 0002:00014398       ??_R2ConnectionMetadata@Workers@NodeKafka@@8 0000000180050398     workers.obj
 0002:000143b8       ??_R1A@?0A@EA@ErrorAwareWorker@Workers@NodeKafka@@8 00000001800503b8     workers.obj
 0002:000143e0       ??_R4ProducerConnect@Workers@NodeKafka@@6B@ 00000001800503e0     workers.obj
 0002:00014408       ??_R3ErrorAwareWorker@Workers@NodeKafka@@8 0000000180050408     workers.obj
 0002:00014420       ??_R4bad_typeid@std@@6B@   0000000180050420     libvcruntime:rtti.obj
 0002:00014448       ??_R3bad_typeid@std@@8     0000000180050448     libvcruntime:rtti.obj
 0002:00014460       ??_R2bad_typeid@std@@8     0000000180050460     libvcruntime:rtti.obj
 0002:00014478       ??_R1A@?0A@EA@bad_typeid@std@@8 0000000180050478     libvcruntime:rtti.obj
 0002:000144a0       ??_R4__non_rtti_object@std@@6B@ 00000001800504a0     libvcruntime:rtti.obj
 0002:000144c8       ??_R3__non_rtti_object@std@@8 00000001800504c8     libvcruntime:rtti.obj
 0002:000144e0       ??_R2__non_rtti_object@std@@8 00000001800504e0     libvcruntime:rtti.obj
 0002:00014500       ??_R1A@?0A@EA@__non_rtti_object@std@@8 0000000180050500     libvcruntime:rtti.obj
 0002:000149b0       __rtc_iaa                  00000001800509b0     LIBCMT:_initsect_.obj
 0002:000149b8       __rtc_izz                  00000001800509b8     LIBCMT:_initsect_.obj
 0002:000149c0       __rtc_taa                  00000001800509c0     LIBCMT:_initsect_.obj
 0002:000149c8       __rtc_tzz                  00000001800509c8     LIBCMT:_initsect_.obj
 0002:00018118       _TI2?AVbad_alloc@std@@     0000000180054118     libcpmt:xthrow.obj
 0002:00018138       _CTA2?AVbad_alloc@std@@    0000000180054138     libcpmt:xthrow.obj
 0002:00018150       _CT??_R0?AVbad_alloc@std@@@8??0bad_alloc@std@@QEAA@AEBV01@@Z24 0000000180054150     libcpmt:xthrow.obj
 0002:00018178       _CT??_R0?AVexception@std@@@8??0exception@std@@QEAA@AEBV01@@Z24 0000000180054178     libcpmt:xthrow.obj
 0002:000181a0       _CT??_R0?AVlogic_error@std@@@8??0logic_error@std@@QEAA@AEBV01@@Z24 00000001800541a0     libcpmt:xthrow.obj
 0002:000181c8       _TI3?AVlength_error@std@@  00000001800541c8     libcpmt:xthrow.obj
 0002:000181e8       _CTA3?AVlength_error@std@@ 00000001800541e8     libcpmt:xthrow.obj
 0002:00018208       _CT??_R0?AVlength_error@std@@@8??0length_error@std@@QEAA@AEBV01@@Z24 0000000180054208     libcpmt:xthrow.obj
 0002:00018230       _TI3?AVout_of_range@std@@  0000000180054230     libcpmt:xthrow.obj
 0002:00018250       _CTA3?AVout_of_range@std@@ 0000000180054250     libcpmt:xthrow.obj
 0002:00018270       _CT??_R0?AVout_of_range@std@@@8??0out_of_range@std@@QEAA@AEBV01@@Z24 0000000180054270     libcpmt:xthrow.obj
 0002:00018298       _TI2?AVbad_cast@std@@      0000000180054298     libcpmt:cerr.obj
 0002:000182b8       _CTA2?AVbad_cast@std@@     00000001800542b8     libcpmt:cerr.obj
 0002:000182d0       _CT??_R0?AVbad_cast@std@@@8??0bad_cast@std@@QEAA@AEBV01@@Z24 00000001800542d0     libcpmt:cerr.obj
 0002:000182f8       _TI3?AVbad_array_new_length@std@@ 00000001800542f8     LIBCMT:throw_bad_alloc.obj
 0002:00018318       _CTA3?AVbad_array_new_length@std@@ 0000000180054318     LIBCMT:throw_bad_alloc.obj
 0002:00018338       _CT??_R0?AVbad_array_new_length@std@@@8??0bad_array_new_length@std@@QEAA@AEBV01@@Z24 0000000180054338     LIBCMT:throw_bad_alloc.obj
 0002:00018360       _TI2?AVbad_exception@std@@ 0000000180054360     libvcruntime:frame.obj
 0002:00018380       _CTA2?AVbad_exception@std@@ 0000000180054380     libvcruntime:frame.obj
 0002:00018398       _CT??_R0?AVbad_exception@std@@@8??0bad_exception@std@@QEAA@AEBV01@@Z24 0000000180054398     libvcruntime:frame.obj
 0002:000183c0       _TI3?AV__non_rtti_object@std@@ 00000001800543c0     libvcruntime:rtti.obj
 0002:000183e0       _CTA3?AV__non_rtti_object@std@@ 00000001800543e0     libvcruntime:rtti.obj
 0002:00018400       _CT??_R0?AV__non_rtti_object@std@@@8??0__non_rtti_object@std@@QEAA@AEBV01@@Z24 0000000180054400     libvcruntime:rtti.obj
 0002:00018428       _CT??_R0?AVbad_typeid@std@@@8??0bad_typeid@std@@QEAA@AEBV01@@Z24 0000000180054428     libvcruntime:rtti.obj
 0002:0001844c       __DELAY_IMPORT_DESCRIPTOR_node_exe 000000018005444c     node:node.exe
 0002:0001846c       __NULL_DELAY_IMPORT_DESCRIPTOR 000000018005446c     node:node.exe
 0002:00018790       \177node_NULL_THUNK_DATA_DLN 0000000180054790     node:node.exe
 0002:00019e58       \177node_NULL_THUNK_DATA_DLB 0000000180055e58     node:node.exe
 0002:0001a1b8       __IMPORT_DESCRIPTOR_librdkafkacpp 00000001800561b8     librdkafkacpp:librdkafkacpp.dll
 0002:0001a1cc       __IMPORT_DESCRIPTOR_KERNEL32 00000001800561cc     kernel32:KERNEL32.dll
 0002:0001a1e0       __NULL_IMPORT_DESCRIPTOR   00000001800561e0     librdkafkacpp:librdkafkacpp.dll
 0003:00000020       ?_PJP_CPP_Copyright@@3PADA 0000000180058020     libcpmt:iosptrs.obj
 0003:00000071       ?_Sync@ios_base@std@@0_NA  0000000180058071     libcpmt:ios.obj
 0003:00000080       _Init_global_epoch         0000000180058080     LIBCMT:thread_safe_statics.obj
 0003:00000084       __scrt_native_dllmain_reason 0000000180058084     LIBCMT:utility.obj
 0003:00000088       __security_cookie          0000000180058088     LIBCMT:gs_cookie.obj
 0003:00000090       __security_cookie_complement 0000000180058090     LIBCMT:gs_cookie.obj
 0003:00000098       _fltused                   0000000180058098     LIBCMT:fltused.obj
 0003:000000a0       __isa_available            00000001800580a0     LIBCMT:_cpu_disp_.obj
 0003:000000a4       __isa_enabled              00000001800580a4     LIBCMT:_cpu_disp_.obj
 0003:000000a8       __memcpy_nt_iters          00000001800580a8     LIBCMT:_cpu_disp_.obj
 0003:000000c0       __abort_behavior           00000001800580c0     libucrt:abort.obj
 0003:000000d0       __acrt_lconv_c             00000001800580d0     libucrt:localeconv.obj
 0003:00000168       __acrt_lconv               0000000180058168     libucrt:localeconv.obj
 0003:00000170       __acrt_lconv_static_decimal 0000000180058170     libucrt:localeconv.obj
 0003:00000174       __acrt_lconv_static_W_decimal 0000000180058174     libucrt:localeconv.obj
 0003:00000180       _iob                       0000000180058180     libucrt:_file.obj
 0003:00000288       _pctype                    0000000180058288     libucrt:ctype.obj
 0003:00000290       _pwctype                   0000000180058290     libucrt:ctype.obj
 0003:000002b0       __acrt_initial_locale_data 00000001800582b0     libucrt:nlsdata.obj
 0003:00000408       __acrt_initial_locale_pointers 0000000180058408     libucrt:nlsdata.obj
 0003:00000418       __acrt_wide_c_locale_string 0000000180058418     libucrt:nlsdata.obj
 0003:0000041c       __mb_cur_max               000000018005841c     libucrt:nlsdata.obj
 0003:00000420       __badioinfo                0000000180058420     libucrt:ioinit.obj
 0003:00000464       __globallocalestatus       0000000180058464     libucrt:glstatus.obj
 0003:00000500       __acrt_initial_multibyte_data 0000000180058500     libucrt:mbctype.obj
 0003:00000728       __acrt_current_multibyte_data 0000000180058728     libucrt:mbctype.obj
 0003:00000830       _mbctype                   0000000180058830     libucrt:mbctype.obj
 0003:00000940       _mbcasemap                 0000000180058940     libucrt:mbctype.obj
 0003:00000a40       _lookuptrailbytes          0000000180058a40     libucrt:read.obj
 0003:00000b40       __dcrt_lowio_console_output_handle 0000000180058b40     libucrt:initcon.obj
 0003:00000b90       ??_R0?AVbad_alloc@std@@@8  0000000180058b90     libcpmt:xthrow.obj
 0003:00000bb8       ??_R0?AVexception@std@@@8  0000000180058bb8     libcpmt:xthrow.obj
 0003:00000be0       ??_R0?AVlogic_error@std@@@8 0000000180058be0     libcpmt:xthrow.obj
 0003:00000c08       ??_R0?AVlength_error@std@@@8 0000000180058c08     libcpmt:xthrow.obj
 0003:00000c30       ??_R0?AVout_of_range@std@@@8 0000000180058c30     libcpmt:xthrow.obj
 0003:00000c58       ??_R0?AV_Locimp@locale@std@@@8 0000000180058c58     libcpmt:locale0.obj
 0003:00000c88       ??_R0?AVbad_cast@std@@@8   0000000180058c88     libcpmt:cerr.obj
 0003:00000cb0       ??_R0?AVios_base@std@@@8   0000000180058cb0     libcpmt:cerr.obj
 0003:00000cd8       ??_R0?AV?$_Iosb@H@std@@@8  0000000180058cd8     libcpmt:cerr.obj
 0003:00000d00       ??_R0?AV?$basic_ios@DU?$char_traits@D@std@@@std@@@8 0000000180058d00     libcpmt:cerr.obj
 0003:00000d40       ??_R0?AV?$basic_streambuf@DU?$char_traits@D@std@@@std@@@8 0000000180058d40     libcpmt:cerr.obj
 0003:00000d90       ??_R0?AV?$basic_ostream@DU?$char_traits@D@std@@@std@@@8 0000000180058d90     libcpmt:cerr.obj
 0003:00000de0       ??_R0?AV?$basic_filebuf@DU?$char_traits@D@std@@@std@@@8 0000000180058de0     libcpmt:cerr.obj
 0003:00000e28       ??_R0?AVcodecvt_base@std@@@8 0000000180058e28     libcpmt:cerr.obj
 0003:00000e50       ??_R0?AV?$codecvt@DDU_Mbstatet@@@std@@@8 0000000180058e50     libcpmt:cerr.obj
 0003:00000e88       ??_R0?AVtype_info@@@8      0000000180058e88     LIBCMT:std_type_info_static.obj
 0003:00000ea8       ??_R0?AVbad_array_new_length@std@@@8 0000000180058ea8     LIBCMT:throw_bad_alloc.obj
 0003:00000ed8       ??_R0?AVbad_exception@std@@@8 0000000180058ed8     libvcruntime:frame.obj
 0003:00000f00       ??_R0?AVRebalanceDispatcher@Callbacks@NodeKafka@@@8 0000000180058f00     callbacks.obj
 0003:00000f40       ??_R0?AVEvent@Callbacks@NodeKafka@@@8 0000000180058f40     callbacks.obj
 0003:00000f70       ??_R0?AVOffsetCommitDispatcher@Callbacks@NodeKafka@@@8 0000000180058f70     callbacks.obj
 0003:00000fb8       ??_R0?AVOffsetCommitCb@RdKafka@@@8 0000000180058fb8     callbacks.obj
 0003:00000fe8       ??_R0?AVEventDispatcher@Callbacks@NodeKafka@@@8 0000000180058fe8     callbacks.obj
 0003:00001028       ??_R0?AVOffsetCommit@Callbacks@NodeKafka@@@8 0000000180059028     callbacks.obj
 0003:00001060       ??_R0?AVDelivery@Callbacks@NodeKafka@@@8 0000000180059060     callbacks.obj
 0003:00001098       ??_R0?AVEventCb@RdKafka@@@8 0000000180059098     callbacks.obj
 0003:000010c0       ??_R0?AVDispatcher@Callbacks@NodeKafka@@@8 00000001800590c0     callbacks.obj
 0003:000010f8       ??_R0?AVPartitionerCb@RdKafka@@@8 00000001800590f8     callbacks.obj
 0003:00001128       ??_R0?AVRebalance@Callbacks@NodeKafka@@@8 0000000180059128     callbacks.obj
 0003:00001160       ??_R0?AVDeliveryReportCb@RdKafka@@@8 0000000180059160     callbacks.obj
 0003:00001190       ??_R0?AVDeliveryReportDispatcher@Callbacks@NodeKafka@@@8 0000000180059190     callbacks.obj
 0003:000011d8       ??_R0?AVRebalanceCb@RdKafka@@@8 00000001800591d8     callbacks.obj
 0003:00001208       ??_R0?AVPartitioner@Callbacks@NodeKafka@@@8 0000000180059208     callbacks.obj
 0003:00001240       ??_R0?AVfailure@ios_base@std@@@8 0000000180059240     common.obj
 0003:00001270       ??_R0?AVruntime_error@std@@@8 0000000180059270     common.obj
 0003:00001298       ??_R0?AVexception@stdext@@@8 0000000180059298     common.obj
 0003:000012c0       ??_R0?AVerror_category@std@@@8 00000001800592c0     common.obj
 0003:000012f0       ??_R0?AV?$ctype@D@std@@@8  00000001800592f0     common.obj
 0003:00001318       ??_R0?AVsystem_error@std@@@8 0000000180059318     common.obj
 0003:00001340       ??_R0?AV_Facet_base@std@@@8 0000000180059340     common.obj
 0003:00001368       ??_R0?AV_Generic_error_category@std@@@8 0000000180059368     common.obj
 0003:000013a0       ??_R0?AU_Crt_new_delete@std@@@8 00000001800593a0     common.obj
 0003:000013d0       ??_R0?AV_Iostream_error_category@std@@@8 00000001800593d0     common.obj
 0003:00001408       ??_R0?AUctype_base@std@@@8 0000000180059408     common.obj
 0003:00001430       ??_R0?AVfacet@locale@std@@@8 0000000180059430     common.obj
 0003:00001458       ??_R0?AV_System_error@std@@@8 0000000180059458     common.obj
 0003:00001480       ??_R0?AVConnection@NodeKafka@@@8 0000000180059480     connection.obj
 0003:000014b0       ??_R0?AVObjectWrap@Nan@@@8 00000001800594b0     connection.obj
 0003:000014d8       ??_R0?AVHandle@RdKafka@@@8 00000001800594d8     kafka-consumer.obj
 0003:00001500       ??_R0?AVKafkaConsumer@NodeKafka@@@8 0000000180059500     kafka-consumer.obj
 0003:00001530       ??_R0?AVKafkaConsumer@RdKafka@@@8 0000000180059530     kafka-consumer.obj
 0003:00001560       ??_R0?AVProducer@NodeKafka@@@8 0000000180059560     producer.obj
 0003:00001590       ??_R0?AVProducer@RdKafka@@@8 0000000180059590     producer.obj
 0003:000015b8       ??_R0?AVTopic@NodeKafka@@@8 00000001800595b8     topic.obj
 0003:000015e0       ??_R0?AVProducerFlush@Workers@NodeKafka@@@8 00000001800595e0     workers.obj
 0003:00001618       ??_R0?AVAsyncWorker@Nan@@@8 0000000180059618     workers.obj
 0003:00001640       ??_R0?AVKafkaConsumerDisconnect@Workers@NodeKafka@@@8 0000000180059640     workers.obj
 0003:00001680       ??_R0?AVKafkaConsumerConsume@Workers@NodeKafka@@@8 0000000180059680     workers.obj
 0003:000016c0       ??_R0?AVErrorAwareWorker@Workers@NodeKafka@@@8 00000001800596c0     workers.obj
 0003:00001700       ??_R0?AVProducerConnect@Workers@NodeKafka@@@8 0000000180059700     workers.obj
 0003:00001740       ??_R0?AVConnectionQueryWatermarkOffsets@Workers@NodeKafka@@@8 0000000180059740     workers.obj
 0003:00001788       ??_R0?AVConnectionMetadata@Workers@NodeKafka@@@8 0000000180059788     workers.obj
 0003:000017c8       ??_R0?AVOffsetsForTimes@Handle@Workers@NodeKafka@@@8 00000001800597c8     workers.obj
 0003:00001808       ??_R0?AVMessageWorker@Workers@NodeKafka@@@8 0000000180059808     workers.obj
 0003:00001840       ??_R0?AVKafkaConsumerCommitted@Workers@NodeKafka@@@8 0000000180059840     workers.obj
 0003:00001880       ??_R0?AVKafkaConsumerSeek@Workers@NodeKafka@@@8 0000000180059880     workers.obj
 0003:000018c0       ??_R0?AVKafkaConsumerConsumeNum@Workers@NodeKafka@@@8 00000001800598c0     workers.obj
 0003:00001900       ??_R0?AVKafkaConsumerConnect@Workers@NodeKafka@@@8 0000000180059900     workers.obj
 0003:00001940       ??_R0?AVKafkaConsumerConsumeLoop@Workers@NodeKafka@@@8 0000000180059940     workers.obj
 0003:00001988       ??_R0?AVProducerDisconnect@Workers@NodeKafka@@@8 0000000180059988     workers.obj
 0003:000019c8       ??_R0?AV__non_rtti_object@std@@@8 00000001800599c8     libvcruntime:rtti.obj
 0003:000019f8       ??_R0?AVbad_typeid@std@@@8 00000001800599f8     libvcruntime:rtti.obj
 0003:00001a20       __imp_?Value@External@v8@@QEBAPEAXXZ 0000000180059a20     node:node.exe
 0003:00001a28       __imp_?New@External@v8@@SA?AV?$Local@VExternal@v8@@@2@PEAVIsolate@2@PEAX@Z 0000000180059a28     node:node.exe
 0003:00001a30       __imp_?GetCurrentContext@Isolate@v8@@QEAA?AV?$Local@VContext@v8@@@2@XZ 0000000180059a30     node:node.exe
 0003:00001a38       __imp_?GetCurrent@Isolate@v8@@SAPEAV12@XZ 0000000180059a38     node:node.exe
 0003:00001a40       __imp_?CreateHandle@HandleScope@v8@@KAPEAPEAVObject@internal@2@PEAVIsolate@42@PEAV342@@Z 0000000180059a40     node:node.exe
 0003:00001a48       __imp_?CreateHandle@HandleScope@v8@@CAPEAPEAVObject@internal@2@PEAVHeapObject@42@PEAV342@@Z 0000000180059a48     node:node.exe
 0003:00001a50       __imp_??1HandleScope@v8@@QEAA@XZ 0000000180059a50     node:node.exe
 0003:00001a58       __imp_??0HandleScope@v8@@QEAA@PEAVIsolate@1@@Z 0000000180059a58     node:node.exe
 0003:00001a60       __imp_?GetFunction@FunctionTemplate@v8@@QEAA?AV?$MaybeLocal@VFunction@v8@@@2@V?$Local@VContext@v8@@@2@@Z 0000000180059a60     node:node.exe
 0003:00001a68       __imp_?New@FunctionTemplate@v8@@SA?AV?$Local@VFunctionTemplate@v8@@@2@PEAVIsolate@2@P6AXAEBV?$FunctionCallbackInfo@VValue@v8@@@2@@ZV?$Local@VValue@v8@@@2@V?$Local@VSignature@v8@@@2@HW4ConstructorBehavior@2@W4SideEffectType@2@@Z 0000000180059a68     node:node.exe
 0003:00001a70       __imp_?ToLocalEmpty@V8@v8@@CAXXZ 0000000180059a70     node:node.exe
 0003:00001a78       __imp_?FromJustIsNothing@V8@v8@@CAXXZ 0000000180059a78     node:node.exe
 0003:00001a80       __imp_?Int32Value@Value@v8@@QEBA?AV?$Maybe@H@2@V?$Local@VContext@v8@@@2@@Z 0000000180059a80     node:node.exe
 0003:00001a88       __imp_?Escape@EscapableHandleScope@v8@@AEAAPEAPEAVObject@internal@2@PEAPEAV342@@Z 0000000180059a88     node:node.exe
 0003:00001a90       __imp_??0EscapableHandleScope@v8@@QEAA@PEAVIsolate@1@@Z 0000000180059a90     node:node.exe
 0003:00001a98       __imp_?NewFromUtf8@String@v8@@SA?AV?$MaybeLocal@VString@v8@@@2@PEAVIsolate@2@PEBDW4NewStringType@2@H@Z 0000000180059a98     node:node.exe
 0003:00001aa0       __imp_?New@Number@v8@@SA?AV?$Local@VNumber@v8@@@2@PEAVIsolate@2@N@Z 0000000180059aa0     node:node.exe
 0003:00001aa8       __imp_?SlowGetInternalField@Object@v8@@AEAA?AV?$Local@VValue@v8@@@2@H@Z 0000000180059aa8     node:node.exe
 0003:00001ab0       __imp_?New@Object@v8@@SA?AV?$Local@VObject@v8@@@2@PEAVIsolate@2@@Z 0000000180059ab0     node:node.exe
 0003:00001ab8       __imp_?GetIsolate@Object@v8@@QEAAPEAVIsolate@2@XZ 0000000180059ab8     node:node.exe
 0003:00001ac0       __imp_?SetInternalField@Object@v8@@QEAAXHV?$Local@VValue@v8@@@2@@Z 0000000180059ac0     node:node.exe
 0003:00001ac8       __imp_?DefineOwnProperty@Object@v8@@QEAA?AV?$Maybe@_N@2@V?$Local@VContext@v8@@@2@V?$Local@VName@v8@@@2@V?$Local@VValue@v8@@@2@W4PropertyAttribute@2@@Z 0000000180059ac8     node:node.exe
 0003:00001ad0       __imp_?Set@Object@v8@@QEAA_NV?$Local@VValue@v8@@@2@0@Z 0000000180059ad0     node:node.exe
 0003:00001ad8       __imp_?SetInternalFieldCount@ObjectTemplate@v8@@QEAAXH@Z 0000000180059ad8     node:node.exe
 0003:00001ae0       __imp_?NewInstance@ObjectTemplate@v8@@QEAA?AV?$MaybeLocal@VObject@v8@@@2@V?$Local@VContext@v8@@@2@@Z 0000000180059ae0     node:node.exe
 0003:00001ae8       __imp_?New@ObjectTemplate@v8@@SA?AV?$Local@VObjectTemplate@v8@@@2@PEAVIsolate@2@V?$Local@VFunctionTemplate@v8@@@2@@Z 0000000180059ae8     node:node.exe
 0003:00001af0       __imp_?AtExit@node@@YAXP6AXPEAX@Z0@Z 0000000180059af0     node:node.exe
 0003:00001af8       __imp_node_module_register 0000000180059af8     node:node.exe
 0003:00001b00       __imp_uv_mutex_unlock      0000000180059b00     node:node.exe
 0003:00001b08       __imp_?Global@Context@v8@@QEAA?AV?$Local@VObject@v8@@@2@XZ 0000000180059b08     node:node.exe
 0003:00001b10       __imp_?New@Integer@v8@@SA?AV?$Local@VInteger@v8@@@2@PEAVIsolate@2@H@Z 0000000180059b10     node:node.exe
 0003:00001b18       __imp_?Error@Exception@v8@@SA?AV?$Local@VValue@v8@@@2@V?$Local@VString@v8@@@2@@Z 0000000180059b18     node:node.exe
 0003:00001b20       __imp_?New@Array@v8@@SA?AV?$Local@VArray@v8@@@2@PEAVIsolate@2@H@Z 0000000180059b20     node:node.exe
 0003:00001b28       __imp_?DisposeGlobal@V8@v8@@CAXPEAPEAVObject@internal@2@@Z 0000000180059b28     node:node.exe
 0003:00001b30       __imp_?CopyPersistent@V8@v8@@CAPEAPEAVObject@internal@2@PEAPEAV342@@Z 0000000180059b30     node:node.exe
 0003:00001b38       __imp_?GlobalizeReference@V8@v8@@CAPEAPEAVObject@internal@2@PEAVIsolate@42@PEAPEAV342@@Z 0000000180059b38     node:node.exe
 0003:00001b40       __imp_?ToInt32@Value@v8@@QEBA?AV?$MaybeLocal@VInt32@v8@@@2@V?$Local@VContext@v8@@@2@@Z 0000000180059b40     node:node.exe
 0003:00001b48       __imp_?Set@Object@v8@@QEAA?AV?$Maybe@_N@2@V?$Local@VContext@v8@@@2@V?$Local@VValue@v8@@@2@1@Z 0000000180059b48     node:node.exe
 0003:00001b50       __imp_?Set@Object@v8@@QEAA_NIV?$Local@VValue@v8@@@2@@Z 0000000180059b50     node:node.exe
 0003:00001b58       __imp_uv_mutex_lock        0000000180059b58     node:node.exe
 0003:00001b60       __imp_uv_close             0000000180059b60     node:node.exe
 0003:00001b68       __imp_?EmitAsyncDestroy@node@@YAXPEAVIsolate@v8@@Uasync_context@1@@Z 0000000180059b68     node:node.exe
 0003:00001b70       __imp_?New@Buffer@node@@YA?AV?$MaybeLocal@VObject@v8@@@v8@@PEAVIsolate@4@PEAD_K@Z 0000000180059b70     node:node.exe
 0003:00001b78       __imp_?MakeCallback@node@@YA?AV?$MaybeLocal@VValue@v8@@@v8@@PEAVIsolate@3@V?$Local@VObject@v8@@@3@V?$Local@VFunction@v8@@@3@HPEAV?$Local@VValue@v8@@@3@Uasync_context@1@@Z 0000000180059b78     node:node.exe
 0003:00001b80       __imp_?EmitAsyncInit@node@@YA?AUasync_context@1@PEAVIsolate@v8@@V?$Local@VObject@v8@@@4@V?$Local@VString@v8@@@4@N@Z 0000000180059b80     node:node.exe
 0003:00001b88       __imp_uv_mutex_destroy     0000000180059b88     node:node.exe
 0003:00001b90       __imp_uv_mutex_init        0000000180059b90     node:node.exe
 0003:00001b98       __imp_uv_async_send        0000000180059b98     node:node.exe
 0003:00001ba0       __imp_uv_async_init        0000000180059ba0     node:node.exe
 0003:00001ba8       __imp_uv_default_loop      0000000180059ba8     node:node.exe
 0003:00001bb0       __imp_?GetSource@RegExp@v8@@QEBA?AV?$Local@VString@v8@@@2@XZ 0000000180059bb0     node:node.exe
 0003:00001bb8       __imp_?Length@Array@v8@@QEBAIXZ 0000000180059bb8     node:node.exe
 0003:00001bc0       __imp_?IntegerValue@Value@v8@@QEBA?AV?$Maybe@_J@2@V?$Local@VContext@v8@@@2@@Z 0000000180059bc0     node:node.exe
 0003:00001bc8       __imp_?BooleanValue@Value@v8@@QEBA?AV?$Maybe@_N@2@V?$Local@VContext@v8@@@2@@Z 0000000180059bc8     node:node.exe
 0003:00001bd0       __imp_?ToObject@Value@v8@@QEBA?AV?$MaybeLocal@VObject@v8@@@2@V?$Local@VContext@v8@@@2@@Z 0000000180059bd0     node:node.exe
 0003:00001bd8       __imp_?ToString@Value@v8@@QEBA?AV?$MaybeLocal@VString@v8@@@2@V?$Local@VContext@v8@@@2@@Z 0000000180059bd8     node:node.exe
 0003:00001be0       __imp_?IsRegExp@Value@v8@@QEBA_NXZ 0000000180059be0     node:node.exe
 0003:00001be8       __imp_?IsNumber@Value@v8@@QEBA_NXZ 0000000180059be8     node:node.exe
 0003:00001bf0       __imp_?IsBoolean@Value@v8@@QEBA_NXZ 0000000180059bf0     node:node.exe
 0003:00001bf8       __imp_?IsObject@Value@v8@@QEBA_NXZ 0000000180059bf8     node:node.exe
 0003:00001c00       __imp_?IsArray@Value@v8@@QEBA_NXZ 0000000180059c00     node:node.exe
 0003:00001c08       __imp_?WriteUtf8@String@v8@@QEBAHPEADHPEAHH@Z 0000000180059c08     node:node.exe
 0003:00001c10       __imp_?Length@String@v8@@QEBAHXZ 0000000180059c10     node:node.exe
 0003:00001c18       __imp_?Has@Object@v8@@QEAA?AV?$Maybe@_N@2@V?$Local@VContext@v8@@@2@V?$Local@VValue@v8@@@2@@Z 0000000180059c18     node:node.exe
 0003:00001c20       __imp_?Get@Object@v8@@QEAA?AV?$MaybeLocal@VValue@v8@@@2@V?$Local@VContext@v8@@@2@V?$Local@VValue@v8@@@2@@Z 0000000180059c20     node:node.exe
 0003:00001c28       __imp_?Get@Object@v8@@QEAA?AV?$Local@VValue@v8@@@2@I@Z 0000000180059c28     node:node.exe
 0003:00001c30       __imp_?Encode@node@@YA?AV?$Local@VValue@v8@@@v8@@PEAVIsolate@3@PEBD_KW4encoding@1@@Z 0000000180059c30     node:node.exe
 0003:00001c38       __imp_?ToString@Value@v8@@QEBA?AV?$Local@VString@v8@@@2@XZ 0000000180059c38     node:node.exe
 0003:00001c40       __imp_?IsFunction@Value@v8@@QEBA_NXZ 0000000180059c40     node:node.exe
 0003:00001c48       __imp_?GetOwnPropertyNames@Object@v8@@QEAA?AV?$Local@VArray@v8@@@2@XZ 0000000180059c48     node:node.exe
 0003:00001c50       __imp_?Get@Object@v8@@QEAA?AV?$Local@VValue@v8@@@2@V32@@Z 0000000180059c50     node:node.exe
 0003:00001c58       __imp_uv_queue_work        0000000180059c58     node:node.exe
 0003:00001c60       __imp_?ThrowException@Isolate@v8@@QEAA?AV?$Local@VValue@v8@@@2@V32@@Z 0000000180059c60     node:node.exe
 0003:00001c68       __imp_?ClearWeak@V8@v8@@CAPEAXPEAPEAVObject@internal@2@@Z 0000000180059c68     node:node.exe
 0003:00001c70       __imp_?MakeWeak@V8@v8@@CAXPEAPEAVObject@internal@2@PEAXP6AXAEBV?$WeakCallbackInfo@X@2@@ZW4WeakCallbackType@2@@Z 0000000180059c70     node:node.exe
 0003:00001c78       __imp_?Uint32Value@Value@v8@@QEBA?AV?$Maybe@I@2@V?$Local@VContext@v8@@@2@@Z 0000000180059c78     node:node.exe
 0003:00001c80       __imp_?SlowGetAlignedPointerFromInternalField@Object@v8@@AEAAPEAXH@Z 0000000180059c80     node:node.exe
 0003:00001c88       __imp_?InternalFieldCount@Object@v8@@QEAAHXZ 0000000180059c88     node:node.exe
 0003:00001c90       __imp_?GetCurrentEventLoop@node@@YAPEAUuv_loop_s@@PEAVIsolate@v8@@@Z 0000000180059c90     node:node.exe
 0003:00001c98       __imp_uv_rwlock_rdlock     0000000180059c98     node:node.exe
 0003:00001ca0       __imp_uv_rwlock_init       0000000180059ca0     node:node.exe
 0003:00001ca8       __imp_uv_rwlock_rdunlock   0000000180059ca8     node:node.exe
 0003:00001cb0       __imp_uv_rwlock_destroy    0000000180059cb0     node:node.exe
 0003:00001cb8       __imp_?New@Signature@v8@@SA?AV?$Local@VSignature@v8@@@2@PEAVIsolate@2@V?$Local@VFunctionTemplate@v8@@@2@@Z 0000000180059cb8     node:node.exe
 0003:00001cc0       __imp_?Set@Template@v8@@QEAAXV?$Local@VName@v8@@@2@V?$Local@VData@v8@@@2@W4PropertyAttribute@2@@Z 0000000180059cc0     node:node.exe
 0003:00001cc8       __imp_?SetClassName@FunctionTemplate@v8@@QEAAXV?$Local@VString@v8@@@2@@Z 0000000180059cc8     node:node.exe
 0003:00001cd0       __imp_?PrototypeTemplate@FunctionTemplate@v8@@QEAA?AV?$Local@VObjectTemplate@v8@@@2@XZ 0000000180059cd0     node:node.exe
 0003:00001cd8       __imp_?InstanceTemplate@FunctionTemplate@v8@@QEAA?AV?$Local@VObjectTemplate@v8@@@2@XZ 0000000180059cd8     node:node.exe
 0003:00001ce0       __imp_?GetFunction@FunctionTemplate@v8@@QEAA?AV?$Local@VFunction@v8@@@2@XZ 0000000180059ce0     node:node.exe
 0003:00001ce8       __imp_?SetAlignedPointerInInternalField@Object@v8@@QEAAXHPEAX@Z 0000000180059ce8     node:node.exe
 0003:00001cf0       __imp_uv_rwlock_wrlock     0000000180059cf0     node:node.exe
 0003:00001cf8       __imp_uv_rwlock_wrunlock   0000000180059cf8     node:node.exe
 0003:00001d00       __imp_?ToObject@Value@v8@@QEBA?AV?$Local@VObject@v8@@@2@XZ 0000000180059d00     node:node.exe
 0003:00001d08       __imp_?HasInstance@Buffer@node@@YA_NV?$Local@VValue@v8@@@v8@@@Z 0000000180059d08     node:node.exe
 0003:00001d10       __imp_?Data@Buffer@node@@YAPEADV?$Local@VObject@v8@@@v8@@@Z 0000000180059d10     node:node.exe
 0003:00001d18       __imp_?Length@Buffer@node@@YA_KV?$Local@VObject@v8@@@v8@@@Z 0000000180059d18     node:node.exe
 0003:00001d20       \177node_NULL_THUNK_DATA_DLA 0000000180059d20     node:node.exe
 0003:00001d30       __hmod__node_exe           0000000180059d30     node:node.exe
 0003:00001e98       ?_Id_cnt@id@locale@std@@0HA 0000000180059e98     libcpmt:locale0.obj
 0003:00001ea0       ?_Clocptr@_Locimp@locale@std@@0PEAV123@EA 0000000180059ea0     libcpmt:locale0.obj
 0003:00001eb0       ?id@?$ctype@_W@std@@2V0locale@2@A 0000000180059eb0     libcpmt:locale0.obj
 0003:00001eb8       ?id@?$ctype@D@std@@2V0locale@2@A 0000000180059eb8     libcpmt:locale0.obj
 0003:00001ec0       ?id@?$codecvt@GDU_Mbstatet@@@std@@2V0locale@2@A 0000000180059ec0     libcpmt:locale0.obj
 0003:00001ec8       ?id@?$ctype@G@std@@2V0locale@2@A 0000000180059ec8     libcpmt:locale0.obj
 0003:00001ee0       ?id@?$codecvt@_WDU_Mbstatet@@@std@@2V0locale@2@A 0000000180059ee0     libcpmt:locale0.obj
 0003:00001f00       ?cerr@std@@3V?$basic_ostream@DU?$char_traits@D@std@@@1@A 0000000180059f00     libcpmt:cerr.obj
 0003:00002008       ?id@?$codecvt@DDU_Mbstatet@@@std@@2V0locale@2@A 000000018005a008     libcpmt:cerr.obj
 0003:00002010       ?_Stinit@?1??_Init@?$basic_filebuf@DU?$char_traits@D@std@@@std@@IEAAXPEAU_iobuf@@W4_Initfl@23@@Z@4U_Mbstatet@@A 000000018005a010     libcpmt:cerr.obj
 0003:00002018       ?_Psave@?$_Facetptr@V?$codecvt@DDU_Mbstatet@@@std@@@std@@2PEBVfacet@locale@2@EB 000000018005a018     libcpmt:cerr.obj
 0003:00002020       ?_Raise_handler@std@@3P6AXAEBVexception@stdext@@@ZEA 000000018005a020     libcpmt:raisehan.obj
 0003:00002040       ?cout@std@@3V?$basic_ostream@DU?$char_traits@D@std@@@1@A 000000018005a040     libcpmt:cout.obj
 0003:00002150       ?_Ptr_cin@std@@3PEAV?$basic_istream@DU?$char_traits@D@std@@@1@EA 000000018005a150     libcpmt:iosptrs.obj
 0003:00002158       ?_Ptr_cout@std@@3PEAV?$basic_ostream@DU?$char_traits@D@std@@@1@EA 000000018005a158     libcpmt:iosptrs.obj
 0003:00002160       ?_Ptr_cerr@std@@3PEAV?$basic_ostream@DU?$char_traits@D@std@@@1@EA 000000018005a160     libcpmt:iosptrs.obj
 0003:00002168       ?_Ptr_clog@std@@3PEAV?$basic_ostream@DU?$char_traits@D@std@@@1@EA 000000018005a168     libcpmt:iosptrs.obj
 0003:00002170       ?_Ptr_wcin@std@@3PEAV?$basic_istream@_WU?$char_traits@_W@std@@@1@EA 000000018005a170     libcpmt:iosptrs.obj
 0003:00002178       ?_Ptr_wcout@std@@3PEAV?$basic_ostream@_WU?$char_traits@_W@std@@@1@EA 000000018005a178     libcpmt:iosptrs.obj
 0003:00002180       ?_Ptr_wcerr@std@@3PEAV?$basic_ostream@_WU?$char_traits@_W@std@@@1@EA 000000018005a180     libcpmt:iosptrs.obj
 0003:00002188       ?_Ptr_wclog@std@@3PEAV?$basic_ostream@_WU?$char_traits@_W@std@@@1@EA 000000018005a188     libcpmt:iosptrs.obj
 0003:000021e8       ?id@?$num_get@DV?$istreambuf_iterator@DU?$char_traits@D@std@@@std@@@std@@2V0locale@2@A 000000018005a1e8     libcpmt:locale.obj
 0003:0000224c       ?_Index@ios_base@std@@0HA  000000018005a24c     libcpmt:ios.obj
 0003:00002250       __encodedKERNEL32Functions 000000018005a250     libcpmt:winapisupp.obj
 0003:00002390       ?id@?$time_put@_WV?$ostreambuf_iterator@_WU?$char_traits@_W@std@@@std@@@std@@2V0locale@2@A 000000018005a390     libcpmt:wlocale.obj
 0003:00002398       ?id@?$num_get@_WV?$istreambuf_iterator@_WU?$char_traits@_W@std@@@std@@@std@@2V0locale@2@A 000000018005a398     libcpmt:wlocale.obj
 0003:000023a0       ?id@?$num_put@_WV?$ostreambuf_iterator@_WU?$char_traits@_W@std@@@std@@@std@@2V0locale@2@A 000000018005a3a0     libcpmt:wlocale.obj
 0003:000023a8       ?id@?$numpunct@_W@std@@2V0locale@2@A 000000018005a3a8     libcpmt:wlocale.obj
 0003:000023b0       ?id@?$collate@_W@std@@2V0locale@2@A 000000018005a3b0     libcpmt:wlocale.obj
 0003:000023b8       ?id@?$messages@_W@std@@2V0locale@2@A 000000018005a3b8     libcpmt:wlocale.obj
 0003:000023c0       ?id@?$money_get@_WV?$istreambuf_iterator@_WU?$char_traits@_W@std@@@std@@@std@@2V0locale@2@A 000000018005a3c0     libcpmt:wlocale.obj
 0003:000023c8       ?id@?$money_put@_WV?$ostreambuf_iterator@_WU?$char_traits@_W@std@@@std@@@std@@2V0locale@2@A 000000018005a3c8     libcpmt:wlocale.obj
 0003:000023d0       ?id@?$moneypunct@_W$0A@@std@@2V0locale@2@A 000000018005a3d0     libcpmt:wlocale.obj
 0003:000023d8       ?id@?$moneypunct@_W$00@std@@2V0locale@2@A 000000018005a3d8     libcpmt:wlocale.obj
 0003:000023e0       ?id@?$time_get@_WV?$istreambuf_iterator@_WU?$char_traits@_W@std@@@std@@@std@@2V0locale@2@A 000000018005a3e0     libcpmt:wlocale.obj
 0003:000023e8       ?id@?$num_get@GV?$istreambuf_iterator@GU?$char_traits@G@std@@@std@@@std@@2V0locale@2@A 000000018005a3e8     libcpmt:wlocale.obj
 0003:000023f0       ?id@?$num_put@GV?$ostreambuf_iterator@GU?$char_traits@G@std@@@std@@@std@@2V0locale@2@A 000000018005a3f0     libcpmt:wlocale.obj
 0003:000023f8       ?id@?$numpunct@G@std@@2V0locale@2@A 000000018005a3f8     libcpmt:wlocale.obj
 0003:00002400       ?id@?$collate@G@std@@2V0locale@2@A 000000018005a400     libcpmt:wlocale.obj
 0003:00002408       ?id@?$messages@G@std@@2V0locale@2@A 000000018005a408     libcpmt:wlocale.obj
 0003:00002410       ?id@?$money_get@GV?$istreambuf_iterator@GU?$char_traits@G@std@@@std@@@std@@2V0locale@2@A 000000018005a410     libcpmt:wlocale.obj
 0003:00002418       ?id@?$money_put@GV?$ostreambuf_iterator@GU?$char_traits@G@std@@@std@@@std@@2V0locale@2@A 000000018005a418     libcpmt:wlocale.obj
 0003:00002420       ?id@?$moneypunct@G$0A@@std@@2V0locale@2@A 000000018005a420     libcpmt:wlocale.obj
 0003:00002428       ?id@?$moneypunct@G$00@std@@2V0locale@2@A 000000018005a428     libcpmt:wlocale.obj
 0003:00002430       ?id@?$time_get@GV?$istreambuf_iterator@GU?$char_traits@G@std@@@std@@@std@@2V0locale@2@A 000000018005a430     libcpmt:wlocale.obj
 0003:00002438       ?id@?$time_put@GV?$ostreambuf_iterator@GU?$char_traits@G@std@@@std@@@std@@2V0locale@2@A 000000018005a438     libcpmt:wlocale.obj
 0003:00002440       ?id@?$collate@D@std@@2V0locale@2@A 000000018005a440     libcpmt:xlocale.obj
 0003:00002448       ?id@?$messages@D@std@@2V0locale@2@A 000000018005a448     libcpmt:xlocale.obj
 0003:00002450       ?id@?$money_get@DV?$istreambuf_iterator@DU?$char_traits@D@std@@@std@@@std@@2V0locale@2@A 000000018005a450     libcpmt:xlocale.obj
 0003:00002458       ?id@?$money_put@DV?$ostreambuf_iterator@DU?$char_traits@D@std@@@std@@@std@@2V0locale@2@A 000000018005a458     libcpmt:xlocale.obj
 0003:00002460       ?id@?$moneypunct@D$0A@@std@@2V0locale@2@A 000000018005a460     libcpmt:xlocale.obj
 0003:00002468       ?id@?$moneypunct@D$00@std@@2V0locale@2@A 000000018005a468     libcpmt:xlocale.obj
 0003:00002470       ?id@?$time_get@DV?$istreambuf_iterator@DU?$char_traits@D@std@@@std@@@std@@2V0locale@2@A 000000018005a470     libcpmt:xlocale.obj
 0003:00002478       ?id@?$time_put@DV?$ostreambuf_iterator@DU?$char_traits@D@std@@@std@@@std@@2V0locale@2@A 000000018005a478     libcpmt:xlocale.obj
 0003:000024c8       __scrt_current_native_startup_state 000000018005a4c8     LIBCMT:utility.obj
 0003:000024d0       __scrt_native_startup_lock 000000018005a4d0     LIBCMT:utility.obj
 0003:00002a80       __scrt_debugger_hook_flag  000000018005aa80     LIBCMT:utility_desktop.obj
 0003:00002a84       _tls_index                 000000018005aa84     LIBCMT:tlssup.obj
 0003:00002a88       __favor                    000000018005aa88     LIBCMT:_cpu_disp_.obj
 0003:00002a90       ?__type_info_root_node@@3U__type_info_node@@A 000000018005aa90     LIBCMT:tncleanup.obj
 0003:00002aa0       ?_OptionsStorage@?1??__local_stdio_scanf_options@@9@4_KA 000000018005aaa0     LIBCMT:default_local_stdio_options.obj
 0003:00002aa8       ?g_OutOfMemoryExceptionCallback@@3P6APEAXXZEA 000000018005aaa8     libvcruntime:frame.obj
 0003:00002b18       __pPurecall                000000018005ab18     libvcruntime:purevirt_data.obj
 0003:00002bc8       ?pArgList@UnDecorator@@0PEAVReplicator@@EA 000000018005abc8     libvcruntime:undname.obj
 0003:00002bd0       ?pZNameList@UnDecorator@@0PEAVReplicator@@EA 000000018005abd0     libvcruntime:undname.obj
 0003:00002bd8       ?pTemplateArgList@UnDecorator@@0PEAVReplicator@@EA 000000018005abd8     libvcruntime:undname.obj
 0003:00002be0       ?gName@UnDecorator@@0PEBDEB 000000018005abe0     libvcruntime:undname.obj
 0003:00002be8       ?name@UnDecorator@@0PEBDEB 000000018005abe8     libvcruntime:undname.obj
 0003:00002bf0       ?outputString@UnDecorator@@0PEADEA 000000018005abf0     libvcruntime:undname.obj
 0003:00002bf8       ?maxStringLength@UnDecorator@@0HA 000000018005abf8     libvcruntime:undname.obj
 0003:00002bfc       ?disableFlags@UnDecorator@@0KA 000000018005abfc     libvcruntime:undname.obj
 0003:00002c00       ?fExplicitTemplateParams@UnDecorator@@0_NA 000000018005ac00     libvcruntime:undname.obj
 0003:00002c01       ?fGetTemplateArgumentList@UnDecorator@@0_NA 000000018005ac01     libvcruntime:undname.obj
 0003:00002c08       ?m_pGetParameter@UnDecorator@@0P6APEADJ@ZEA 000000018005ac08     libvcruntime:undname.obj
 0003:00002c40       __acrt_lconv_static_null   000000018005ac40     libucrt:localeconv.obj
 0003:00002c44       __acrt_lconv_static_W_null 000000018005ac44     libucrt:localeconv.obj
 0003:00002e60       _nstream                   000000018005ae60     libucrt:_file.obj
 0003:00002e68       __piob                     000000018005ae68     libucrt:_file.obj
 0003:00002e70       _cflush                    000000018005ae70     libucrt:_file.obj
 0003:00002fa8       _environ_table             000000018005afa8     libucrt:environment_initialization.obj
 0003:00002fb0       _wenviron_table            000000018005afb0     libucrt:environment_initialization.obj
 0003:00002fb8       __dcrt_initial_wide_environment 000000018005afb8     libucrt:environment_initialization.obj
 0003:00002fc0       __dcrt_initial_narrow_environment 000000018005afc0     libucrt:environment_initialization.obj
 0003:00002fc8       __acrt_atexit_table        000000018005afc8     libucrt:onexit.obj
 0003:00002fe0       __acrt_at_quick_exit_table 000000018005afe0     libucrt:onexit.obj
 0003:00003028       __acrt_stdout_buffer       000000018005b028     libucrt:_sftbuf.obj
 0003:00003030       __acrt_stderr_buffer       000000018005b030     libucrt:_sftbuf.obj
 0003:00003038       __acrt_locale_changed_data 000000018005b038     libucrt:wsetlocale.obj
 0003:00003040       __acrt_current_locale_data 000000018005b040     libucrt:nlsdata.obj
 0003:00003050       __pioinfo                  000000018005b050     libucrt:ioinit.obj
 0003:00003450       _nhandle                   000000018005b450     libucrt:ioinit.obj
 0003:00003610       __acrt_heap                000000018005b610     libucrt:heap_handle.obj
 0003:00003618       __fma3_is_available        000000018005b618     libucrt:fma3_available.obj
 0003:0000361c       __use_fma3_lib             000000018005b61c     libucrt:fma3_available.obj
 0003:00003620       ?_timezone@@3V?$dual_state_global@J@__crt_state_management@@A 000000018005b620     libucrt:timeset.obj
 0003:00003624       ?_daylight@@3V?$dual_state_global@H@__crt_state_management@@A 000000018005b624     libucrt:timeset.obj
 0003:00003628       ?_dstbias@@3V?$dual_state_global@J@__crt_state_management@@A 000000018005b628     libucrt:timeset.obj
 0003:000036fc       __mbcodepage               000000018005b6fc     libucrt:mbctype.obj
 0003:00003700       __ismbcodepage             000000018005b700     libucrt:mbctype.obj
 0003:00003708       __mbulinfo                 000000018005b708     libucrt:mbctype.obj
 0003:00003718       __mblocalename             000000018005b718     libucrt:mbctype.obj
 0003:00003724       __argc                     000000018005b724     libucrt:argv_data.obj
 0003:00003728       __argv                     000000018005b728     libucrt:argv_data.obj
 0003:00003730       __wargv                    000000018005b730     libucrt:argv_data.obj
 0003:00003738       _acmdln                    000000018005b738     libucrt:argv_data.obj
 0003:00003740       _wcmdln                    000000018005b740     libucrt:argv_data.obj
 0003:00003748       _pgmptr                    000000018005b748     libucrt:argv_data.obj
 0003:00003758       ?DloadKernel32@@3PEAUHINSTANCE__@@EA 000000018005b758     DelayImp:delayhlp.obj
 0003:00003760       ?DloadAcquireSRWLockExclusive@@3P6AXPEA_K@ZEA 000000018005b760     DelayImp:delayhlp.obj
 0003:00003768       ?DloadReleaseSRWLockExclusive@@3P6AXPEA_K@ZEA 000000018005b768     DelayImp:delayhlp.obj
 0003:00003770       ?DloadSrwLock@@3_KA        000000018005b770     DelayImp:delayhlp.obj
 0003:00003778       ?DloadSectionLockCount@@3KA 000000018005b778     DelayImp:delayhlp.obj
 0003:0000377c       ?DloadSectionOldProtection@@3KA 000000018005b77c     DelayImp:delayhlp.obj
 0003:00003780       ?DloadSectionCommitPermanent@@3KA 000000018005b780     DelayImp:delayhlp.obj
 0003:00003788       ?_Static@?1???$_Immortalize@V_Iostream_error_category@std@@@std@@YAAEAV_Iostream_error_category@1@XZ@4U?$_Immortalizer@V_Iostream_error_category@std@@@1@A 000000018005b788     common.obj
 0003:00003798       ?$TSS0@?1???$_Immortalize@V_Iostream_error_category@std@@@std@@YAAEAV_Iostream_error_category@1@XZ@4HA 000000018005b798     common.obj
 0003:000037a0       ?_Psave@?$_Facetptr@V?$ctype@D@std@@@std@@2PEBVfacet@locale@2@EB 000000018005b7a0     common.obj
 0003:000037a8       ?_OptionsStorage@?1??__local_stdio_printf_options@@9@4_KA 000000018005b7a8     kafka-consumer.obj
 0003:000037b0       ?id@?$num_put@DV?$ostreambuf_iterator@DU?$char_traits@D@std@@@std@@@std@@2V0locale@2@A 000000018005b7b0     kafka-consumer.obj
 0003:000037b8       ?id@?$numpunct@D@std@@2V0locale@2@A 000000018005b7b8     kafka-consumer.obj
 0003:000037c0       ?constructor@KafkaConsumer@NodeKafka@@1V?$Persistent@VFunction@v8@@V?$NonCopyablePersistentTraits@VFunction@v8@@@2@@Nan@@A 000000018005b7c0     kafka-consumer.obj
 0003:000037c8       ?constructor@Producer@NodeKafka@@1V?$Persistent@VFunction@v8@@V?$NonCopyablePersistentTraits@VFunction@v8@@@2@@Nan@@A 000000018005b7c8     producer.obj
 0003:000037d0       ?constructor@Topic@NodeKafka@@1V?$Persistent@VFunction@v8@@V?$NonCopyablePersistentTraits@VFunction@v8@@@2@@Nan@@A 000000018005b7d0     topic.obj
 0003:000037d8       __dyn_tls_init_callback    000000018005b7d8     <common>
 0003:000037e0       __scrt_ucrt_dll_is_in_use  000000018005b7e0     <common>
 0006:00000000       _tls_start                 0000000180061000     LIBCMT:tlssup.obj
 0006:00000004       _Init_thread_epoch         0000000180061004     LIBCMT:thread_safe_statics.obj
 0006:00000008       _tls_end                   0000000180061008     LIBCMT:tlssup.obj

 entry point at        0001:0001d4c0

 Static symbols

 0000:fff9b000       .debug$S                   0000000180000000     node:node.exe
 0000:fff9b000       .debug$S                   0000000180000000     node:node.exe
 0000:fff9b000       .debug$S                   0000000180000000     node:node.exe
 0000:fff9b000       .debug$S                   0000000180000000     node:node.exe
 0000:fff9b000       .debug$S                   0000000180000000     node:node.exe
 0000:fff9b000       .debug$S                   0000000180000000     node:node.exe
 0000:fff9b000       .debug$S                   0000000180000000     node:node.exe
 0000:fff9b000       .debug$S                   0000000180000000     node:node.exe
 0000:fff9b000       .debug$S                   0000000180000000     node:node.exe
 0000:fff9b000       .debug$S                   0000000180000000     node:node.exe
 0000:fff9b000       .debug$S                   0000000180000000     node:node.exe
 0000:fff9b000       .debug$S                   0000000180000000     node:node.exe
 0000:fff9b000       .debug$S                   0000000180000000     node:node.exe
 0000:fff9b000       .debug$S                   0000000180000000     node:node.exe
 0000:fff9b000       .debug$S                   0000000180000000     node:node.exe
 0000:fff9b000       .debug$S                   0000000180000000     node:node.exe
 0000:fff9b000       .debug$S                   0000000180000000     node:node.exe
 0000:fff9b000       .debug$S                   0000000180000000     node:node.exe
 0000:fff9b000       .debug$S                   0000000180000000     node:node.exe
 0000:fff9b000       .debug$S                   0000000180000000     node:node.exe
 0000:fff9b000       .debug$S                   0000000180000000     node:node.exe
 0000:fff9b000       .debug$S                   0000000180000000     node:node.exe
 0000:fff9b000       .debug$S                   0000000180000000     node:node.exe
 0000:fff9b000       .debug$S                   0000000180000000     node:node.exe
 0000:fff9b000       .debug$S                   0000000180000000     node:node.exe
 0000:fff9b000       .debug$S                   0000000180000000     kernel32:KERNEL32.dll
 0000:fff9b000       .debug$S                   0000000180000000     node:node.exe
 0000:fff9b000       .debug$S                   0000000180000000     node:node.exe
 0000:fff9b000       .debug$S                   0000000180000000     node:node.exe
 0000:fff9b000       .debug$S                   0000000180000000     node:node.exe
 0000:fff9b000       .debug$S                   0000000180000000     node:node.exe
 0000:fff9b000       .debug$S                   0000000180000000     node:node.exe
 0000:fff9b000       .debug$S                   0000000180000000     node:node.exe
 0000:fff9b000       .debug$S                   0000000180000000     node:node.exe
 0000:fff9b000       .debug$S                   0000000180000000     node:node.exe
 0000:fff9b000       .debug$S                   0000000180000000     node:node.exe
 0000:fff9b000       .debug$S                   0000000180000000     node:node.exe
 0000:fff9b000       .debug$S                   0000000180000000     node:node.exe
 0000:fff9b000       .debug$S                   0000000180000000     node:node.exe
 0000:fff9b000       .debug$S                   0000000180000000     kernel32:KERNEL32.dll
 0000:fff9b000       .debug$S                   0000000180000000     node:node.exe
 0000:fff9b000       .debug$S                   0000000180000000     kernel32:KERNEL32.dll
 0000:fff9b000       .debug$S                   0000000180000000     node:node.exe
 0000:fff9b000       .debug$S                   0000000180000000     kernel32:KERNEL32.dll
 0000:fff9b000       .debug$S                   0000000180000000     node:node.exe
 0000:fff9b000       .debug$S                   0000000180000000     node:node.exe
 0000:fff9b000       .debug$S                   0000000180000000     node:node.exe
 0000:fff9b000       .debug$S                   0000000180000000     node:node.exe
 0000:fff9b000       .debug$S                   0000000180000000     node:node.exe
 0000:fff9b000       .debug$S                   0000000180000000     node:node.exe
 0000:fff9b000       .debug$S                   0000000180000000     node:node.exe
 0000:fff9b000       .debug$S                   0000000180000000     node:node.exe
 0000:fff9b000       .debug$S                   0000000180000000     node:node.exe
 0000:fff9b000       .debug$S                   0000000180000000     kernel32:KERNEL32.dll
 0000:fff9b000       .debug$S                   0000000180000000     node:node.exe
 0000:fff9b000       .debug$S                   0000000180000000     node:node.exe
 0000:fff9b000       .debug$S                   0000000180000000     node:node.exe
 0000:fff9b000       .debug$S                   0000000180000000     node:node.exe
 0000:fff9b000       .debug$S                   0000000180000000     node:node.exe
 0000:fff9b000       .debug$S                   0000000180000000     node:node.exe
 0000:fff9b000       .debug$S                   0000000180000000     node:node.exe
 0000:fff9b000       .debug$S                   0000000180000000     node:node.exe
 0000:fff9b000       .debug$S                   0000000180000000     kernel32:KERNEL32.dll
 0000:fff9b000       .debug$S                   0000000180000000     node:node.exe
 0000:fff9b000       .debug$S                   0000000180000000     kernel32:KERNEL32.dll
 0000:fff9b000       .debug$S                   0000000180000000     kernel32:KERNEL32.dll
 0000:fff9b000       .debug$S                   0000000180000000     node:node.exe
 0000:fff9b000       .debug$S                   0000000180000000     node:node.exe
 0000:fff9b000       .debug$S                   0000000180000000     kernel32:KERNEL32.dll
 0000:fff9b000       .debug$S                   0000000180000000     node:node.exe
 0000:fff9b000       .debug$S                   0000000180000000     node:node.exe
 0000:fff9b000       .debug$S                   0000000180000000     node:node.exe
 0000:fff9b000       .debug$S                   0000000180000000     node:node.exe
 0000:fff9b000       .debug$S                   0000000180000000     kernel32:KERNEL32.dll
 0000:fff9b000       .debug$S                   0000000180000000     node:node.exe
 0000:fff9b000       .debug$S                   0000000180000000     node:node.exe
 0000:fff9b000       .debug$S                   0000000180000000     node:node.exe
 0000:fff9b000       .debug$S                   0000000180000000     node:node.exe
 0000:fff9b000       .debug$S                   0000000180000000     node:node.exe
 0000:fff9b000       .debug$S                   0000000180000000     node:node.exe
 0000:fff9b000       .debug$S                   0000000180000000     kernel32:KERNEL32.dll
 0000:fff9b000       .debug$S                   0000000180000000     kernel32:KERNEL32.dll
 0000:fff9b000       .debug$S                   0000000180000000     node:node.exe
 0000:fff9b000       .debug$S                   0000000180000000     kernel32:KERNEL32.dll
 0000:fff9b000       .debug$S                   0000000180000000     node:node.exe
 0000:fff9b000       .debug$S                   0000000180000000     node:node.exe
 0000:fff9b000       .debug$S                   0000000180000000     node:node.exe
 0000:fff9b000       .debug$S                   0000000180000000     node-librdkafka.exp
 0000:fff9b000       .debug$S                   0000000180000000     node:node.exe
 0000:fff9b000       .debug$S                   0000000180000000     node:node.exe
 0000:fff9b000       .debug$S                   0000000180000000     node:node.exe
 0000:fff9b000       .debug$S                   0000000180000000     librdkafkacpp:librdkafkacpp.dll
 0000:fff9b000       .debug$S                   0000000180000000     node:node.exe
 0000:fff9b000       .debug$S                   0000000180000000     librdkafkacpp:librdkafkacpp.dll
 0000:fff9b000       .debug$S                   0000000180000000     librdkafkacpp:librdkafkacpp.dll
 0000:fff9b000       .debug$S                   0000000180000000     node:node.exe
 0000:fff9b000       .debug$S                   0000000180000000     node:node.exe
 0000:fff9b000       .debug$S                   0000000180000000     node:node.exe
 0000:fff9b000       .debug$S                   0000000180000000     kernel32:KERNEL32.dll
 0000:fff9b000       .debug$S                   0000000180000000     node:node.exe
 0000:fff9b000       .debug$S                   0000000180000000     node:node.exe
 0000:fff9b000       .debug$S                   0000000180000000     librdkafkacpp:librdkafkacpp.dll
 0000:fff9b000       .debug$S                   0000000180000000     kernel32:KERNEL32.dll
 0000:fff9b000       .debug$S                   0000000180000000     node:node.exe
 0000:fff9b000       .debug$S                   0000000180000000     node:node.exe
 0000:fff9b000       .debug$S                   0000000180000000     kernel32:KERNEL32.dll
 0000:fff9b000       .debug$S                   0000000180000000     node:node.exe
 0000:fff9b000       .debug$S                   0000000180000000     librdkafkacpp:librdkafkacpp.dll
 0000:fff9b000       .debug$S                   0000000180000000     kernel32:KERNEL32.dll
 0000:fff9b000       .debug$S                   0000000180000000     node:node.exe
 0000:fff9b000       .debug$S                   0000000180000000     librdkafkacpp:librdkafkacpp.dll
 0000:fff9b000       .debug$S                   0000000180000000     librdkafkacpp:librdkafkacpp.dll
 0000:fff9b000       .debug$S                   0000000180000000     node:node.exe
 0000:fff9b000       .debug$S                   0000000180000000     node:node.exe
 0000:fff9b000       .debug$S                   0000000180000000     librdkafkacpp:librdkafkacpp.dll
 0000:fff9b000       .debug$S                   0000000180000000     librdkafkacpp:librdkafkacpp.dll
 0000:fff9b000       .debug$S                   0000000180000000     librdkafkacpp:librdkafkacpp.dll
 0000:fff9b000       .debug$S                   0000000180000000     librdkafkacpp:librdkafkacpp.dll
 0000:fff9b000       .debug$S                   0000000180000000     librdkafkacpp:librdkafkacpp.dll
 0000:fff9b000       .debug$S                   0000000180000000     node:node.exe
 0000:fff9b000       .debug$S                   0000000180000000     kernel32:KERNEL32.dll
 0000:fff9b000       .debug$S                   0000000180000000     node:node.exe
 0000:fff9b000       .debug$S                   0000000180000000     node:node.exe
 0000:fff9b000       .debug$S                   0000000180000000     librdkafkacpp:librdkafkacpp.dll
 0000:fff9b000       .debug$S                   0000000180000000     librdkafkacpp:librdkafkacpp.dll
 0000:fff9b000       .debug$S                   0000000180000000     librdkafkacpp:librdkafkacpp.dll
 0000:fff9b000       .debug$S                   0000000180000000     kernel32:KERNEL32.dll
 0000:fff9b000       .debug$S                   0000000180000000     librdkafkacpp:librdkafkacpp.dll
 0000:fff9b000       .debug$S                   0000000180000000     node:node.exe
 0000:fff9b000       .debug$S                   0000000180000000     librdkafkacpp:librdkafkacpp.dll
 0000:fff9b000       .debug$S                   0000000180000000     kernel32:KERNEL32.dll
 0000:fff9b000       .debug$S                   0000000180000000     node:node.exe
 0000:fff9b000       .debug$S                   0000000180000000     node:node.exe
 0000:fff9b000       .debug$S                   0000000180000000     node:node.exe
 0000:fff9b000       .debug$S                   0000000180000000     node:node.exe
 0000:fff9b000       .debug$S                   0000000180000000     node:node.exe
 0000:fff9b000       .debug$S                   0000000180000000     kernel32:KERNEL32.dll
 0000:fff9b000       .debug$S                   0000000180000000     node:node.exe
 0000:fff9b000       .debug$S                   0000000180000000     node:node.exe
 0000:fff9b000       .debug$S                   0000000180000000     librdkafkacpp:librdkafkacpp.dll
 0000:fff9b000       .debug$S                   0000000180000000     kernel32:KERNEL32.dll
 0000:fff9b000       .debug$S                   0000000180000000     node:node.exe
 0000:fff9b000       .debug$S                   0000000180000000     node:node.exe
 0000:fff9b000       .debug$S                   0000000180000000     node:node.exe
 0000:fff9b000       .debug$S                   0000000180000000     node:node.exe
 0000:fff9b000       .debug$S                   0000000180000000     kernel32:KERNEL32.dll
 0000:fff9b000       .debug$S                   0000000180000000     node:node.exe
 0000:fff9b000       .debug$S                   0000000180000000     node:node.exe
 0000:fff9b000       .debug$S                   0000000180000000     librdkafkacpp:librdkafkacpp.dll
 0000:fff9b000       .debug$S                   0000000180000000     node:node.exe
 0000:fff9b000       .debug$S                   0000000180000000     node:node.exe
 0000:fff9b000       .debug$S                   0000000180000000     librdkafkacpp:librdkafkacpp.dll
 0000:fff9b000       .debug$S                   0000000180000000     kernel32:KERNEL32.dll
 0000:fff9b000       .debug$S                   0000000180000000     node:node.exe
 0000:fff9b000       .debug$S                   0000000180000000     kernel32:KERNEL32.dll
 0000:fff9b000       .debug$S                   0000000180000000     librdkafkacpp:librdkafkacpp.dll
 0000:fff9b000       .debug$S                   0000000180000000     kernel32:KERNEL32.dll
 0000:fff9b000       .debug$S                   0000000180000000     node:node.exe
 0000:fff9b000       .debug$S                   0000000180000000     node:node.exe
 0000:fff9b000       .debug$S                   0000000180000000     node:node.exe
 0000:fff9b000       .debug$S                   0000000180000000     node:node.exe
 0000:fff9b000       .debug$S                   0000000180000000     librdkafkacpp:librdkafkacpp.dll
 0000:fff9b000       .debug$S                   0000000180000000     kernel32:KERNEL32.dll
 0000:fff9b000       .debug$S                   0000000180000000     kernel32:KERNEL32.dll
 0000:fff9b000       .debug$S                   0000000180000000     kernel32:KERNEL32.dll
 0000:fff9b000       .debug$S                   0000000180000000     kernel32:KERNEL32.dll
 0000:fff9b000       .debug$S                   0000000180000000     librdkafkacpp:librdkafkacpp.dll
 0000:fff9b000       .debug$S                   0000000180000000     librdkafkacpp:librdkafkacpp.dll
 0000:fff9b000       .debug$S                   0000000180000000     kernel32:KERNEL32.dll
 0000:fff9b000       .debug$S                   0000000180000000     kernel32:KERNEL32.dll
 0000:fff9b000       .debug$S                   0000000180000000     librdkafkacpp:librdkafkacpp.dll
 0000:fff9b000       .debug$S                   0000000180000000     kernel32:KERNEL32.dll
 0000:fff9b000       .debug$S                   0000000180000000     kernel32:KERNEL32.dll
 0000:fff9b000       .debug$S                   0000000180000000     librdkafkacpp:librdkafkacpp.dll
 0000:fff9b000       .debug$S                   0000000180000000     kernel32:KERNEL32.dll
 0000:fff9b000       .debug$S                   0000000180000000     librdkafkacpp:librdkafkacpp.dll
 0000:fff9b000       .debug$S                   0000000180000000     librdkafkacpp:librdkafkacpp.dll
 0000:fff9b000       .debug$S                   0000000180000000     librdkafkacpp:librdkafkacpp.dll
 0000:fff9b000       .debug$S                   0000000180000000     kernel32:KERNEL32.dll
 0000:fff9b000       .debug$S                   0000000180000000     kernel32:KERNEL32.dll
 0000:fff9b000       .debug$S                   0000000180000000     librdkafkacpp:librdkafkacpp.dll
 0000:fff9b000       .debug$S                   0000000180000000     kernel32:KERNEL32.dll
 0000:fff9b000       .debug$S                   0000000180000000     kernel32:KERNEL32.dll
 0000:fff9b000       .debug$S                   0000000180000000     librdkafkacpp:librdkafkacpp.dll
 0000:fff9b000       .debug$S                   0000000180000000     kernel32:KERNEL32.dll
 0000:fff9b000       .debug$S                   0000000180000000     librdkafkacpp:librdkafkacpp.dll
 0000:fff9b000       .debug$S                   0000000180000000     kernel32:KERNEL32.dll
 0000:fff9b000       .debug$S                   0000000180000000     kernel32:KERNEL32.dll
 0000:fff9b000       .debug$S                   0000000180000000     kernel32:KERNEL32.dll
 0000:fff9b000       .debug$S                   0000000180000000     kernel32:KERNEL32.dll
 0000:fff9b000       .debug$S                   0000000180000000     kernel32:KERNEL32.dll
 0000:fff9b000       .debug$S                   0000000180000000     kernel32:KERNEL32.dll
 0000:fff9b000       .debug$S                   0000000180000000     kernel32:KERNEL32.dll
 0000:fff9b000       .debug$S                   0000000180000000     kernel32:KERNEL32.dll
 0000:fff9b000       .debug$S                   0000000180000000     kernel32:KERNEL32.dll
 0000:fff9b000       .debug$S                   0000000180000000     kernel32:KERNEL32.dll
 0000:fff9b000       .debug$S                   0000000180000000     kernel32:KERNEL32.dll
 0000:fff9b000       .debug$S                   0000000180000000     kernel32:KERNEL32.dll
 0000:fff9b000       .debug$S                   0000000180000000     kernel32:KERNEL32.dll
 0000:fff9b000       .debug$S                   0000000180000000     kernel32:KERNEL32.dll
 0000:fff9b000       .debug$S                   0000000180000000     kernel32:KERNEL32.dll
 0000:fff9b000       .debug$S                   0000000180000000     kernel32:KERNEL32.dll
 0000:fff9b000       .debug$S                   0000000180000000     kernel32:KERNEL32.dll
 0000:fff9b000       .debug$S                   0000000180000000     kernel32:KERNEL32.dll
 0000:fff9b000       .debug$S                   0000000180000000     kernel32:KERNEL32.dll
 0000:fff9b000       .debug$S                   0000000180000000     kernel32:KERNEL32.dll
 0000:fff9b000       .debug$S                   0000000180000000     kernel32:KERNEL32.dll
 0000:fff9b000       .debug$S                   0000000180000000     kernel32:KERNEL32.dll
 0000:fff9b000       .debug$S                   0000000180000000     kernel32:KERNEL32.dll
 0000:fff9b000       .debug$S                   0000000180000000     kernel32:KERNEL32.dll
 0000:fff9b000       .debug$S                   0000000180000000     kernel32:KERNEL32.dll
 0000:fff9b000       .debug$S                   0000000180000000     kernel32:KERNEL32.dll
 0000:fff9b000       .debug$S                   0000000180000000     kernel32:KERNEL32.dll
 0000:fff9b000       .debug$S                   0000000180000000     node:node.exe
 0000:fff9b000       .debug$S                   0000000180000000     kernel32:KERNEL32.dll
 0000:fff9b000       .debug$S                   0000000180000000     kernel32:KERNEL32.dll
 0000:fff9b000       .debug$S                   0000000180000000     kernel32:KERNEL32.dll
 0000:fff9b000       .debug$S                   0000000180000000     kernel32:KERNEL32.dll
 0000:fff9b000       .debug$S                   0000000180000000     kernel32:KERNEL32.dll
 0000:fff9b000       .debug$S                   0000000180000000     kernel32:KERNEL32.dll
 0000:fff9b000       .debug$S                   0000000180000000     kernel32:KERNEL32.dll
 0000:fff9b000       .debug$S                   0000000180000000     kernel32:KERNEL32.dll
 0000:fff9b000       .debug$S                   0000000180000000     kernel32:KERNEL32.dll
 0000:fff9b000       .debug$S                   0000000180000000     kernel32:KERNEL32.dll
 0000:fff9b000       .debug$S                   0000000180000000     kernel32:KERNEL32.dll
 0000:fff9b000       .debug$S                   0000000180000000     kernel32:KERNEL32.dll
 0000:fff9b000       .debug$S                   0000000180000000     kernel32:KERNEL32.dll
 0000:fff9b000       .debug$S                   0000000180000000     kernel32:KERNEL32.dll
 0000:fff9b000       .debug$S                   0000000180000000     kernel32:KERNEL32.dll
 0000:fff9b000       .debug$S                   0000000180000000     kernel32:KERNEL32.dll
 0000:fff9b000       .debug$S                   0000000180000000     kernel32:KERNEL32.dll
 0000:fff9b000       .debug$S                   0000000180000000     kernel32:KERNEL32.dll
 0000:fff9b000       .debug$S                   0000000180000000     kernel32:KERNEL32.dll
 0000:fff9b000       .debug$S                   0000000180000000     kernel32:KERNEL32.dll
 0000:fff9b000       .debug$S                   0000000180000000     kernel32:KERNEL32.dll
 0000:fff9b000       .debug$S                   0000000180000000     kernel32:KERNEL32.dll
 0000:fff9b000       .debug$S                   0000000180000000     kernel32:KERNEL32.dll
 0000:fff9b000       .debug$S                   0000000180000000     kernel32:KERNEL32.dll
 0000:fff9b000       .debug$S                   0000000180000000     kernel32:KERNEL32.dll
 0000:fff9b000       .debug$S                   0000000180000000     kernel32:KERNEL32.dll
 0000:fff9b000       .debug$S                   0000000180000000     kernel32:KERNEL32.dll
 0000:fff9b000       .debug$S                   0000000180000000     kernel32:KERNEL32.dll
 0000:fff9b000       .debug$S                   0000000180000000     kernel32:KERNEL32.dll
 0000:fff9b000       .debug$S                   0000000180000000     kernel32:KERNEL32.dll
 0000:fff9b000       .debug$S                   0000000180000000     kernel32:KERNEL32.dll
 0000:fff9b000       .debug$S                   0000000180000000     kernel32:KERNEL32.dll
 0000:fff9b000       .debug$S                   0000000180000000     kernel32:KERNEL32.dll
 0000:fff9b000       .debug$S                   0000000180000000     kernel32:KERNEL32.dll
 0000:fff9b000       .debug$S                   0000000180000000     kernel32:KERNEL32.dll
 0000:fff9b000       .debug$S                   0000000180000000     kernel32:KERNEL32.dll
 0001:00000000       ??__E?constructor@KafkaConsumer@NodeKafka@@1V?$Persistent@VFunction@v8@@V?$NonCopyablePersistentTraits@VFunction@v8@@@2@@Nan@@A@@YAXXZ 0000000180001000 f   kafka-consumer.obj
 0001:00000020       ??__E?constructor@Producer@NodeKafka@@1V?$Persistent@VFunction@v8@@V?$NonCopyablePersistentTraits@VFunction@v8@@@2@@Nan@@A@@YAXXZ 0000000180001020 f   producer.obj
 0001:00000040       ??__E?constructor@Topic@NodeKafka@@1V?$Persistent@VFunction@v8@@V?$NonCopyablePersistentTraits@VFunction@v8@@@2@@Nan@@A@@YAXXZ 0000000180001040 f   topic.obj
 0001:00000058       ??__Einitlocks@std@@YAXXZ  0000000180001058 f   libcpmt:xlock.obj
 0001:00000078       ??__E_Fac_tidy_reg@std@@YAXXZ 0000000180001078 f   libcpmt:locale0.obj
 0001:00000084       ??__Eclassic_locale@std@@YAXXZ 0000000180001084 f   libcpmt:locale0.obj
 0001:00000090       ??__Ecerr@std@@YAXXZ       0000000180001090 f   libcpmt:cerr.obj
 0001:000000c0       ??__Eferr@std@@YAXXZ       00000001800010c0 f   libcpmt:cerr.obj
 0001:00000110       ??__Einit_cerr@std@@YAXXZ  0000000180001110 f   libcpmt:cerr.obj
 0001:00000148       ??__Einitlocks@@YAXXZ      0000000180001148 f   libcpmt:cerr.obj
 0001:00000168       ??__Ecout@std@@YAXXZ       0000000180001168 f   libcpmt:cout.obj
 0001:00000198       ??__Efout@std@@YAXXZ       0000000180001198 f   libcpmt:cout.obj
 0001:000001e8       ??__Einit_cout@std@@YAXXZ  00000001800011e8 f   libcpmt:cout.obj
 0001:000001f4       ??__Einitlocks@@YAXXZ      00000001800011f4 f   libcpmt:cout.obj
 0001:00000214       ??__Einit_atexit@@YAXXZ    0000000180001214 f   libcpmt:iosptrs.obj
 0001:00000220       ??__Einitlocks@std@@YAXXZ  0000000180001220 f   libcpmt:iosptrs.obj
 0001:000002b0       ?FunctionCallbackWrapper@imp@Nan@@YAXAEBV?$FunctionCallbackInfo@VValue@v8@@@v8@@@Z 00000001800012b0 f   binding.obj
 0001:00000580       ?RdKafkaCleanup@@YAXPEAX@Z 0000000180001580 f   binding.obj
 0001:00003900       _register_kafka            0000000180004900 f   binding.obj
 0001:000196a0       ?load_exe_hook@@YAP6A_JXZIPEAUDelayLoadInfo@@@Z 000000018001a6a0 f   win_delay_load_hook.obj
 0001:0001a414       tidy_global                000000018001b414 f   libcpmt:locale0.obj
 0001:0001b540       no_op_initialize           000000018001c540 f i libucrt:wsetlocale.obj
 0001:0001c2d0       ?initialize_pointers@@YAHXZ 000000018001d2d0 f   libcpmt:winapisupp.obj
 0001:0001c9e0       $$000000                   000000018001d9e0     LIBCMT:_amdsecgs_.obj
 0001:0001ca8c       ?__scrt_initialize_thread_safe_statics@@YAHXZ 000000018001da8c f   LIBCMT:thread_safe_statics.obj
 0001:0001cbac       ?__scrt_uninitialize_thread_safe_statics@@YAXXZ 000000018001dbac f   LIBCMT:thread_safe_statics.obj
 0001:0001d174       ?dllmain_crt_dispatch@@YAHQEAUHINSTANCE__@@KQEAX@Z 000000018001e174 f   LIBCMT:dll_dllmain.obj
 0001:0001d1c4       ?dllmain_crt_process_attach@@YAHQEAUHINSTANCE__@@QEAX@Z 000000018001e1c4 f   LIBCMT:dll_dllmain.obj
 0001:0001d2f0       ?dllmain_crt_process_detach@@YAH_N@Z 000000018001e2f0 f   LIBCMT:dll_dllmain.obj
 0001:0001d374       ?dllmain_dispatch@@YAHQEAUHINSTANCE__@@KQEAX@Z 000000018001e374 f   LIBCMT:dll_dllmain.obj
 0001:0001d46c       ?dllmain_raw@@YAHQEAUHINSTANCE__@@KQEAX@Z 000000018001e46c f   LIBCMT:dll_dllmain.obj
 0001:0001d610       $$000000                   000000018001e610     LIBCMT:_chkstk_.obj
 0001:0001d82c       capture_current_context    000000018001e82c f   LIBCMT:gs_report.obj
 0001:0001d89c       capture_previous_context   000000018001e89c f   LIBCMT:gs_report.obj
 0001:0001de70       $$000000                   000000018001ee70     libvcruntime:memcpy.obj
 0001:0001df17       MoveSmall                  000000018001ef17     libvcruntime:memcpy.obj
 0001:0001e56c       ?CatchIt@@YAXPEAUEHExceptionRecord@@PEA_KPEAU_CONTEXT@@PEAU_xDISPATCHER_CONTEXT@@PEBU_s_FuncInfo@@PEBU_s_HandlerType@@PEBU_s_CatchableType@@PEBU_s_TryBlockMapEntry@@H1EE@Z 000000018001f56c f   libvcruntime:frame.obj
 0001:0001e630       ?ExFilterRethrow@@YAHPEAU_EXCEPTION_POINTERS@@PEAUEHExceptionRecord@@PEAH@Z 000000018001f630 f   libvcruntime:frame.obj
 0001:0001e6b8       ?FindHandler@@YAXPEAUEHExceptionRecord@@PEA_KPEAU_CONTEXT@@PEAU_xDISPATCHER_CONTEXT@@PEBU_s_FuncInfo@@EH1@Z 000000018001f6b8 f   libvcruntime:frame.obj
 0001:0001eb88       ?FindHandlerForForeignException@@YAXPEAUEHExceptionRecord@@PEA_KPEAU_CONTEXT@@PEAU_xDISPATCHER_CONTEXT@@PEBU_s_FuncInfo@@HH1@Z 000000018001fb88 f   libvcruntime:frame.obj
 0001:0001edf4       ?IsInExceptionSpec@@YAEPEAUEHExceptionRecord@@PEBU_s_ESTypeList@@@Z 000000018001fdf4 f   libvcruntime:frame.obj
 0001:0001ffd0       $$000000                   0000000180020fd0     libvcruntime:memset.obj
 0001:000200bc       MsetTab                    00000001800210bc     libvcruntime:memset.obj
 0001:00020180       $$000000                   0000000180021180     libvcruntime:memcmp.obj
 0001:00020258       ?try_get_function@@YAPEAXW4function_id@?A0x679b24ab@@QEBDQEBW4module_id@2@2@Z 0000000180021258 f   libvcruntime:winapi_downlevel.obj
 0001:00020c40       $$000000                   0000000180021c40     libvcruntime:handlers.obj
 0001:00020c90       $$000000                   0000000180021c90     libvcruntime:_jmpuwind_.obj
 0001:00020d84       ??$common_assert_to_message_box@_W@@YAXQEB_W0IQEAX@Z 0000000180021d84 f   libucrt:assert.obj
 0001:00020e48       ??$common_assert_to_message_box_build_string@_W@@YAXQEA_W_KQEB_W2IQEAX@Z 0000000180021e48 f   libucrt:assert.obj
 0001:0002161c       ??$common_assert_to_stderr@_W@@YAXQEB_W0I@Z 000000018002261c f   libucrt:assert.obj
 0001:0002178c       ?get_assert_format@@YAPEB_W_W@Z 000000018002278c f   libucrt:assert.obj
 0001:00022060       ??R<lambda_dd75445284c072d0bd3768540cc698fa>@@QEBAHXZ 0000000180023060 f   libucrt:output.obj
 0001:00023d44       ??$common_timespec_get@U_timespec64@@@@YAHQEAU_timespec64@@H@Z 0000000180024d44 f   libucrt:time.obj
 0001:0002402c       call_wsetlocale            000000018002502c f   libucrt:setlocale.obj
 0001:00024768       common_flush_all           0000000180025768 f   libucrt:fflush.obj
 0001:00024b94       ?common_fseek@@YAHV__crt_stdio_stream@@_JH@Z 0000000180025b94 f   libucrt:fseek.obj
 0001:00024c00       ?common_fseek_binary_mode_read_only_fast_track_nolock@@YA_NV__crt_stdio_stream@@_JH@Z 0000000180025c00 f   libucrt:fseek.obj
 0001:00024d10       ?common_fseek_nolock@@YAHV__crt_stdio_stream@@_JH@Z 0000000180025d10 f   libucrt:fseek.obj
 0001:00024e50       ??R<lambda_532e024f4337e6fc7ad266c2bef9f4ed>@@QEBA_KXZ 0000000180025e50 f   libucrt:fwrite.obj
 0001:00025114       ??R<lambda_b721fa326cdb32351d23dfa67958c160>@@QEBAHXZ 0000000180026114 f   libucrt:setvbuf.obj
 0001:00025cd4       ?x_ismbbtype_l@@YAHPEAU__crt_locale_pointers@@IHH@Z 0000000180026cd4 f   libucrt:ismbbyte.obj
 0001:00026330       memcpy_s                   0000000180027330 f   libucrt:cfout.obj
 0001:00026330       memcpy_s                   0000000180027330 f   libucrt:strtod.obj
 0001:000263c0       $$000000                   00000001800273c0     libucrt:pow.obj
 0001:00027a60       $$000000                   0000000180028a60     libucrt:powf.obj
 0001:00028980       ?internal_isupper_l@@YA_NHQEAU__crt_locale_pointers@@@Z 0000000180029980 f   libucrt:tolower_toupper.obj
 0001:00028fb4       ?atexit_exception_filter@@YAHK@Z 0000000180029fb4 f   libucrt:exit.obj
 0001:00028fc0       ?common_exit@@YAXHW4_crt_exit_cleanup_mode@@W4_crt_exit_return_mode@@@Z 0000000180029fc0 f   libucrt:exit.obj
 0001:0002912c       ?exit_or_terminate_process@@YAXI@Z 000000018002a12c f   libucrt:exit.obj
 0001:00029178       ?try_cor_exit_process@@YAXI@Z 000000018002a178 f   libucrt:exit.obj
 0001:00029210       ??$parse_command_line@D@@YAXPEADPEAPEAD0PEA_K2@Z 000000018002a210 f   libucrt:argv_parsing.obj
 0001:000295a8       ??$common_initialize_environment_nolock@D@@YAHXZ 000000018002a5a8 f   libucrt:environment_initialization.obj
 0001:00029614       ??$create_environment@D@@YAQEAPEADQEAD@Z 000000018002a614 f   libucrt:environment_initialization.obj
 0001:00029710       ??$free_environment@_W@@YAXQEAPEA_W@Z 000000018002a710 f   libucrt:environment_initialization.obj
 0001:00029710       ??$free_environment@D@@YAXQEAPEAD@Z 000000018002a710 f   libucrt:environment_initialization.obj
 0001:00029754       ??$uninitialize_environment_internal@D@@YAXAEAPEAPEAD@Z 000000018002a754 f   libucrt:environment_initialization.obj
 0001:00029770       ??$uninitialize_environment_internal@_W@@YAXAEAPEAPEA_W@Z 000000018002a770 f   libucrt:environment_initialization.obj
 0001:000299a8       ??R<lambda_4e60a939b0d047cfe11ddc22648dfba9>@@QEBAHXZ 000000018002a9a8 f   libucrt:onexit.obj
 0001:00029c58       initialize_global_variables 000000018002ac58 f   libucrt:initialization.obj
 0001:00029c6c       initialize_c               000000018002ac6c f   libucrt:initialization.obj
 0001:00029c90       uninitialize_environment   000000018002ac90 f   libucrt:initialization.obj
 0001:00029ca0       initialize_pointers        000000018002aca0 f   libucrt:initialization.obj
 0001:00029cf4       uninitialize_vcruntime     000000018002acf4 f   libucrt:initialization.obj
 0001:00029cfc       uninitialize_allocated_memory 000000018002acfc f   libucrt:initialization.obj
 0001:00029d8c       initialize_global_state_isolation 000000018002ad8c f   libucrt:initialization.obj
 0001:00029d8c       uninitialize_c             000000018002ad8c f   libucrt:initialization.obj
 0001:00029d8c       initialize_environment     000000018002ad8c f   libucrt:initialization.obj
 0001:00029d8c       uninitialize_global_state_isolation 000000018002ad8c f   libucrt:initialization.obj
 0001:00029d8c       report_memory_leaks        000000018002ad8c f   libucrt:initialization.obj
 0001:0002a66c       ??$common_xtox@K_W@@YAHKQEA_W_KI_N@Z 000000018002b66c f   libucrt:xtoa.obj
 0001:0002a718       ??$common_xtox_s@K_W@@YAHKQEA_W_KI_N@Z 000000018002b718 f   libucrt:xtoa.obj
 0001:0002a974       ??$message_box_wait_thread@_W@@YAKQEAX@Z 000000018002b974 f   libucrt:crtmbox.obj
 0001:0002af14       ?construct_ptd_array@@YAXQEAU__acrt_ptd@@@Z 000000018002bf14 f   libucrt:per_thread_data.obj
 0001:0002afe4       ?destroy_fls@@YAXPEAX@Z    000000018002bfe4 f   libucrt:per_thread_data.obj
 0001:0002b004       ?destroy_ptd_array@@YAXQEAU__acrt_ptd@@@Z 000000018002c004 f   libucrt:per_thread_data.obj
 0001:0002b0fc       ?replace_current_thread_locale_nolock@@YAXQEAU__acrt_ptd@@QEAU__crt_locale_data@@@Z 000000018002c0fc f   libucrt:per_thread_data.obj
 0001:0002b724       ?fp_format_a@@YAHQEBNPEAD_KQEAD2H_NIQEAU__crt_locale_pointers@@@Z 000000018002c724 f   libucrt:cvt.obj
 0001:0002ba84       ?fp_format_e@@YAHQEBNQEAD_K12H_NIQEAU__crt_locale_pointers@@@Z 000000018002ca84 f   libucrt:cvt.obj
 0001:0002bb54       ?fp_format_e_internal@@YAHQEAD_KH_NIQEAU_strflt@@2QEAU__crt_locale_pointers@@@Z 000000018002cb54 f   libucrt:cvt.obj
 0001:0002bd30       ?fp_format_f_internal@@YAHQEAD_KHQEAU_strflt@@_NQEAU__crt_locale_pointers@@@Z 000000018002cd30 f   libucrt:cvt.obj
 0001:0002be78       ?fp_format_g@@YAHQEBNQEAD_K12H_NIQEAU__crt_locale_pointers@@@Z 000000018002ce78 f   libucrt:cvt.obj
 0001:0002bfb0       ?fp_format_nan_or_infinity@@YAHW4__acrt_fp_class@@_NPEAD_K1@Z 000000018002cfb0 f   libucrt:cvt.obj
 0001:0002c768       ??R<lambda_2af78c5f5901b1372d98f9ab3177dfa6>@@QEBAXXZ 000000018002d768 f   libucrt:wsetlocale.obj
 0001:0002cb2c       _copytlocinfo_nolock       000000018002db2c f   libucrt:wsetlocale.obj
 0001:0002d0ec       _wsetlocale_get_all        000000018002e0ec f   libucrt:wsetlocale.obj
 0001:0002d2d4       _wsetlocale_nolock         000000018002e2d4 f   libucrt:wsetlocale.obj
 0001:0002d55c       _wsetlocale_set_cat        000000018002e55c f   libucrt:wsetlocale.obj
 0001:0002d89c       ?initialize_inherited_file_handles_nolock@@YAXXZ 000000018002e89c f   libucrt:ioinit.obj
 0001:0002d988       ?initialize_stdio_handles_nolock@@YAXXZ 000000018002e988 f   libucrt:ioinit.obj
 0001:0002df5c       ?<helper_func_cdecl>@<lambda_e2bb8337c48846e80c921ea5ddadc92d>@@CAHPEA_W@Z 000000018002ef5c f   libucrt:winapi_thunks.obj
 0001:0002e038       ?try_get_function@@YAPEAXW4function_id@?A0x63058377@@QEBDQEBW4module_id@2@2@Z 000000018002f038 f   libucrt:winapi_thunks.obj
 0001:0002eb94       ?_mbstowcs_l_helper@@YA_KPEA_WPEBD_KPEAU__crt_locale_pointers@@@Z 000000018002fb94 f   libucrt:mbstowcs.obj
 0001:0002eec0       ?_wcstombs_l_helper@@YA_KPEADPEB_W_KPEAU__crt_locale_pointers@@@Z 000000018002fec0 f   libucrt:wcstombs.obj
 0001:0002f70c       ?write_double_translated_ansi_nolock@@YA?AUwrite_result@?A0x9c548279@@HQEBDI@Z 000000018003070c f   libucrt:write.obj
 0001:0002f914       ?write_text_ansi_nolock@@YA?AUwrite_result@?A0x9c548279@@HQEBDI@Z 0000000180030914 f   libucrt:write.obj
 0001:0002fa1c       ?write_text_utf16le_nolock@@YA?AUwrite_result@?A0x9c548279@@HQEBDI@Z 0000000180030a1c f   libucrt:write.obj
 0001:0002fb38       ?write_text_utf8_nolock@@YA?AUwrite_result@?A0x9c548279@@HQEBDI@Z 0000000180030b38 f   libucrt:write.obj
 0001:0003007c       ??$common_refill_and_read_nolock@D@@YAHV__crt_stdio_stream@@@Z 000000018003107c f   libucrt:_filbuf.obj
 0001:0003022c       ??$common_ftell@_J@@YA_JV__crt_stdio_stream@@@Z 000000018003122c f   libucrt:ftell.obj
 0001:00030280       ??$common_ftell_nolock@_J@@YA_JV__crt_stdio_stream@@@Z 0000000180031280 f   libucrt:ftell.obj
 0001:000303f8       ?common_ftell_read_mode_nolock@@YA_JV__crt_stdio_stream@@_J1@Z 00000001800313f8 f   libucrt:ftell.obj
 0001:00030570       ?common_ftell_translated_utf8_nolock@@YA_JV__crt_stdio_stream@@_J@Z 0000000180031570 f   libucrt:ftell.obj
 0001:000306f8       ??$write_buffer_nolock@D@@YA_NDV__crt_stdio_stream@@@Z 00000001800316f8 f   libucrt:_flsbuf.obj
 0001:000307fc       ??$write_buffer_nolock@_W@@YA_N_WV__crt_stdio_stream@@@Z 00000001800317fc f   libucrt:_flsbuf.obj
 0001:00030adc       ??$common_lseek@_J@@YA_JH_JH@Z 0000000180031adc f   libucrt:lseek.obj
 0001:00030bcc       ??$common_lseek_nolock@_J@@YA_JH_JH@Z 0000000180031bcc f   libucrt:lseek.obj
 0001:00030e1c       ?InternalGetLocaleInfoA@@YAHQEAU__crt_locale_pointers@@QEB_WKQEADH@Z 0000000180031e1c f   libucrt:getlocaleinfoa.obj
 0001:00031338       ?__acrt_LCMapStringA_stat@@YAHPEAU__crt_locale_pointers@@PEB_WKPEBDHPEADHHH@Z 0000000180032338 f   libucrt:lcmapstringa.obj
 0001:00031ca8       ?<helper_func_cdecl>@<lambda_2feae5270eb4d0d5532525f423405775>@@CAHPEBX0@Z 0000000180032ca8 f   libucrt:argv_wildcards.obj
 0001:00031cbc       ??$common_expand_argv_wildcards@D@@YAHQEAPEADQEAPEAPEAD@Z 0000000180032cbc f   libucrt:argv_wildcards.obj
 0001:00031ec8       ??$copy_and_add_argument_to_buffer@D@@YAHQEBD0_KAEAV?$argument_list@D@?A0xca0879c4@@@Z 0000000180032ec8 f   libucrt:argv_wildcards.obj
 0001:00031fd8       ??$expand_argument_wildcards@D@@YAHQEAD0AEAV?$argument_list@D@?A0xca0879c4@@@Z 0000000180032fd8 f   libucrt:argv_wildcards.obj
 0001:0003228c       ??R<lambda_ad1ced32f4ac17aa236e5ef05d6b3b7c>@@QEBAXXZ 000000018003328c f   libucrt:mbctype.obj
 0001:000324a4       ?getSystemCP@@YAHH@Z       00000001800334a4 f   libucrt:mbctype.obj
 0001:00032524       ?setSBCS@@YAXPEAU__crt_multibyte_data@@@Z 0000000180033524 f   libucrt:mbctype.obj
 0001:000325b4       ?setSBUpLow@@YAXPEAU__crt_multibyte_data@@@Z 00000001800335b4 f   libucrt:mbctype.obj
 0001:00032798       ?setmbcp_internal@@YAHH_N@Z 0000000180033798 f   libucrt:mbctype.obj
 0001:0003530c       ?free_crt_array_internal@@YAXQEAPEBX_K@Z 000000018003630c f   libucrt:inittime.obj
 0001:00035364       ?initialize_lc_time@@YA_NQEAU__crt_lc_time_data@@QEAU__crt_locale_data@@@Z 0000000180036364 f   libucrt:inittime.obj
 0001:000358f0       GetLocaleNameFromDefault   00000001800368f0 f   libucrt:get_qualified_locale.obj
 0001:00035998       GetLocaleNameFromLangCountry 0000000180036998 f   libucrt:get_qualified_locale.obj
 0001:00035a68       GetLocaleNameFromLanguage  0000000180036a68 f   libucrt:get_qualified_locale.obj
 0001:00035b04       LangCountryEnumProcEx      0000000180036b04 f   libucrt:get_qualified_locale.obj
 0001:00035eb8       LanguageEnumProcEx         0000000180036eb8 f   libucrt:get_qualified_locale.obj
 0001:00035fa4       ProcessCodePage            0000000180036fa4 f   libucrt:get_qualified_locale.obj
 0001:00036058       TestDefaultCountry         0000000180037058 f   libucrt:get_qualified_locale.obj
 0001:000360c0       TranslateName              00000001800370c0 f   libucrt:get_qualified_locale.obj
 0001:0003637c       CountryEnumProc            000000018003737c f   libucrt:getqloc_downlevel.obj
 0001:00036468       GetLcidFromLangCountry     0000000180037468 f   libucrt:getqloc_downlevel.obj
 0001:00036538       GetLcidFromLanguage        0000000180037538 f   libucrt:getqloc_downlevel.obj
 0001:000365d0       LangCountryEnumProc        00000001800375d0 f   libucrt:getqloc_downlevel.obj
 0001:00036814       LanguageEnumProc           0000000180037814 f   libucrt:getqloc_downlevel.obj
 0001:00036910       LcidFromHexString          0000000180037910 f   libucrt:getqloc_downlevel.obj
 0001:00036960       ProcessCodePage            0000000180037960 f   libucrt:getqloc_downlevel.obj
 0001:00036a10       TestDefaultLanguage        0000000180037a10 f   libucrt:getqloc_downlevel.obj
 0001:00036abc       TranslateName              0000000180037abc f   libucrt:getqloc_downlevel.obj
 0001:00037100       $$000000                   0000000180038100     libucrt:fpsr.obj
 0001:00037160       ?GetTableIndexFromLocaleName@@YAHPEB_W@Z 0000000180038160 f   libucrt:lcidtoname_downlevel.obj
 0001:0003739c       ??$translate_text_mode_nolock@_W@@YAHHQEA_W_K@Z 000000018003839c f   libucrt:read.obj
 0001:000375cc       ?translate_ansi_or_utf8_nolock@@YAHHQEAD_KQEA_W1@Z 00000001800385cc f   libucrt:read.obj
 0001:00037fa8       _call_matherr              0000000180038fa8 f   libucrt:libm_error.obj
 0001:00038010       _exception_enabled         0000000180039010 f   libucrt:libm_error.obj
 0001:00038420       ?shortsort@@YAXPEAD0_KP6AHPEBX2@Z@Z 0000000180039420 f   libucrt:qsort.obj
 0001:00038964       ?initialize_multibyte@@YAHXZ 0000000180039964 f   libucrt:multibyte_initializer.obj
 0001:00038b40       $$000000                   0000000180039b40     libucrt:log10.obj
 0001:000393dc       common_control87           000000018003a3dc f   libucrt:ieee.obj
 0001:00039720       _log_special_common        000000018003a720 f   libucrt:log_special.obj
 0001:0003a1a4       ?FindMITargetTypeInstance@@YAPEBU_s_RTTIBaseClassDescriptor@@PEAXPEBU_s_RTTICompleteObjectLocator@@PEAUTypeDescriptor@@_J2_K@Z 000000018003b1a4 f   libvcruntime:rtti.obj
 0001:0003a330       ?FindSITargetTypeInstance@@YAPEBU_s_RTTIBaseClassDescriptor@@PEBU_s_RTTICompleteObjectLocator@@PEAUTypeDescriptor@@1_K@Z 000000018003b330 f   libvcruntime:rtti.obj
 0001:0003a418       ?FindVITargetTypeInstance@@YAPEBU_s_RTTIBaseClassDescriptor@@PEAXPEBU_s_RTTICompleteObjectLocator@@PEAUTypeDescriptor@@_J2_K@Z 000000018003b418 f   libvcruntime:rtti.obj
 0001:0003a7f0       $$000000                   000000018003b7f0     LIBCMT:_guard_dispatch_.obj
 0001:0003a810       ?dtor$0@?0??_Init@locale@std@@CAPEAV_Locimp@12@_N@Z@4HA 000000018003b810 f   libcpmt:locale0.obj
 0001:0003a810       ?dtor$0@?0??_Locimp_dtor@_Locimp@locale@std@@CAXPEAV123@@Z@4HA 000000018003b810 f   libcpmt:locale0.obj
 0001:0003a81c       ?dtor$0@?0???$use_facet@V?$codecvt@DDU_Mbstatet@@@std@@@std@@YAAEBV?$codecvt@DDU_Mbstatet@@@0@AEBVlocale@0@@Z@4HA 000000018003b81c f   libcpmt:cerr.obj
 0001:0003a828       ?dtor$0@?0???0?$basic_ostream@DU?$char_traits@D@std@@@std@@QEAA@PEAV?$basic_streambuf@DU?$char_traits@D@std@@@1@_N@Z@4HA 000000018003b828 f   libcpmt:cerr.obj
 0001:0003a852       ?dtor$0@?0??_Endwrite@?$basic_filebuf@DU?$char_traits@D@std@@@std@@IEAA_NXZ@4HA 000000018003b852 f   libcpmt:cerr.obj
 0001:0003a85e       ?dtor$0@?0??_Getcat@?$codecvt@DDU_Mbstatet@@@std@@SA_KPEAPEBVfacet@locale@2@PEBV42@@Z@4HA 000000018003b85e f   libcpmt:cerr.obj
 0001:0003a87e       ?dtor$0@?0??uflow@?$basic_filebuf@DU?$char_traits@D@std@@@std@@MEAAHXZ@4HA 000000018003b87e f   libcpmt:cerr.obj
 0001:0003a87e       ?dtor$0@?0??overflow@?$basic_filebuf@DU?$char_traits@D@std@@@std@@MEAAHH@Z@4HA 000000018003b87e f   libcpmt:cerr.obj
 0001:0003a88a       __scrt_is_nonwritable_in_current_image$filt$0 000000018003b88a f   LIBCMT:utility.obj
 0001:0003a8a2       ?fin$0@?0??dllmain_crt_process_attach@@YAHQEAUHINSTANCE__@@QEAX@Z@4HA 000000018003b8a2 f   LIBCMT:dll_dllmain.obj
 0001:0003a8b9       ?fin$0@?0??dllmain_crt_process_detach@@YAH_N@Z@4HA 000000018003b8b9 f   LIBCMT:dll_dllmain.obj
 0001:0003a8d5       ?filt$0@?0??dllmain_dispatch@@YAHQEAUHINSTANCE__@@KQEAX@Z@4HA 000000018003b8d5 f   LIBCMT:dll_dllmain.obj
 0001:0003a90b       __CxxCallCatchBlock$filt$0 000000018003b90b f   libvcruntime:frame.obj
 0001:0003a930       __CxxCallCatchBlock$fin$1  000000018003b930 f   libvcruntime:frame.obj
 0001:0003a9a8       __DestructExceptionObject$filt$0 000000018003b9a8 f   libvcruntime:frame.obj
 0001:0003a9c0       __FrameUnwindToState$filt$0 000000018003b9c0 f   libvcruntime:frame.obj
 0001:0003a9d6       __FrameUnwindToState$fin$1 000000018003b9d6 f   libvcruntime:frame.obj
 0001:0003a9f9       _CallSETranslator$filt$0   000000018003b9f9 f   libvcruntime:trnsctrl.obj
 0001:0003aa45       ?fin$0@?0???$?RV<lambda_7a5ef57ff966f610505f1d28a3d40618>@@AEAV<lambda_b721fa326cdb32351d23dfa67958c160>@@V<lambda_5e0fb27672408a07956fe59e48ccb2aa>@@@?$__crt_seh_guarded_call@H@@QEAAH$$QEAV<lambda_7a5ef57ff966f610505f1d28a3d40618>@@AEAV<lambda_b721fa326cdb32351d23dfa67958c160>@@$$QEAV<lambda_5e0fb27672408a07956fe59e48ccb2aa>@@@Z@4HA 000000018003ba45 f   libucrt:setvbuf.obj
 0001:0003aa45       ?fin$0@?0???$?RV<lambda_5d4c3fee44080f75d5d9762853974fe0>@@AEAV<lambda_532e024f4337e6fc7ad266c2bef9f4ed>@@V<lambda_c87bdc10097eb2402edb8ba9bdf0697b>@@@?$__crt_seh_guarded_call@_K@@QEAA_K$$QEAV<lambda_5d4c3fee44080f75d5d9762853974fe0>@@AEAV<lambda_532e024f4337e6fc7ad266c2bef9f4ed>@@$$QEAV<lambda_c87bdc10097eb2402edb8ba9bdf0697b>@@@Z@4HA 000000018003ba45 f   libucrt:fwrite.obj
 0001:0003aa45       ?fin$0@?0???$?RV<lambda_7b91131dde12e1c3dfc74ff76b3f2eac>@@AEAV<lambda_dd75445284c072d0bd3768540cc698fa>@@V<lambda_16bc4ecb55b4718497c16bceaea2ceaf>@@@?$__crt_seh_guarded_call@H@@QEAAH$$QEAV<lambda_7b91131dde12e1c3dfc74ff76b3f2eac>@@AEAV<lambda_dd75445284c072d0bd3768540cc698fa>@@$$QEAV<lambda_16bc4ecb55b4718497c16bceaea2ceaf>@@@Z@4HA 000000018003ba45 f   libucrt:output.obj
 0001:0003aa60       setlocale$fin$0            000000018003ba60 f   libucrt:setlocale.obj
 0001:0003aa7b       fflush$fin$0               000000018003ba7b f   libucrt:fflush.obj
 0001:0003aa7b       fclose$fin$0               000000018003ba7b f   libucrt:fclose.obj
 0001:0003aa93       common_flush_all$fin$0     000000018003ba93 f   libucrt:fflush.obj
 0001:0003aaad       common_flush_all$fin$1     000000018003baad f   libucrt:fflush.obj
 0001:0003aac6       fgetc$fin$0                000000018003bac6 f   libucrt:fgetc.obj
 0001:0003aae0       fputc$fin$0                000000018003bae0 f   libucrt:fputc.obj
 0001:0003aafa       ungetc$fin$0               000000018003bafa f   libucrt:ungetc.obj
 0001:0003ab12       _query_new_handler$fin$0   000000018003bb12 f   libucrt:new_handler.obj
 0001:0003ab28       ?filt$0@?0??common_exit@@YAXHW4_crt_exit_cleanup_mode@@W4_crt_exit_return_mode@@@Z@4HA 000000018003bb28 f   libucrt:exit.obj
 0001:0003ab43       ?fin$1@?0??common_exit@@YAXHW4_crt_exit_cleanup_mode@@W4_crt_exit_return_mode@@@Z@4HA 000000018003bb43 f   libucrt:exit.obj
 0001:0003ab5c       ?fin$0@?0???$?RV<lambda_e24bbb7b643b32fcea6fa61b31d4c984>@@AEAV<lambda_275893d493268fdec8709772e3fcec0e>@@V<lambda_9d71df4d7cf3f480f8d633942495c3b0>@@@?$__crt_seh_guarded_call@H@@QEAAH$$QEAV<lambda_e24bbb7b643b32fcea6fa61b31d4c984>@@AEAV<lambda_275893d493268fdec8709772e3fcec0e>@@$$QEAV<lambda_9d71df4d7cf3f480f8d633942495c3b0>@@@Z@4HA 000000018003bb5c f   libucrt:onexit.obj
 0001:0003ab79       raise$fin$0                000000018003bb79 f   libucrt:signal.obj
 0001:0003ab9d       ?fin$0@?0???$?RV<lambda_5df02c53a8f32f81fd64e5bbb78039f1>@@AEAV<lambda_2af78c5f5901b1372d98f9ab3177dfa6>@@AEAV<lambda_f51fe5fd7c79a33db34fc9310f277369>@@@?$__crt_seh_guarded_call@X@@QEAAX$$QEAV<lambda_5df02c53a8f32f81fd64e5bbb78039f1>@@AEAV<lambda_2af78c5f5901b1372d98f9ab3177dfa6>@@AEAV<lambda_f51fe5fd7c79a33db34fc9310f277369>@@@Z@4HA 000000018003bb9d f   libucrt:wsetlocale.obj
 0001:0003abbe       __acrt_initialize_lowio$fin$0 000000018003bbbe f   libucrt:ioinit.obj
 0001:0003abbe       __acrt_lowio_ensure_fh_exists$fin$0 000000018003bbbe f   libucrt:osfinfo.obj
 0001:0003abd7       _ctrlfp$filt$0             000000018003bbd7 f   libucrt:fpctrl.obj
 0001:0003abd7       common_control87$filt$0    000000018003bbd7 f   libucrt:ieee.obj
 0001:0003ac03       _fcloseall$fin$0           000000018003bc03 f   libucrt:closeall.obj
 0001:0003ac1c       ?fin$0@?0???$?RV<lambda_b521505b218e5242e90febf6bfebc422>@@AEAV<lambda_6978c1fb23f02e42e1d9e99668cc68aa>@@V<lambda_314360699dd331753a4119843814e9a7>@@@?$__crt_seh_guarded_call@H@@QEAAH$$QEAV<lambda_b521505b218e5242e90febf6bfebc422>@@AEAV<lambda_6978c1fb23f02e42e1d9e99668cc68aa>@@$$QEAV<lambda_314360699dd331753a4119843814e9a7>@@@Z@4HA 000000018003bc1c f   libucrt:commit.obj
 0001:0003ac1c       ?fin$0@?0???$?RV<lambda_bfedae4ebbf01fab1bb6dcc6a9e276e0>@@AEAV<lambda_2fe9b910cf3cbf4a0ab98a02ba45b3ec>@@V<lambda_237c231691f317818eb88cc1d5d642d6>@@@?$__crt_seh_guarded_call@H@@QEAAH$$QEAV<lambda_bfedae4ebbf01fab1bb6dcc6a9e276e0>@@AEAV<lambda_2fe9b910cf3cbf4a0ab98a02ba45b3ec>@@$$QEAV<lambda_237c231691f317818eb88cc1d5d642d6>@@@Z@4HA 000000018003bc1c f   libucrt:close.obj
 0001:0003ac36       ?fin$0@?0??common_fseek@@YAHV__crt_stdio_stream@@_JH@Z@4HA 000000018003bc36 f   libucrt:fseek.obj
 0001:0003ac36       ?fin$0@?0???$common_ftell@_J@@YA_JV__crt_stdio_stream@@@Z@4HA 000000018003bc36 f   libucrt:ftell.obj
 0001:0003ac50       _write$fin$0               000000018003bc50 f   libucrt:write.obj
 0001:0003ac50       ?fin$0@?0???$common_lseek@_J@@YA_JH_JH@Z@4HA 000000018003bc50 f   libucrt:lseek.obj
 0001:0003ac50       _read$fin$0                000000018003bc50 f   libucrt:read.obj
 0001:0003ac67       ?fin$0@?0???$?RV<lambda_fb3a7dec4e47f37f22dae91bb15c9095>@@AEAV<lambda_698284760c8add0bfb0756c19673e34b>@@V<lambda_dfb8eca1e75fef3034a8fb18dd509707>@@@?$__crt_seh_guarded_call@X@@QEAAX$$QEAV<lambda_fb3a7dec4e47f37f22dae91bb15c9095>@@AEAV<lambda_698284760c8add0bfb0756c19673e34b>@@$$QEAV<lambda_dfb8eca1e75fef3034a8fb18dd509707>@@@Z@4HA 000000018003bc67 f   libucrt:per_thread_data.obj
 0001:0003ac67       ?fin$0@?0???$?RV<lambda_5e887d1dcbef67a5eb4283622ba103bf>@@AEAV<lambda_4466841279450cc726390878d4a41900>@@V<lambda_341c25c0346d94847f1f3c463c57e077>@@@?$__crt_seh_guarded_call@X@@QEAAX$$QEAV<lambda_5e887d1dcbef67a5eb4283622ba103bf>@@AEAV<lambda_4466841279450cc726390878d4a41900>@@$$QEAV<lambda_341c25c0346d94847f1f3c463c57e077>@@@Z@4HA 000000018003bc67 f   libucrt:per_thread_data.obj
 0001:0003ac67       ?fin$0@?0???$?RV<lambda_b8c45f8f788dd370798f47cfe8ac3a86>@@AEAV<lambda_4e60a939b0d047cfe11ddc22648dfba9>@@V<lambda_332c3edc96d0294ec56c57d38c1cdfd5>@@@?$__crt_seh_guarded_call@H@@QEAAH$$QEAV<lambda_b8c45f8f788dd370798f47cfe8ac3a86>@@AEAV<lambda_4e60a939b0d047cfe11ddc22648dfba9>@@$$QEAV<lambda_332c3edc96d0294ec56c57d38c1cdfd5>@@@Z@4HA 000000018003bc67 f   libucrt:onexit.obj
 0001:0003ac67       ?fin$0@?0???$?RV<lambda_d67e8342c384adda8f857579ab50b2ae>@@AEAV<lambda_30712929f77e709619002f448b6a9510>@@V<lambda_4525336fd7e478d965fb7ca7a337cad8>@@@?$__crt_seh_guarded_call@X@@QEAAX$$QEAV<lambda_d67e8342c384adda8f857579ab50b2ae>@@AEAV<lambda_30712929f77e709619002f448b6a9510>@@$$QEAV<lambda_4525336fd7e478d965fb7ca7a337cad8>@@@Z@4HA 000000018003bc67 f   libucrt:wsetlocale.obj
 0001:0003ac67       ?fin$0@?0???$?RV<lambda_72d1df2b273a38828b1ce30cbf4cdab5>@@AEAV<lambda_876a65b173b8412d3a47c70a915b0cf4>@@V<lambda_41932305e351933ebe8f8be3ed8bb5dc>@@@?$__crt_seh_guarded_call@X@@QEAAX$$QEAV<lambda_72d1df2b273a38828b1ce30cbf4cdab5>@@AEAV<lambda_876a65b173b8412d3a47c70a915b0cf4>@@$$QEAV<lambda_41932305e351933ebe8f8be3ed8bb5dc>@@@Z@4HA 000000018003bc67 f   libucrt:per_thread_data.obj
 0001:0003ac67       ?fin$0@?0???$?RV<lambda_c36588078e9f5dfd39652860aa6b3aaf>@@AEAV<lambda_ec61778202f4f5fc7e7711acc23c3bca>@@V<lambda_dc9d2797ccde5d239b4a0efae8ebd7db>@@@?$__crt_seh_guarded_call@P6AXH@Z@@QEAAP6AXH@Z$$QEAV<lambda_c36588078e9f5dfd39652860aa6b3aaf>@@AEAV<lambda_ec61778202f4f5fc7e7711acc23c3bca>@@$$QEAV<lambda_dc9d2797ccde5d239b4a0efae8ebd7db>@@@Z@4HA 000000018003bc67 f   libucrt:signal.obj
 0001:0003ac67       ?fin$0@?0???$?RV<lambda_46352004c1216016012b18bd6f87e700>@@AEAV<lambda_3bd07e1a1191394380780325891bf33f>@@V<lambda_334532d3f185bcaa59b5be82d7d22bff>@@@?$__crt_seh_guarded_call@X@@QEAAX$$QEAV<lambda_46352004c1216016012b18bd6f87e700>@@AEAV<lambda_3bd07e1a1191394380780325891bf33f>@@$$QEAV<lambda_334532d3f185bcaa59b5be82d7d22bff>@@@Z@4HA 000000018003bc67 f   libucrt:per_thread_data.obj
 0001:0003ac67       ?fin$0@?0???$?RV<lambda_630b2aca97f6d20d5b5ea6529ea6b6af>@@AEAV<lambda_af91936f1d075d609f72d9d8cba980af>@@V<lambda_e82fa975f615b5c7c7b0e4d178fdae67>@@@?$__crt_seh_guarded_call@H@@QEAAH$$QEAV<lambda_630b2aca97f6d20d5b5ea6529ea6b6af>@@AEAV<lambda_af91936f1d075d609f72d9d8cba980af>@@$$QEAV<lambda_e82fa975f615b5c7c7b0e4d178fdae67>@@@Z@4HA 000000018003bc67 f   libucrt:winapi_thunks.obj
 0001:0003ac67       ?fin$0@?0???$?RV<lambda_99476a1ad63dd22509b5d3e65b0ffc95>@@AEAV<lambda_ad1ced32f4ac17aa236e5ef05d6b3b7c>@@V<lambda_f7424dd8d45958661754dc4f2697e9c3>@@@?$__crt_seh_guarded_call@X@@QEAAX$$QEAV<lambda_99476a1ad63dd22509b5d3e65b0ffc95>@@AEAV<lambda_ad1ced32f4ac17aa236e5ef05d6b3b7c>@@$$QEAV<lambda_f7424dd8d45958661754dc4f2697e9c3>@@@Z@4HA 000000018003bc67 f   libucrt:mbctype.obj
 0001:0003ac81       __acrt_update_thread_multibyte_data$fin$0 000000018003bc81 f   libucrt:mbctype.obj
 0001:0003ac9a       __acrt_uninitialize_locale$fin$0 000000018003bc9a f   libucrt:wsetlocale.obj
 0001:0003ac9a       __acrt_update_thread_locale_data$fin$0 000000018003bc9a f   libucrt:locale_refcounting.obj
 0001:0003acc0       _IsNonwritableInCurrentImage$filt$0 000000018003bcc0 f   LIBCMT:pesect.obj
 0001:0003ace0       __RTDynamicCast$filt$0     000000018003bce0 f   libvcruntime:rtti.obj
 0001:0003ad10       ??__F?constructor@KafkaConsumer@NodeKafka@@1V?$Persistent@VFunction@v8@@V?$NonCopyablePersistentTraits@VFunction@v8@@@2@@Nan@@A@@YAXXZ 000000018003bd10 f   kafka-consumer.obj
 0001:0003ad20       ??__F?constructor@Producer@NodeKafka@@1V?$Persistent@VFunction@v8@@V?$NonCopyablePersistentTraits@VFunction@v8@@@2@@Nan@@A@@YAXXZ 000000018003bd20 f   producer.obj
 0001:0003ad30       ??__F?constructor@Topic@NodeKafka@@1V?$Persistent@VFunction@v8@@V?$NonCopyablePersistentTraits@VFunction@v8@@@2@@Nan@@A@@YAXXZ 000000018003bd30 f   topic.obj
 0001:0003ad34       ??__Finitlocks@std@@YAXXZ  000000018003bd34 f   libcpmt:xlock.obj
 0001:0003ad40       ??__F_Fac_tidy_reg@std@@YAXXZ 000000018003bd40 f   libcpmt:locale0.obj
 0001:0003ad6c       ??__Fclassic_locale@std@@YAXXZ 000000018003bd6c f   libcpmt:locale0.obj
 0001:0003adcc       ??__Fcerr@std@@YAXXZ       000000018003bdcc f   libcpmt:cerr.obj
 0001:0003ae2c       ??__Fferr@std@@YAXXZ       000000018003be2c f   libcpmt:cerr.obj
 0001:0003ae38       ??__Finitlocks@@YAXXZ      000000018003be38 f   libcpmt:cerr.obj
 0001:0003ae44       ??__Fcout@std@@YAXXZ       000000018003be44 f   libcpmt:cout.obj
 0001:0003aea4       ??__Ffout@std@@YAXXZ       000000018003bea4 f   libcpmt:cout.obj
 0001:0003aeb0       ??__Finitlocks@@YAXXZ      000000018003beb0 f   libcpmt:cout.obj
 0001:0003aebc       ??__Finit_atexit@@YAXXZ    000000018003bebc f   libcpmt:iosptrs.obj
 0001:0003af10       ??__Finitlocks@std@@YAXXZ  000000018003bf10 f   libcpmt:iosptrs.obj
 0002:00000388       ?initlocks$initializer$@std@@3P6AXXZEA 000000018003c388     libcpmt:xlock.obj
 0002:00000390       ?initlocks$initializer$@@3P6AXXZEA 000000018003c390     libcpmt:cerr.obj
 0002:00000398       ?ferr$initializer$@std@@3P6AXXZEA 000000018003c398     libcpmt:cerr.obj
 0002:000003a0       ?cerr$initializer$@std@@3P6AXXZEA 000000018003c3a0     libcpmt:cerr.obj
 0002:000003a8       ?init_cerr$initializer$@std@@3P6AXXZEA 000000018003c3a8     libcpmt:cerr.obj
 0002:000003b0       ?initlocks$initializer$@@3P6AXXZEA 000000018003c3b0     libcpmt:cout.obj
 0002:000003b8       ?fout$initializer$@std@@3P6AXXZEA 000000018003c3b8     libcpmt:cout.obj
 0002:000003c0       ?cout$initializer$@std@@3P6AXXZEA 000000018003c3c0     libcpmt:cout.obj
 0002:000003c8       ?init_cout$initializer$@std@@3P6AXXZEA 000000018003c3c8     libcpmt:cout.obj
 0002:000003d0       ?initlocks$initializer$@std@@3P6AXXZEA 000000018003c3d0     libcpmt:iosptrs.obj
 0002:000003d8       ?init_atexit$initializer$@@3P6AXXZEA 000000018003c3d8     libcpmt:iosptrs.obj
 0002:000003e0       ?_Fac_tidy_reg$initializer$@std@@3P6AXXZEA 000000018003c3e0     libcpmt:locale0.obj
 0002:000003e8       ?classic_locale$initializer$@std@@3P6AXXZEA 000000018003c3e8     libcpmt:locale0.obj
 0002:000003f0       ??constructor$initializer$@KafkaConsumer@NodeKafka@@1P6AXXZEA@@3P6AXXZEA 000000018003c3f0     kafka-consumer.obj
 0002:000003f8       ??constructor$initializer$@Producer@NodeKafka@@1P6AXXZEA@@3P6AXXZEA 000000018003c3f8     producer.obj
 0002:00000400       ??constructor$initializer$@Topic@NodeKafka@@1P6AXXZEA@@3P6AXXZEA 000000018003c400     topic.obj
 0002:00000420       ?pinit@@3P6AHXZEA          000000018003c420     libcpmt:winapisupp.obj
 0002:00000428       ?__scrt_initialize_tss_var@@3P6AHXZEA 000000018003c428     LIBCMT:thread_safe_statics.obj
 0002:00000550       $cppxdata$??_G_Fac_node@std@@QEAAPEAXI@Z 000000018003c550     libcpmt:locale0.obj
 0002:00000578       $cppxdata$?_Locimp_dtor@_Locimp@locale@std@@CAXPEAV123@@Z 000000018003c578     libcpmt:locale0.obj
 0002:000005a0       $cppxdata$??_G_Locimp@locale@std@@MEAAPEAXI@Z 000000018003c5a0     libcpmt:locale0.obj
 0002:000005c8       $cppxdata$?_Init@locale@std@@CAPEAV_Locimp@12@_N@Z 000000018003c5c8     libcpmt:locale0.obj
 0002:000005f0       $cppxdata$??__Fclassic_locale@std@@YAXXZ 000000018003c5f0     libcpmt:locale0.obj
 0002:00000660       $cppxdata$??_Glocale@std@@QEAAPEAXI@Z 000000018003c660     libcpmt:cerr.obj
 0002:00000688       $cppxdata$?_Init@ios_base@std@@IEAAXXZ 000000018003c688     libcpmt:cerr.obj
 0002:000006b0       $cppxdata$??_Gios_base@std@@UEAAPEAXI@Z 000000018003c6b0     libcpmt:cerr.obj
 0002:000006d8       $cppxdata$??0?$basic_streambuf@DU?$char_traits@D@std@@@std@@IEAA@XZ 000000018003c6d8     libcpmt:cerr.obj
 0002:00000700       $cppxdata$??1?$basic_filebuf@DU?$char_traits@D@std@@@std@@UEAA@XZ 000000018003c700     libcpmt:cerr.obj
 0002:00000728       $cppxdata$?overflow@?$basic_filebuf@DU?$char_traits@D@std@@@std@@MEAAHH@Z 000000018003c728     libcpmt:cerr.obj
 0002:00000750       $cppxdata$?uflow@?$basic_filebuf@DU?$char_traits@D@std@@@std@@MEAAHXZ 000000018003c750     libcpmt:cerr.obj
 0002:00000778       $cppxdata$?_Endwrite@?$basic_filebuf@DU?$char_traits@D@std@@@std@@IEAA_NXZ 000000018003c778     libcpmt:cerr.obj
 0002:000007a0       $cppxdata$??1?$basic_ios@DU?$char_traits@D@std@@@std@@UEAA@XZ 000000018003c7a0     libcpmt:cerr.obj
 0002:000007c8       $cppxdata$??_G?$basic_ios@DU?$char_traits@D@std@@@std@@UEAAPEAXI@Z 000000018003c7c8     libcpmt:cerr.obj
 0002:000007f0       $cppxdata$??0?$basic_ostream@DU?$char_traits@D@std@@@std@@QEAA@PEAV?$basic_streambuf@DU?$char_traits@D@std@@@1@_N@Z 000000018003c7f0     libcpmt:cerr.obj
 0002:00000818       $cppxdata$??_G?$basic_ostream@DU?$char_traits@D@std@@@std@@UEAAPEAXI@Z 000000018003c818     libcpmt:cerr.obj
 0002:00000840       $cppxdata$??__Fcerr@std@@YAXXZ 000000018003c840     libcpmt:cerr.obj
 0002:00000868       $cppxdata$??$use_facet@V?$codecvt@DDU_Mbstatet@@@std@@@std@@YAAEBV?$codecvt@DDU_Mbstatet@@@0@AEBVlocale@0@@Z 000000018003c868     libcpmt:cerr.obj
 0002:00000890       $cppxdata$?_Getcat@?$codecvt@DDU_Mbstatet@@@std@@SA_KPEAPEBVfacet@locale@2@PEBV42@@Z 000000018003c890     libcpmt:cerr.obj
 0002:00000b40       ?_Win_errtab@std@@3QBU_Win_errtab_t@1@B 000000018003cb40     libcpmt:syserror.obj
 0002:00000d90       ?_Sys_errtab@std@@3QBU_Sys_errtab_t@1@B 000000018003cd90     libcpmt:syserror.obj
 0002:00001930       $cppxdata$??__Fcout@std@@YAXXZ 000000018003d930     libcpmt:cout.obj
 0002:00001958       $cppxdata$??__Finit_atexit@@YAXXZ 000000018003d958     libcpmt:iosptrs.obj
 0002:00001d88       digits                     000000018003dd88     libcpmt:xstoul.obj
 0002:00001db0       ndigs                      000000018003ddb0     libcpmt:xstoul.obj
 0002:00001dd8       digits                     000000018003ddd8     libcpmt:xstoull.obj
 0002:00001e00       ndigs                      000000018003de00     libcpmt:xstoull.obj
 0002:00002460       ?LcidToLocaleNameTable@@3QBULcidToLocaleName@@B 000000018003e460     libcpmt:winapinls.obj
 0002:000032a0       ?LocaleNameToIndexTable@@3QBULocaleNameIndex@@B 000000018003f2a0     libcpmt:winapinls.obj
 0002:00005188       GS_ExceptionPointers       0000000180041188     LIBCMT:gs_report.obj
 0002:000051d0       ?ExceptionTemplate@?1??_CxxThrowException@@9@4UEHExceptionRecord@@B 00000001800411d0     libvcruntime:throw.obj
 0002:00005240       ?ExceptionTemplate@?1??_UnwindNestedFrames@@9@4U_EXCEPTION_RECORD@@B 0000000180041240     libvcruntime:trnsctrl.obj
 0002:000052d8       ?module_names@?A0x679b24ab@@3QBQEB_WB 00000001800412d8     libvcruntime:winapi_downlevel.obj
 0002:000053a8       ?candidate_modules@?1??try_get_FlsAlloc@@YAP6AKP6AXPEAX@Z@ZXZ@4QBW4module_id@?A0x679b24ab@@B 00000001800413a8     libvcruntime:winapi_downlevel.obj
 0002:000053b0       ?candidate_modules@?1??try_get_FlsFree@@YAP6AHK@ZXZ@4QBW4module_id@?A0x679b24ab@@B 00000001800413b0     libvcruntime:winapi_downlevel.obj
 0002:000053b8       ?candidate_modules@?1??try_get_FlsGetValue@@YAP6APEAXK@ZXZ@4QBW4module_id@?A0x679b24ab@@B 00000001800413b8     libvcruntime:winapi_downlevel.obj
 0002:000053c0       ?candidate_modules@?1??try_get_FlsSetValue@@YAP6AHKPEAX@ZXZ@4QBW4module_id@?A0x679b24ab@@B 00000001800413c0     libvcruntime:winapi_downlevel.obj
 0002:000053c8       ?candidate_modules@?1??try_get_InitializeCriticalSectionEx@@YAP6AHPEAU_RTL_CRITICAL_SECTION@@KK@ZXZ@4QBW4module_id@?A0x679b24ab@@B 00000001800413c8     libvcruntime:winapi_downlevel.obj
 0002:000053d0       ?tokenTable@@3QBQEBDB      00000001800413d0     libvcruntime:undname.obj
 0002:00005440       ?nameTable@@3QBQEBDB       0000000180041440     libvcruntime:undname.obj
 0002:000056c8       ?rttiTable@@3QBQEBDB       00000001800416c8     libvcruntime:undname.obj
 0002:000060a0       errtable                   00000001800420a0     libucrt:errno.obj
 0002:000073f0       __flag_x_one_y_snan        00000001800433f0     libucrt:pow.obj
 0002:000073f4       __flag_x_zero_z_inf        00000001800433f4     libucrt:pow.obj
 0002:000073f8       __flag_x_nan               00000001800433f8     libucrt:pow.obj
 0002:000073fc       __flag_y_nan               00000001800433fc     libucrt:pow.obj
 0002:00007400       __flag_x_nan_y_nan         0000000180043400     libucrt:pow.obj
 0002:00007404       __flag_x_neg_y_notint      0000000180043404     libucrt:pow.obj
 0002:00007408       __flag_z_zero              0000000180043408     libucrt:pow.obj
 0002:0000740c       __flag_z_denormal          000000018004340c     libucrt:pow.obj
 0002:00007410       __flag_z_inf               0000000180043410     libucrt:pow.obj
 0002:00007420       __ay_max_bound             0000000180043420     libucrt:pow.obj
 0002:00007428       __ay_min_bound             0000000180043428     libucrt:pow.obj
 0002:00007430       __sign_mask                0000000180043430     libucrt:pow.obj
 0002:00007438       __sign_and_exp_mask        0000000180043438     libucrt:pow.obj
 0002:00007440       __exp_mask                 0000000180043440     libucrt:pow.obj
 0002:00007448       __neg_inf                  0000000180043448     libucrt:pow.obj
 0002:00007450       __pos_inf                  0000000180043450     libucrt:pow.obj
 0002:00007458       __pos_one                  0000000180043458     libucrt:pow.obj
 0002:00007460       __pos_zero                 0000000180043460     libucrt:pow.obj
 0002:00007468       __exp_mant_mask            0000000180043468     libucrt:pow.obj
 0002:00007470       __mant_mask                0000000180043470     libucrt:pow.obj
 0002:00007478       __ind_pattern              0000000180043478     libucrt:pow.obj
 0002:00007480       __neg_qnan                 0000000180043480     libucrt:pow.obj
 0002:00007488       __qnan                     0000000180043488     libucrt:pow.obj
 0002:00007490       __qnan_set                 0000000180043490     libucrt:pow.obj
 0002:00007498       __neg_one                  0000000180043498     libucrt:pow.obj
 0002:000074a0       __neg_zero                 00000001800434a0     libucrt:pow.obj
 0002:000074a8       __exp_shift                00000001800434a8     libucrt:pow.obj
 0002:000074b0       __exp_bias                 00000001800434b0     libucrt:pow.obj
 0002:000074b8       __exp_bias_m1              00000001800434b8     libucrt:pow.obj
 0002:000074c0       __yexp_53                  00000001800434c0     libucrt:pow.obj
 0002:000074c8       __mant_full                00000001800434c8     libucrt:pow.obj
 0002:000074d0       __1_before_mant            00000001800434d0     libucrt:pow.obj
 0002:000074d8       __mask_mant_all8           00000001800434d8     libucrt:pow.obj
 0002:000074e0       __mask_mant9               00000001800434e0     libucrt:pow.obj
 0002:000074f0       __real_fffffffff8000000    00000001800434f0     libucrt:pow.obj
 0002:00007500       __mask_8000000000000000    0000000180043500     libucrt:pow.obj
 0002:00007510       __real_4090040000000000    0000000180043510     libucrt:pow.obj
 0002:00007520       __real_C090C80000000000    0000000180043520     libucrt:pow.obj
 0002:00007530       __real_ninf                0000000180043530     libucrt:pow.obj
 0002:00007540       __real_inf                 0000000180043540     libucrt:pow.obj
 0002:00007550       __real_nan                 0000000180043550     libucrt:pow.obj
 0002:00007560       __real_mant                0000000180043560     libucrt:pow.obj
 0002:00007570       __mask_1023                0000000180043570     libucrt:pow.obj
 0002:00007580       __mask_001                 0000000180043580     libucrt:pow.obj
 0002:00007590       __real_log2_lead           0000000180043590     libucrt:pow.obj
 0002:000075a0       __real_log2_tail           00000001800435a0     libucrt:pow.obj
 0002:000075b0       __real_two                 00000001800435b0     libucrt:pow.obj
 0002:000075c0       __real_one                 00000001800435c0     libucrt:pow.obj
 0002:000075d0       __real_half                00000001800435d0     libucrt:pow.obj
 0002:000075e0       __mask_100                 00000001800435e0     libucrt:pow.obj
 0002:000075f0       __real_1_over_2            00000001800435f0     libucrt:pow.obj
 0002:00007600       __real_1_over_3            0000000180043600     libucrt:pow.obj
 0002:00007610       __real_1_over_4            0000000180043610     libucrt:pow.obj
 0002:00007620       __real_1_over_5            0000000180043620     libucrt:pow.obj
 0002:00007630       __real_1_over_6            0000000180043630     libucrt:pow.obj
 0002:00007640       __real_1_over_7            0000000180043640     libucrt:pow.obj
 0002:00007650       __mask_1023_f              0000000180043650     libucrt:pow.obj
 0002:00007660       __mask_2045                0000000180043660     libucrt:pow.obj
 0002:00007670       __real_threshold           0000000180043670     libucrt:pow.obj
 0002:00007680       __real_notsign             0000000180043680     libucrt:pow.obj
 0002:00007690       __log_F_inv_head           0000000180043690     libucrt:pow.obj
 0002:00007ea0       __log_F_inv_tail           0000000180043ea0     libucrt:pow.obj
 0002:000086b0       __denormal_threshold       00000001800446b0     libucrt:pow.obj
 0002:000086c0       __enable_almost_inf        00000001800446c0     libucrt:pow.obj
 0002:000086d0       __real_zero                00000001800446d0     libucrt:pow.obj
 0002:000086e0       __real_smallest_denormal   00000001800446e0     libucrt:pow.obj
 0002:000086f0       __denormal_tiny_threshold  00000001800446f0     libucrt:pow.obj
 0002:00008700       __real_p65536              0000000180044700     libucrt:pow.obj
 0002:00008710       __real_m68800              0000000180044710     libucrt:pow.obj
 0002:00008720       __real_64_by_log2          0000000180044720     libucrt:pow.obj
 0002:00008730       __real_log2_by_64_head     0000000180044730     libucrt:pow.obj
 0002:00008740       __real_log2_by_64_tail     0000000180044740     libucrt:pow.obj
 0002:00008750       __real_1_by_720            0000000180044750     libucrt:pow.obj
 0002:00008760       __real_1_by_120            0000000180044760     libucrt:pow.obj
 0002:00008770       __real_1_by_24             0000000180044770     libucrt:pow.obj
 0002:00008780       __real_1_by_6              0000000180044780     libucrt:pow.obj
 0002:00008790       __real_1_by_2              0000000180044790     libucrt:pow.obj
 0002:000087a0       __flag_x_one_y_snan        00000001800447a0     libucrt:powf.obj
 0002:000087a4       __flag_x_zero_z_inf        00000001800447a4     libucrt:powf.obj
 0002:000087a8       __flag_x_nan               00000001800447a8     libucrt:powf.obj
 0002:000087ac       __flag_y_nan               00000001800447ac     libucrt:powf.obj
 0002:000087b0       __flag_x_nan_y_nan         00000001800447b0     libucrt:powf.obj
 0002:000087b4       __flag_x_neg_y_notint      00000001800447b4     libucrt:powf.obj
 0002:000087b8       __flag_z_zero              00000001800447b8     libucrt:powf.obj
 0002:000087bc       __flag_z_denormal          00000001800447bc     libucrt:powf.obj
 0002:000087c0       __flag_z_inf               00000001800447c0     libucrt:powf.obj
 0002:000087c4       L__1_by_3                  00000001800447c4     libucrt:powf.obj
 0002:000087cc       L__log2                    00000001800447cc     libucrt:powf.obj
 0002:000087d4       L__max_exp_arg             00000001800447d4     libucrt:powf.obj
 0002:000087dc       L__min_exp_arg             00000001800447dc     libucrt:powf.obj
 0002:000087e4       L__real_log2_by_64         00000001800447e4     libucrt:powf.obj
 0002:000087ec       L__1_by_6                  00000001800447ec     libucrt:powf.obj
 0002:000087f4       L__real_threshold          00000001800447f4     libucrt:powf.obj
 0002:000087fc       L__real_one                00000001800447fc     libucrt:powf.obj
 0002:00008804       L__real_two                0000000180044804     libucrt:powf.obj
 0002:0000880c       L__neg_zero                000000018004480c     libucrt:powf.obj
 0002:00008820       L__real_ca42               0000000180044820     libucrt:powf.obj
 0002:00008828       L__real_ca4                0000000180044828     libucrt:powf.obj
 0002:00008830       L__real_ca31               0000000180044830     libucrt:powf.obj
 0002:00008838       L__real_ca3                0000000180044838     libucrt:powf.obj
 0002:00008840       L__clear_sign              0000000180044840     libucrt:powf.obj
 0002:00008850       L__real_64_by_log2         0000000180044850     libucrt:powf.obj
 0002:00008860       L__1_by_2                  0000000180044860     libucrt:powf.obj
 0002:00008870       L__1023                    0000000180044870     libucrt:powf.obj
 0002:00008880       L__xexp_bits_xmantissa_bits 0000000180044880     libucrt:powf.obj
 0002:000091a0       __acrt_initializers        00000001800451a0     libucrt:initialization.obj
 0002:00009400       _first_127char             0000000180045400     libucrt:wsetlocale.obj
 0002:00009b30       module_names               0000000180045b30     libucrt:winapi_thunks.obj
 0002:0000a060       ?candidate_modules@?1??try_get_CompareStringEx@@YAP6AHPEB_WK0H0HPEAU_nlsversioninfo@@PEAX_J@ZXZ@4QBW4module_id@?A0x63058377@@B 0000000180046060     libucrt:winapi_thunks.obj
 0002:0000a068       ?candidate_modules@?1??try_get_EnumSystemLocalesEx@@YAP6AHP6AHPEA_WK_J@ZK1PEAX@ZXZ@4QBW4module_id@?A0x63058377@@B 0000000180046068     libucrt:winapi_thunks.obj
 0002:0000a088       ?candidate_modules@?1??try_get_FlsAlloc@@YAP6AKP6AXPEAX@Z@ZXZ@4QBW4module_id@?A0x63058377@@B 0000000180046088     libucrt:winapi_thunks.obj
 0002:0000a090       ?candidate_modules@?1??try_get_FlsFree@@YAP6AHK@ZXZ@4QBW4module_id@?A0x63058377@@B 0000000180046090     libucrt:winapi_thunks.obj
 0002:0000a098       ?candidate_modules@?1??try_get_FlsGetValue@@YAP6APEAXK@ZXZ@4QBW4module_id@?A0x63058377@@B 0000000180046098     libucrt:winapi_thunks.obj
 0002:0000a0a0       ?candidate_modules@?1??try_get_FlsSetValue@@YAP6AHKPEAX@ZXZ@4QBW4module_id@?A0x63058377@@B 00000001800460a0     libucrt:winapi_thunks.obj
 0002:0000a0a8       ?candidate_modules@?1??try_get_GetActiveWindow@@YAP6APEAUHWND__@@XZXZ@4QBW4module_id@?A0x63058377@@B 00000001800460a8     libucrt:winapi_thunks.obj
 0002:0000a0c0       ?candidate_modules@?1??try_get_GetCurrentPackageId@@YAP6AJPEAIPEAE@ZXZ@4QBW4module_id@?A0x63058377@@B 00000001800460c0     libucrt:winapi_thunks.obj
 0002:0000a0c8       ?candidate_modules@?1??try_get_GetLastActivePopup@@YAP6APEAUHWND__@@PEAU2@@ZXZ@4QBW4module_id@?A0x63058377@@B 00000001800460c8     libucrt:winapi_thunks.obj
 0002:0000a0e8       ?candidate_modules@?1??try_get_GetLocaleInfoEx@@YAP6AHPEB_WKPEA_WH@ZXZ@4QBW4module_id@?A0x63058377@@B 00000001800460e8     libucrt:winapi_thunks.obj
 0002:0000a0f0       ?candidate_modules@?1??try_get_GetProcessWindowStation@@YAP6APEAUHWINSTA__@@XZXZ@4QBW4module_id@?A0x63058377@@B 00000001800460f0     libucrt:winapi_thunks.obj
 0002:0000a110       ?candidate_modules@?1??try_get_GetSystemTimePreciseAsFileTime@@YAP6AXPEAU_FILETIME@@@ZXZ@4QBW4module_id@?A0x63058377@@B 0000000180046110     libucrt:winapi_thunks.obj
 0002:0000a118       ?candidate_modules@?1??try_get_GetUserDefaultLocaleName@@YAP6AHPEA_WH@ZXZ@4QBW4module_id@?A0x63058377@@B 0000000180046118     libucrt:winapi_thunks.obj
 0002:0000a140       ?candidate_modules@?1??try_get_GetUserObjectInformationW@@YAP6AHPEAXH0KPEAK@ZXZ@4QBW4module_id@?A0x63058377@@B 0000000180046140     libucrt:winapi_thunks.obj
 0002:0000a168       ?candidate_modules@?1??try_get_InitializeCriticalSectionEx@@YAP6AHPEAU_RTL_CRITICAL_SECTION@@KK@ZXZ@4QBW4module_id@?A0x63058377@@B 0000000180046168     libucrt:winapi_thunks.obj
 0002:0000a170       ?candidate_modules@?1??try_get_IsValidLocaleName@@YAP6AHPEB_W@ZXZ@4QBW4module_id@?A0x63058377@@B 0000000180046170     libucrt:winapi_thunks.obj
 0002:0000a190       ?candidate_modules@?1??try_get_LCMapStringEx@@YAP6AHPEB_WK0HPEA_WHPEAU_nlsversioninfo@@PEAX_J@ZXZ@4QBW4module_id@?A0x63058377@@B 0000000180046190     libucrt:winapi_thunks.obj
 0002:0000a198       ?candidate_modules@?1??try_get_LCIDToLocaleName@@YAP6AHKPEA_WHK@ZXZ@4QBW4module_id@?A0x63058377@@B 0000000180046198     libucrt:winapi_thunks.obj
 0002:0000a1b8       ?candidate_modules@?1??try_get_LocaleNameToLCID@@YAP6AKPEB_WK@ZXZ@4QBW4module_id@?A0x63058377@@B 00000001800461b8     libucrt:winapi_thunks.obj
 0002:0000a1d8       ?candidate_modules@?1??try_get_MessageBoxA@@YAP6AHPEAUHWND__@@PEBD1I@ZXZ@4QBW4module_id@?A0x63058377@@B 00000001800461d8     libucrt:winapi_thunks.obj
 0002:0000a1f0       ?candidate_modules@?1??try_get_MessageBoxW@@YAP6AHPEAUHWND__@@PEB_W1I@ZXZ@4QBW4module_id@?A0x63058377@@B 00000001800461f0     libucrt:winapi_thunks.obj
 0002:0000c050       _mb_locale_names           0000000180048050     libucrt:mbctype.obj
 0002:0000d070       __real@433fffffffffffff    0000000180049070     libucrt:fpsr.obj
 0002:0000d078       __real@c33fffffffffffff    0000000180049078     libucrt:fpsr.obj
 0002:0000d080       LcidToLocaleNameTable      0000000180049080     libucrt:lcidtoname_downlevel.obj
 0002:0000dec0       LocaleNameToIndexTable     0000000180049ec0     libucrt:lcidtoname_downlevel.obj
 0002:0000ed00       __real_ninf                000000018004ad00     libucrt:log10.obj
 0002:0000ed10       __real_inf                 000000018004ad10     libucrt:log10.obj
 0002:0000ed20       __real_neg_qnan            000000018004ad20     libucrt:log10.obj
 0002:0000ed30       __real_qnanbit             000000018004ad30     libucrt:log10.obj
 0002:0000ed40       __int_1023                 000000018004ad40     libucrt:log10.obj
 0002:0000ed50       __mask_001                 000000018004ad50     libucrt:log10.obj
 0002:0000ed60       __mask_mant                000000018004ad60     libucrt:log10.obj
 0002:0000ed70       __mask_mant_top8           000000018004ad70     libucrt:log10.obj
 0002:0000ed80       __mask_mant9               000000018004ad80     libucrt:log10.obj
 0002:0000ed90       __real_log10_e             000000018004ad90     libucrt:log10.obj
 0002:0000eda0       __real_log10_e_lead        000000018004ada0     libucrt:log10.obj
 0002:0000edb0       __real_log10_e_tail        000000018004adb0     libucrt:log10.obj
 0002:0000edc0       __real_log10_2_lead        000000018004adc0     libucrt:log10.obj
 0002:0000edd0       __real_log10_2_tail        000000018004add0     libucrt:log10.obj
 0002:0000ede0       __real_two                 000000018004ade0     libucrt:log10.obj
 0002:0000edf0       __real_one                 000000018004adf0     libucrt:log10.obj
 0002:0000ee00       __real_half                000000018004ae00     libucrt:log10.obj
 0002:0000ee10       __mask_100                 000000018004ae10     libucrt:log10.obj
 0002:0000ee20       __real_1_over_512          000000018004ae20     libucrt:log10.obj
 0002:0000ee30       __real_1_over_2            000000018004ae30     libucrt:log10.obj
 0002:0000ee40       __real_1_over_3            000000018004ae40     libucrt:log10.obj
 0002:0000ee50       __real_1_over_4            000000018004ae50     libucrt:log10.obj
 0002:0000ee60       __real_1_over_5            000000018004ae60     libucrt:log10.obj
 0002:0000ee70       __real_1_over_6            000000018004ae70     libucrt:log10.obj
 0002:0000ee80       __real_neg_1023            000000018004ae80     libucrt:log10.obj
 0002:0000ee90       __mask_2045                000000018004ae90     libucrt:log10.obj
 0002:0000eea0       __real_threshold           000000018004aea0     libucrt:log10.obj
 0002:0000eeb0       __real_near_one_lt         000000018004aeb0     libucrt:log10.obj
 0002:0000eec0       __real_near_one_gt         000000018004aec0     libucrt:log10.obj
 0002:0000eed0       __real_min_norm            000000018004aed0     libucrt:log10.obj
 0002:0000eee0       __real_notsign             000000018004aee0     libucrt:log10.obj
 0002:0000eef0       __real_ca1                 000000018004aef0     libucrt:log10.obj
 0002:0000ef00       __real_ca2                 000000018004af00     libucrt:log10.obj
 0002:0000ef10       __real_ca3                 000000018004af10     libucrt:log10.obj
 0002:0000ef20       __real_ca4                 000000018004af20     libucrt:log10.obj
 0002:0000ef30       __mask_lower               000000018004af30     libucrt:log10.obj
 0002:0000ef40       __flag_x_zero              000000018004af40     libucrt:log10.obj
 0002:0000ef44       __flag_x_neg               000000018004af44     libucrt:log10.obj
 0002:0000ef48       __flag_x_nan               000000018004af48     libucrt:log10.obj
 0002:000149d0       $unwind$?dllmain_crt_dispatch@@YAHQEAUHINSTANCE__@@KQEAX@Z 00000001800509d0     LIBCMT:dll_dllmain.obj
 0002:000149d0       $unwind$?__GetCurrentState@@YAHPEA_KPEAU_xDISPATCHER_CONTEXT@@PEBU_s_FuncInfo@@@Z 00000001800509d0     libvcruntime:ehstate.obj
 0002:000149d0       $unwind$_GetImageBase      00000001800509d0     libvcruntime:trnsctrl.obj
 0002:000149d0       $unwind$__acrt_can_use_vista_locale_apis 00000001800509d0     libucrt:winapi_thunks.obj
 0002:000149d0       $unwind$__acrt_DownlevelLocaleNameToLCID 00000001800509d0     libucrt:lcidtoname_downlevel.obj
 0002:000149d0       $unwind$__vcrt_freefls     00000001800509d0     libvcruntime:per_thread_data.obj
 0002:000149d0       $unwind$?_Deallocate@std@@YAXPEAX_K1@Z 00000001800509d0     binding.obj
 0002:000149d0       $unwind$_GetThrowImageBase 00000001800509d0     libvcruntime:trnsctrl.obj
 0002:000149d0       $unwind$__FrameUnwindFilter 00000001800509d0     libvcruntime:frame.obj
 0002:000149d0       $unwind$atexit             00000001800509d0     LIBCMT:utility.obj
 0002:000149d0       $unwind$_set_errno_from_matherr 00000001800509d0     libucrt:fpexcept.obj
 0002:000149d0       $unwind$__vcrt_getptd      00000001800509d0     libvcruntime:per_thread_data.obj
 0002:000149d0       $unwind$__vcrt_uninitialize_ptd 00000001800509d0     libvcruntime:per_thread_data.obj
 0002:000149d0       $unwind$_isatty            00000001800509d0     libucrt:isatty.obj
 0002:000149d0       $unwind$__vcrt_initialize_ptd 00000001800509d0     libvcruntime:per_thread_data.obj
 0002:000149d0       $unwind$?deallocate@?$_Wrap_alloc@V?$allocator@PEAVMessage@RdKafka@@@std@@@std@@QEAAXPEAPEAVMessage@RdKafka@@_K@Z 00000001800509d0     workers.obj
 0002:000149d0       $unwind$__vcrt_thread_detach 00000001800509d0     libvcruntime:initialization.obj
 0002:000149d0       $unwind$__vcrt_thread_attach 00000001800509d0     libvcruntime:initialization.obj
 0002:000149d0       $unwind$__vcrt_uninitialize_critical 00000001800509d0     libvcruntime:initialization.obj
 0002:000149d0       $unwind$__vcrt_uninitialize 00000001800509d0     libvcruntime:initialization.obj
 0002:000149d0       $unwind$___lc_locale_name_func 00000001800509d0     libucrt:initctype.obj
 0002:000149d0       $unwind$__vcrt_initialize  00000001800509d0     libvcruntime:initialization.obj
 0002:000149d0       $unwind$_wcsnicmp          00000001800509d0     libucrt:wcsnicmp.obj
 0002:000149d0       $unwind$___lc_codepage_func 00000001800509d0     libucrt:initctype.obj
 0002:000149d0       $unwind$?__scrt_uninitialize_thread_safe_statics@@YAXXZ 00000001800509d0     LIBCMT:thread_safe_statics.obj
 0002:000149d0       $unwind$_wcsicmp           00000001800509d0     libucrt:wcsicmp.obj
 0002:000149d0       $unwind$_copytlocinfo_nolock 00000001800509d0     libucrt:wsetlocale.obj
 0002:000149d0       $unwind$?Execute@MessageWorker@Workers@NodeKafka@@EEAAXXZ 00000001800509d0     workers.obj
 0002:000149d0       $unwind$_get_osfhandle     00000001800509d0     libucrt:osfinfo.obj
 0002:000149d0       $unwind$?deallocate@?$_Wrap_alloc@V?$allocator@V?$Persistent@VFunction@v8@@U?$CopyablePersistentTraits@VFunction@v8@@@2@@v8@@@std@@@std@@QEAAXPEAV?$Persistent@VFunction@v8@@U?$CopyablePersistentTraits@VFunction@v8@@@2@@v8@@_K@Z 00000001800509d0     callbacks.obj
 0002:000149d0       $unwind$__crtDownlevelLocaleNameToLCID 00000001800509d0     libcpmt:winapinls.obj
 0002:000149d0       $unwind$__scrt_acquire_startup_lock 00000001800509d0     LIBCMT:utility.obj
 0002:000149d0       $unwind$?deallocate@?$_Wrap_alloc@V?$allocator@Uevent_t@Callbacks@NodeKafka@@@std@@@std@@QEAAXPEAUevent_t@Callbacks@NodeKafka@@_K@Z 00000001800509d0     callbacks.obj
 0002:000149d0       $unwind$?deallocate@?$_Wrap_alloc@V?$allocator@VDeliveryReport@Callbacks@NodeKafka@@@std@@@std@@QEAAXPEAVDeliveryReport@Callbacks@NodeKafka@@_K@Z 00000001800509d0     callbacks.obj
 0002:000149d0       $unwind$_stricmp           00000001800509d0     libucrt:stricmp.obj
 0002:000149d0       $unwind$__scrt_initialize_default_local_stdio_options 00000001800509d0     LIBCMT:default_local_stdio_options.obj
 0002:000149d0       $unwind$rand               00000001800509d0     libucrt:rand.obj
 0002:000149d0       $unwind$?allocate@?$_Wrap_alloc@V?$allocator@Uevent_topic_partition_t@Callbacks@NodeKafka@@@std@@@std@@QEAAPEAUevent_topic_partition_t@Callbacks@NodeKafka@@_K@Z 00000001800509d0     callbacks.obj
 0002:000149d0       $unwind$??__Einitlocks@@YAXXZ 00000001800509d0     libcpmt:cerr.obj
 0002:000149d0       $unwind$?deallocate@?$_Wrap_alloc@V?$allocator@Uevent_topic_partition_t@Callbacks@NodeKafka@@@std@@@std@@QEAAXPEAUevent_topic_partition_t@Callbacks@NodeKafka@@_K@Z 00000001800509d0     callbacks.obj
 0002:000149d0       $unwind$?allocate@?$_Wrap_alloc@V?$allocator@PEAVTopicPartition@RdKafka@@@std@@@std@@QEAAPEAPEAVTopicPartition@RdKafka@@_K@Z 00000001800509d0     callbacks.obj
 0002:000149d0       $unwind$?_Lock@?$basic_filebuf@DU?$char_traits@D@std@@@std@@UEAAXXZ 00000001800509d0     libcpmt:cerr.obj
 0002:000149d0       $unwind$?_Unlock@?$basic_filebuf@DU?$char_traits@D@std@@@std@@UEAAXXZ 00000001800509d0     libcpmt:cerr.obj
 0002:000149d0       $unwind$?deallocate@?$_Wrap_alloc@V?$allocator@PEAVTopicPartition@RdKafka@@@std@@@std@@QEAAXPEAPEAVTopicPartition@RdKafka@@_K@Z 00000001800509d0     callbacks.obj
 0002:000149d0       $unwind$_fgetc_nolock      00000001800509d0     libucrt:fgetc.obj
 0002:000149d0       $unwind$?deallocate@?$_Wrap_alloc@V?$allocator@Urebalance_event_t@Callbacks@NodeKafka@@@std@@@std@@QEAAXPEAUrebalance_event_t@Callbacks@NodeKafka@@_K@Z 00000001800509d0     callbacks.obj
 0002:000149d0       $unwind$__report_rangecheckfailure 00000001800509d0     LIBCMT:gs_report.obj
 0002:000149d0       $unwind$_get_stream_buffer_pointers 00000001800509d0     libucrt:_file.obj
 0002:000149d0       $unwind$tolower            00000001800509d0     libucrt:tolower_toupper.obj
 0002:000149d0       $unwind$_fileno            00000001800509d0     libucrt:fileno.obj
 0002:000149d0       $unwind$?deallocate@?$_Wrap_alloc@V?$allocator@Uoffset_commit_event_t@Callbacks@NodeKafka@@@std@@@std@@QEAAXPEAUoffset_commit_event_t@Callbacks@NodeKafka@@_K@Z 00000001800509d0     callbacks.obj
 0002:000149d0       $unwind$?_Reserve@?$vector@V?$Persistent@VFunction@v8@@U?$CopyablePersistentTraits@VFunction@v8@@@2@@v8@@V?$allocator@V?$Persistent@VFunction@v8@@U?$CopyablePersistentTraits@VFunction@v8@@@2@@v8@@@std@@@std@@IEAAX_K@Z 00000001800509d0     callbacks.obj
 0002:000149d0       $unwind$__GSHandlerCheck   00000001800509d0     LIBCMT:_gshandler_.obj
 0002:000149d0       $unwind$_statfp            00000001800509d0     libucrt:fpctrl.obj
 0002:000149d0       $unwind$?deallocate@?$_Wrap_alloc@V?$allocator@V?$basic_string@DU?$char_traits@D@std@@V?$allocator@D@2@@std@@@std@@@std@@QEAAXPEAV?$basic_string@DU?$char_traits@D@std@@V?$allocator@D@2@@2@_K@Z 00000001800509d0     common.obj
 0002:000149d0       $unwind$?_Reserve@?$vector@Urebalance_event_t@Callbacks@NodeKafka@@V?$allocator@Urebalance_event_t@Callbacks@NodeKafka@@@std@@@std@@IEAAX_K@Z 00000001800509d0     callbacks.obj
 0002:000149d0       $unwind$fsetpos            00000001800509d0     libucrt:fsetpos.obj
 0002:000149d0       $unwind$??__Ecerr@std@@YAXXZ 00000001800509d0     libcpmt:cerr.obj
 0002:000149d0       $unwind$_getfpstatusword   00000001800509d0     libucrt:_fenvutils.obj
 0002:000149d0       $unwind$?allocate@?$_Wrap_alloc@V?$allocator@V?$basic_string@DU?$char_traits@D@std@@V?$allocator@D@2@@std@@@std@@@std@@QEAAPEAV?$basic_string@DU?$char_traits@D@std@@V?$allocator@D@2@@2@_K@Z 00000001800509d0     common.obj
 0002:000149d0       $unwind$?_Reserve@?$vector@Uoffset_commit_event_t@Callbacks@NodeKafka@@V?$allocator@Uoffset_commit_event_t@Callbacks@NodeKafka@@@std@@@std@@IEAAX_K@Z 00000001800509d0     callbacks.obj
 0002:000149d0       $unwind$__acrt_initialize_multibyte 00000001800509d0     libucrt:mbctype.obj
 0002:000149d0       $unwind$_getfpcontrolword  00000001800509d0     libucrt:_fenvutils.obj
 0002:000149d0       $unwind$??$_Immortalize@V_Iostream_error_category@std@@@std@@YAAEAV_Iostream_error_category@0@XZ 00000001800509d0     common.obj
 0002:000149d0       $unwind$__scrt_dllmain_before_initialize_c 00000001800509d0     LIBCMT:utility.obj
 0002:000149d0       $unwind$__scrt_dllmain_after_initialize_c 00000001800509d0     LIBCMT:utility.obj
 0002:000149d0       $unwind$__scrt_dllmain_uninitialize_c 00000001800509d0     LIBCMT:utility.obj
 0002:000149d0       $unwind$__scrt_dllmain_uninitialize_critical 00000001800509d0     LIBCMT:utility.obj
 0002:000149d0       $unwind$__acrt_initialize_heap 00000001800509d0     libucrt:heap_handle.obj
 0002:000149d0       $unwind$__scrt_dllmain_crt_thread_attach 00000001800509d0     LIBCMT:utility.obj
 0002:000149d0       $unwind$__dcrt_terminate_console_output 00000001800509d0     libucrt:initcon.obj
 0002:000149d0       $unwind$_msize             00000001800509d0     libucrt:msize.obj
 0002:000149d0       $unwind$__pctype_func      00000001800509d0     libucrt:ctype.obj
 0002:000149d0       $unwind$?initialize_multibyte@@YAHXZ 00000001800509d0     libucrt:multibyte_initializer.obj
 0002:000149d0       $unwind$__scrt_dllmain_crt_thread_detach 00000001800509d0     LIBCMT:utility.obj
 0002:000149d0       $unwind$__acrt_initialize_command_line 00000001800509d0     libucrt:argv_data.obj
 0002:000149d0       $unwind$__acrt_initialize_ptd 00000001800509d0     libucrt:per_thread_data.obj
 0002:000149d0       $unwind$abort              00000001800509d0     libucrt:abort.obj
 0002:000149d0       $unwind$??__Einitlocks@@YAXXZ 00000001800509d0     libcpmt:cout.obj
 0002:000149d0       $unwind$uninitialize_environment 00000001800509d0     libucrt:initialization.obj
 0002:000149d0       $unwind$??__Einitlocks@std@@YAXXZ 00000001800509d0     libcpmt:xlock.obj
 0002:000149d0       $unwind$initialize_c       00000001800509d0     libucrt:initialization.obj
 0002:000149d0       $unwind$??__Ecout@std@@YAXXZ 00000001800509d0     libcpmt:cout.obj
 0002:000149d0       $unwind$__acrt_thread_detach 00000001800509d0     libucrt:initialization.obj
 0002:000149d0       $unwind$?state_case_size@?$output_processor@_WV?$stream_output_adapter@_W@__crt_stdio_output@@V?$standard_base@_WV?$stream_output_adapter@_W@__crt_stdio_output@@@2@@__crt_stdio_output@@AEAA_NXZ 00000001800509d0     libucrt:output.obj
 0002:000149d0       $unwind$__std_terminate    00000001800509d0     libvcruntime:frame.obj
 0002:000149d0       $unwind$__acrt_thread_attach 00000001800509d0     libucrt:initialization.obj
 0002:000149d0       $unwind$__acrt_uninitialize_ptd 00000001800509d0     libucrt:per_thread_data.obj
 0002:000149d0       $unwind$__acrt_uninitialize_critical 00000001800509d0     libucrt:initialization.obj
 0002:000149d0       $unwind$??1_Lockit@std@@QEAA@XZ 00000001800509d0     libcpmt:xlock.obj
 0002:000149d0       $unwind$tidy_global        00000001800509d0     libcpmt:locale0.obj
 0002:000149d0       $unwind$?_Locinfo_dtor@_Locinfo@std@@SAXPEAV12@@Z 00000001800509d0     libcpmt:locale0.obj
 0002:000149d0       $unwind$??__F_Fac_tidy_reg@std@@YAXXZ 00000001800509d0     libcpmt:locale0.obj
 0002:000149d0       $unwind$_set_error_mode    00000001800509d0     libucrt:set_error_mode.obj
 0002:000149d0       $unwind$__doserrno         00000001800509d0     libucrt:errno.obj
 0002:000149d0       $unwind$__dcrt_uninitialize_environments_nolock 00000001800509d0     libucrt:environment_initialization.obj
 0002:000149d0       $unwind$??$uninitialize_environment_internal@_W@@YAXAEAPEAPEA_W@Z 00000001800509d0     libucrt:environment_initialization.obj
 0002:000149d0       $unwind$_invoke_watson     00000001800509d0     libucrt:invalid_parameter.obj
 0002:000149d0       $unwind$_errno             00000001800509d0     libucrt:errno.obj
 0002:000149d0       $unwind$?_Atexit@@YAXP6AXXZ@Z 00000001800509d0     libcpmt:iosptrs.obj
 0002:000149d0       $unwind$??$uninitialize_environment_internal@D@@YAXAEAPEAPEAD@Z 00000001800509d0     libucrt:environment_initialization.obj
 0002:000149d0       $unwind$?state_case_size@?$output_processor@_WV?$string_output_adapter@_W@__crt_stdio_output@@V?$standard_base@_WV?$string_output_adapter@_W@__crt_stdio_output@@@2@@__crt_stdio_output@@AEAA_NXZ 00000001800509d0     libucrt:output.obj
 0002:000149d0       $unwind$??__Einitlocks@std@@YAXXZ 00000001800509d0     libcpmt:iosptrs.obj
 0002:000149d0       $unwind$__acrt_release_locale_ref 00000001800509d0     libucrt:locale_refcounting.obj
 0002:000149d8       $unwind$?FunctionCallbackWrapper@imp@Nan@@YAXAEBV?$FunctionCallbackInfo@VValue@v8@@@v8@@@Z 00000001800509d8     binding.obj
 0002:000149e8       $unwind$?New@?$Factory@VFunctionTemplate@v8@@@imp@Nan@@SA?AV?$Local@VFunctionTemplate@v8@@@v8@@P6AXAEBV?$FunctionCallbackInfo@VValue@v8@@@3@@ZV?$Local@VValue@v8@@@5@V?$Local@VSignature@v8@@@5@@Z 00000001800509e8     binding.obj
 0002:000149f8       $chain$0$?New@?$Factory@VFunctionTemplate@v8@@@imp@Nan@@SA?AV?$Local@VFunctionTemplate@v8@@@v8@@P6AXAEBV?$FunctionCallbackInfo@VValue@v8@@@3@@ZV?$Local@VValue@v8@@@5@V?$Local@VSignature@v8@@@5@@Z 00000001800509f8     binding.obj
 0002:00014a0c       $chain$1$?New@?$Factory@VFunctionTemplate@v8@@@imp@Nan@@SA?AV?$Local@VFunctionTemplate@v8@@@v8@@P6AXAEBV?$FunctionCallbackInfo@VValue@v8@@@3@@ZV?$Local@VValue@v8@@@5@V?$Local@VSignature@v8@@@5@@Z 0000000180050a0c     binding.obj
 0002:00014a20       $chain$2$?New@?$Factory@VFunctionTemplate@v8@@@imp@Nan@@SA?AV?$Local@VFunctionTemplate@v8@@@v8@@P6AXAEBV?$FunctionCallbackInfo@VValue@v8@@@3@@ZV?$Local@VValue@v8@@@5@V?$Local@VSignature@v8@@@5@@Z 0000000180050a20     binding.obj
 0002:00014a30       $chain$3$?New@?$Factory@VFunctionTemplate@v8@@@imp@Nan@@SA?AV?$Local@VFunctionTemplate@v8@@@v8@@P6AXAEBV?$FunctionCallbackInfo@VValue@v8@@@3@@ZV?$Local@VValue@v8@@@5@V?$Local@VSignature@v8@@@5@@Z 0000000180050a30     binding.obj
 0002:00014a40       $unwind$?NodeRdKafkaErr2Str@@YAXAEBV?$FunctionCallbackInfo@VValue@v8@@@Nan@@@Z 0000000180050a40     binding.obj
 0002:00014a5c       $unwind$?NodeRdKafkaBuildInFeatures@@YAXAEBV?$FunctionCallbackInfo@VValue@v8@@@Nan@@@Z 0000000180050a5c     binding.obj
 0002:00014a7c       $unwind$?ConstantsInit@@YAXV?$Local@VObject@v8@@@v8@@@Z 0000000180050a7c     binding.obj
 0002:00014a88       $unwind$?Init@@YAXV?$Local@VObject@v8@@@v8@@0@Z 0000000180050a88     binding.obj
 0002:00014a98       $unwind$__acrt_update_multibyte_info 0000000180050a98     libucrt:locale_update.obj
 0002:00014a98       $unwind$__acrt_uninitialize_locks 0000000180050a98     libucrt:locks.obj
 0002:00014a98       $unwind$__acrt_initialize_locks 0000000180050a98     libucrt:locks.obj
 0002:00014a98       $unwind$?_Addstd@ios_base@std@@SAXPEAV12@@Z 0000000180050a98     libcpmt:ios.obj
 0002:00014a98       $unwind$?AsyncQueueWorker@Nan@@YAXPEAVAsyncWorker@1@@Z 0000000180050a98     connection.obj
 0002:00014a98       $unwind$_SetThrowImageBase 0000000180050a98     libvcruntime:trnsctrl.obj
 0002:00014a98       $unwind$?_Setgloballocale@locale@std@@CAXPEAX@Z 0000000180050a98     libcpmt:locale0.obj
 0002:00014a98       $unwind$__acrt_can_show_message_box 0000000180050a98     libucrt:winapi_thunks.obj
 0002:00014a98       $unwind$__acrt_update_locale_info 0000000180050a98     libucrt:locale_update.obj
 0002:00014a98       $unwind$__acrt_freeptd     0000000180050a98     libucrt:per_thread_data.obj
 0002:00014a98       $unwind$?__GetUnwindTryBlock@@YAHPEA_KPEAU_xDISPATCHER_CONTEXT@@PEBU_s_FuncInfo@@@Z 0000000180050a98     libvcruntime:ehstate.obj
 0002:00014a98       $unwind$??0_Lockit@std@@QEAA@H@Z 0000000180050a98     libcpmt:xlock.obj
 0002:00014a98       $unwind$?_Facet_Register@std@@YAXPEAV_Facet_base@1@@Z 0000000180050a98     libcpmt:locale0.obj
 0002:00014a98       $unwind$??0?$basic_string@DU?$char_traits@D@std@@V?$allocator@D@2@@std@@QEAA@PEBD@Z 0000000180050a98     binding.obj
 0002:00014a98       $unwind$??1?$basic_string@DU?$char_traits@D@std@@V?$allocator@D@2@@std@@QEAA@XZ 0000000180050a98     binding.obj
 0002:00014a98       $unwind$??$message_box_wait_thread@_W@@YAKQEAX@Z 0000000180050a98     libucrt:crtmbox.obj
 0002:00014a98       $unwind$??__Efout@std@@YAXXZ 0000000180050a98     libcpmt:cout.obj
 0002:00014a98       $unwind$initialize_pointers 0000000180050a98     libucrt:initialization.obj
 0002:00014a98       $unwind$??0?$output_processor@_WV?$stream_output_adapter@_W@__crt_stdio_output@@V?$standard_base@_WV?$stream_output_adapter@_W@__crt_stdio_output@@@2@@__crt_stdio_output@@QEAA@AEBV?$stream_output_adapter@_W@1@_KQEB_WQEAU__crt_locale_pointers@@QEAD@Z 0000000180050a98     libucrt:output.obj
 0002:00014a98       $unwind$_SetImageBase      0000000180050a98     libvcruntime:trnsctrl.obj
 0002:00014a98       $unwind$??0?$output_processor@_WV?$string_output_adapter@_W@__crt_stdio_output@@V?$standard_base@_WV?$string_output_adapter@_W@__crt_stdio_output@@@2@@__crt_stdio_output@@QEAA@AEBV?$string_output_adapter@_W@1@_KQEB_WQEAU__crt_locale_pointers@@QEAD@Z 0000000180050a98     libucrt:output.obj
 0002:00014a98       $unwind$??0bad_alloc@std@@QEAA@AEBV01@@Z 0000000180050a98     libcpmt:xthrow.obj
 0002:00014a98       $unwind$??1ObjectWrap@Nan@@UEAA@XZ 0000000180050a98     connection.obj
 0002:00014a98       $unwind$?type_case_integer@?$output_processor@_WV?$string_output_adapter@_W@__crt_stdio_output@@V?$standard_base@_WV?$string_output_adapter@_W@__crt_stdio_output@@@2@@__crt_stdio_output@@AEAA_NI_N@Z 0000000180050a98     libucrt:output.obj
 0002:00014a98       $unwind$??0bad_exception@std@@QEAA@AEBV01@@Z 0000000180050a98     libvcruntime:frame.obj
 0002:00014a98       $unwind$_malloc_base       0000000180050a98     libucrt:malloc_base.obj
 0002:00014a98       $unwind$??0logic_error@std@@QEAA@AEBV01@@Z 0000000180050a98     libcpmt:xthrow.obj
 0002:00014a98       $unwind$??_G?$codecvt@DDU_Mbstatet@@@std@@MEAAPEAXI@Z 0000000180050a98     libcpmt:cerr.obj
 0002:00014a98       $unwind$_purecall          0000000180050a98     libvcruntime:purevirt.obj
 0002:00014a98       $unwind$__acrt_allocate_buffer_for_argv 0000000180050a98     libucrt:argv_parsing.obj
 0002:00014a98       $unwind$?type_case_integer@?$output_processor@_WV?$stream_output_adapter@_W@__crt_stdio_output@@V?$standard_base@_WV?$stream_output_adapter@_W@__crt_stdio_output@@@2@@__crt_stdio_output@@AEAA_NI_N@Z 0000000180050a98     libucrt:output.obj
 0002:00014a98       $unwind$_setfpstatusword   0000000180050a98     libucrt:_fenvutils.obj
 0002:00014a98       $unwind$??0length_error@std@@QEAA@AEBV01@@Z 0000000180050a98     libcpmt:xthrow.obj
 0002:00014a98       $unwind$?_Ios_base_dtor@ios_base@std@@CAXPEAV12@@Z 0000000180050a98     libcpmt:ios.obj
 0002:00014a98       $unwind$??0out_of_range@std@@QEAA@AEBV01@@Z 0000000180050a98     libcpmt:xthrow.obj
 0002:00014a98       $unwind$_calloc_base       0000000180050a98     libucrt:calloc_base.obj
 0002:00014a98       $unwind$__acrt_fp_strflt_to_string 0000000180050a98     libucrt:_fptostr.obj
 0002:00014a98       $unwind$??__Eferr@std@@YAXXZ 0000000180050a98     libcpmt:cerr.obj
 0002:00014a98       $unwind$?__StateFromIp@@YAHPEBU_s_FuncInfo@@PEAU_xDISPATCHER_CONTEXT@@_J@Z 0000000180050a98     libvcruntime:ehstate.obj
 0002:00014a98       $unwind$?_Reserve@?$vector@Uevent_topic_partition_t@Callbacks@NodeKafka@@V?$allocator@Uevent_topic_partition_t@Callbacks@NodeKafka@@@std@@@std@@IEAAX_K@Z 0000000180050a98     callbacks.obj
 0002:00014a98       $unwind$?_Reserve@?$vector@VDeliveryReport@Callbacks@NodeKafka@@V?$allocator@VDeliveryReport@Callbacks@NodeKafka@@@std@@@std@@IEAAX_K@Z 0000000180050a98     callbacks.obj
 0002:00014a98       $unwind$?initialize_pointers@@YAHXZ 0000000180050a98     libcpmt:winapisupp.obj
 0002:00014a98       $unwind$_set_statfp        0000000180050a98     libucrt:fpctrl.obj
 0002:00014a98       $unwind$?DeactivateDispatchers@Producer@NodeKafka@@UEAAXXZ 0000000180050a98     producer.obj
 0002:00014a98       $unwind$?AsyncExecuteComplete@Nan@@YAXPEAUuv_work_s@@@Z 0000000180050a98     connection.obj
 0002:00014a98       $unwind$?Ref@ObjectWrap@Nan@@MEAAXXZ 0000000180050a98     connection.obj
 0002:00014a98       $unwind$??0exception@std@@QEAA@AEBV01@@Z 0000000180050a98     libcpmt:xthrow.obj
 0002:00014a98       $unwind$?DloadReleaseSectionWriteAccess@@YAXXZ 0000000180050a98     DelayImp:delayhlp.obj
 0002:00014a98       $unwind$__scrt_uninitialize_crt 0000000180050a98     LIBCMT:utility.obj
 0002:00014a98       $unwind$?_Reserve@?$vector@Uevent_t@Callbacks@NodeKafka@@V?$allocator@Uevent_t@Callbacks@NodeKafka@@@std@@@std@@IEAAX_K@Z 0000000180050a98     callbacks.obj
 0002:00014a98       $unwind$uninitialize_allocated_memory 0000000180050a98     libucrt:initialization.obj
 0002:00014a98       $unwind$?imbue@?$basic_filebuf@DU?$char_traits@D@std@@@std@@MEAAXAEBVlocale@2@@Z 0000000180050a98     libcpmt:cerr.obj
 0002:00014a98       $unwind$__scrt_initialize_crt 0000000180050a98     LIBCMT:utility.obj
 0002:00014a98       $unwind$__acrt_uninitialize_stdio 0000000180050a98     libucrt:_file.obj
 0002:00014a98       $unwind$__scrt_release_startup_lock 0000000180050a98     LIBCMT:utility.obj
 0002:00014a98       $unwind$?Unref@ObjectWrap@Nan@@MEAAXXZ 0000000180050a98     connection.obj
 0002:00014a98       $unwind$?setbuf@?$basic_filebuf@DU?$char_traits@D@std@@@std@@MEAAPEAV?$basic_streambuf@DU?$char_traits@D@std@@@2@PEAD_J@Z 0000000180050a98     libcpmt:cerr.obj
 0002:00014a98       $unwind$__vcrt_freeptd     0000000180050a98     libvcruntime:per_thread_data.obj
 0002:00014a98       $unwind$_clrfp             0000000180050a98     libucrt:fpctrl.obj
 0002:00014a98       $unwind$?WeakCallback@ObjectWrap@Nan@@CAXAEBV?$WeakCallbackInfo@VObjectWrap@Nan@@@v8@@@Z 0000000180050a98     connection.obj
 0002:00014a98       $unwind$__raise_securityfailure 0000000180050a98     LIBCMT:gs_report.obj
 0002:00014a98       $unwind$??_Gexception@stdext@@UEAAPEAXI@Z 0000000180050a98     common.obj
 0002:00014a98       $unwind$__acrt_uninitialize_winapi_thunks 0000000180050a98     libucrt:winapi_thunks.obj
 0002:00014a98       $unwind$??_Gruntime_error@std@@UEAAPEAXI@Z 0000000180050a98     common.obj
 0002:00014a98       $unwind$__acrt_stdio_free_buffer_nolock 0000000180050a98     libucrt:_freebuf.obj
 0002:00014a98       $unwind$__acrt_stdio_allocate_buffer_nolock 0000000180050a98     libucrt:_getbuf.obj
 0002:00014a98       $unwind$?load_exe_hook@@YAP6A_JXZIPEAUDelayLoadInfo@@@Z 0000000180050a98     win_delay_load_hook.obj
 0002:00014a98       $unwind$??0bad_cast@std@@QEAA@AEBV01@@Z 0000000180050a98     libcpmt:cerr.obj
 0002:00014a98       $unwind$strcpy_s           0000000180050a98     libucrt:strcpy_s.obj
 0002:00014a98       $unwind$wcscat_s           0000000180050a98     libucrt:wcscat_s.obj
 0002:00014a98       $unwind$_clearfp           0000000180050a98     libucrt:ieee.obj
 0002:00014a98       $unwind$??_Gtype_info@@UEAAPEAXI@Z 0000000180050a98     LIBCMT:std_type_info_static.obj
 0002:00014a98       $unwind$_fflush_nolock     0000000180050a98     libucrt:fflush.obj
 0002:00014a98       $unwind$??_G_Facet_base@std@@UEAAPEAXI@Z 0000000180050a98     common.obj
 0002:00014a98       $unwind$??2@YAPEAX_K@Z     0000000180050a98     LIBCMT:new_scalar.obj
 0002:00014a98       $unwind$??_Gfailure@ios_base@std@@UEAAPEAXI@Z 0000000180050a98     common.obj
 0002:00014a98       $unwind$??0bad_array_new_length@std@@QEAA@AEBV01@@Z 0000000180050a98     LIBCMT:throw_bad_alloc.obj
 0002:00014a98       $unwind$??0bad_typeid@std@@QEAA@AEBV01@@Z 0000000180050a98     libvcruntime:rtti.obj
 0002:00014a98       $unwind$??0__non_rtti_object@std@@QEAA@AEBV01@@Z 0000000180050a98     libvcruntime:rtti.obj
 0002:00014a98       $unwind$wcscpy_s           0000000180050a98     libucrt:wcscpy_s.obj
 0002:00014a98       $unwind$??1MessageWorker@Workers@NodeKafka@@UEAA@XZ 0000000180050a98     workers.obj
 0002:00014a98       $unwind$??_G_Iostream_error_category@std@@UEAAPEAXI@Z 0000000180050a98     common.obj
 0002:00014a98       $unwind$_Init_thread_header 0000000180050a98     LIBCMT:thread_safe_statics.obj
 0002:00014a98       $unwind$?exit_or_terminate_process@@YAXI@Z 0000000180050a98     libucrt:exit.obj
 0002:00014a98       $unwind$_Init_thread_footer 0000000180050a98     LIBCMT:thread_safe_statics.obj
 0002:00014a98       $unwind$_CreateFrameInfo   0000000180050a98     libvcruntime:trnsctrl.obj
 0002:00014a98       $unwind$_Init_thread_notify 0000000180050a98     LIBCMT:thread_safe_statics.obj
 0002:00014a98       $unwind$?message@_Iostream_error_category@std@@UEBA?AV?$basic_string@DU?$char_traits@D@std@@V?$allocator@D@2@@2@H@Z 0000000180050a98     common.obj
 0002:00014a98       $unwind$??_Gsystem_error@std@@UEAAPEAXI@Z 0000000180050a98     common.obj
 0002:00014a98       $unwind$__std_exception_destroy 0000000180050a98     libvcruntime:std_exception.obj
 0002:00014a98       $unwind$??_G_System_error@std@@UEAAPEAXI@Z 0000000180050a98     common.obj
 0002:00014a98       $unwind$?AsyncClose_@MessageWorker@Workers@NodeKafka@@CAXPEAUuv_handle_s@@@Z 0000000180050a98     workers.obj
 0002:00014a98       $unwind$_IsExceptionObjectToBeDestroyed 0000000180050a98     libvcruntime:trnsctrl.obj
 0002:00014a98       $unwind$__std_type_info_destroy_list 0000000180050a98     libvcruntime:std_type_info.obj
 0002:00014a98       $unwind$_onexit            0000000180050a98     LIBCMT:utility.obj
 0002:00014a98       $unwind$_Getctype          0000000180050a98     libcpmt:_tolower.obj
 0002:00014a98       $unwind$__vcrt_uninitialize_locks 0000000180050a98     libvcruntime:locks.obj
 0002:00014a98       $unwind$??_Gerror_category@std@@UEAAPEAXI@Z 0000000180050a98     common.obj
 0002:00014a98       $unwind$??$common_timespec_get@U_timespec64@@@@YAHQEAU_timespec64@@H@Z 0000000180050a98     libucrt:time.obj
 0002:00014a98       $unwind$?do_narrow@?$ctype@D@std@@MEBAPEBDPEBD0DPEAD@Z 0000000180050a98     common.obj
 0002:00014a98       $unwind$?do_widen@?$ctype@D@std@@MEBAPEBDPEBD0PEAD@Z 0000000180050a98     common.obj
 0002:00014a98       $unwind$fegetenv           0000000180050a98     libucrt:fegetenv.obj
 0002:00014a98       $unwind$feholdexcept       0000000180050a98     libucrt:feholdexcept.obj
 0002:00014a98       $unwind$fesetenv           0000000180050a98     libucrt:fesetenv.obj
 0002:00014a98       $unwind$__vcrt_initialize_locks 0000000180050a98     libvcruntime:locks.obj
 0002:00014aa0       $unwind$__acrt_GetUserDefaultLocaleName 0000000180050aa0     libucrt:winapi_thunks.obj
 0002:00014aa0       $unwind$?__scrt_initialize_thread_safe_statics@@YAHXZ 0000000180050aa0     LIBCMT:thread_safe_statics.obj
 0002:00014aa0       $unwind$_DllMainCRTStartup 0000000180050aa0     LIBCMT:dll_dllmain.obj
 0002:00014aa0       $unwind$?free_crt_array_internal@@YAXQEAPEBX_K@Z 0000000180050aa0     libucrt:inittime.obj
 0002:00014aa0       $unwind$??$common_lseek_nolock@_J@@YA_JH_JH@Z 0000000180050aa0     libucrt:lseek.obj
 0002:00014aa0       $unwind$_Init_thread_wait  0000000180050aa0     LIBCMT:thread_safe_statics.obj
 0002:00014aa0       $unwind$__acrt_stdio_flush_nolock 0000000180050aa0     libucrt:fflush.obj
 0002:00014aa0       $unwind$memcpy_s           0000000180050aa0     libucrt:strtod.obj
 0002:00014aa0       $unwind$__acrt_stdio_flush_and_write_narrow_nolock 0000000180050aa0     libucrt:_flsbuf.obj
 0002:00014aa0       $unwind$__vcrt_getptd_noexit 0000000180050aa0     libvcruntime:per_thread_data.obj
 0002:00014aa0       $unwind$__acrt_stdio_flush_and_write_wide_nolock 0000000180050aa0     libucrt:_flsbuf.obj
 0002:00014aa0       $unwind$?underflow@?$basic_filebuf@DU?$char_traits@D@std@@@std@@MEAAHXZ 0000000180050aa0     libcpmt:cerr.obj
 0002:00014aa0       $unwind$?sync@?$basic_filebuf@DU?$char_traits@D@std@@@std@@MEAAHXZ 0000000180050aa0     libcpmt:cerr.obj
 0002:00014aa0       $unwind$__acrt_FlsSetValue 0000000180050aa0     libucrt:winapi_thunks.obj
 0002:00014aa0       $unwind$_RTC_Terminate     0000000180050aa0     LIBCMT:_initsect_.obj
 0002:00014aa0       $unwind$??R<lambda_ad1ced32f4ac17aa236e5ef05d6b3b7c>@@QEBAXXZ 0000000180050aa0     libucrt:mbctype.obj
 0002:00014aa0       $unwind$__acrt_execute_uninitializers 0000000180050aa0     libucrt:shared_initialization.obj
 0002:00014aa0       $unwind$_RTC_Initialize    0000000180050aa0     LIBCMT:_initsect_.obj
 0002:00014aa0       $unwind$?_Initcvt@?$basic_filebuf@DU?$char_traits@D@std@@@std@@IEAAXPEBV?$codecvt@DDU_Mbstatet@@@2@@Z 0000000180050aa0     libcpmt:cerr.obj
 0002:00014aa0       $unwind$?DeactivateDispatchers@KafkaConsumer@NodeKafka@@UEAAXXZ 0000000180050aa0     kafka-consumer.obj
 0002:00014aa0       $unwind$__vcrt_FlsSetValue 0000000180050aa0     libvcruntime:winapi_downlevel.obj
 0002:00014aa0       $unwind$??0?$vector@Uevent_topic_partition_t@Callbacks@NodeKafka@@V?$allocator@Uevent_topic_partition_t@Callbacks@NodeKafka@@@std@@@std@@QEAA@AEBV01@@Z 0000000180050aa0     callbacks.obj
 0002:00014aa0       $unwind$_exception_enabled 0000000180050aa0     libucrt:libm_error.obj
 0002:00014aa0       $unwind$?put@?$basic_ostream@DU?$char_traits@D@std@@@std@@QEAAAEAV12@D@Z 0000000180050aa0     common.obj
 0002:00014aa0       $unwind$??R<lambda_532e024f4337e6fc7ad266c2bef9f4ed>@@QEBA_KXZ 0000000180050aa0     libucrt:fwrite.obj
 0002:00014aa0       $unwind$??0_Init_locks@std@@QEAA@XZ 0000000180050aa0     libcpmt:xlock.obj
 0002:00014aa0       $unwind$?type_case_Z@?$output_processor@_WV?$stream_output_adapter@_W@__crt_stdio_output@@V?$standard_base@_WV?$stream_output_adapter@_W@__crt_stdio_output@@@2@@__crt_stdio_output@@AEAA_NXZ 0000000180050aa0     libucrt:output.obj
 0002:00014aa0       $unwind$?assign@?$basic_string@DU?$char_traits@D@std@@V?$allocator@D@2@@std@@QEAAAEAV12@PEBD_K@Z 0000000180050aa0     binding.obj
 0002:00014aa0       $unwind$?Add@OffsetCommitDispatcher@Callbacks@NodeKafka@@QEAAXAEBUoffset_commit_event_t@23@@Z 0000000180050aa0     callbacks.obj
 0002:00014aa0       $unwind$_initterm_e        0000000180050aa0     libucrt:initterm.obj
 0002:00014aa0       $unwind$__acrt_getptd_noexit 0000000180050aa0     libucrt:per_thread_data.obj
 0002:00014aa0       $unwind$?Add@RebalanceDispatcher@Callbacks@NodeKafka@@QEAAXAEBUrebalance_event_t@23@@Z 0000000180050aa0     callbacks.obj
 0002:00014aa0       $unwind$?type_case_s@?$output_processor@_WV?$stream_output_adapter@_W@__crt_stdio_output@@V?$standard_base@_WV?$stream_output_adapter@_W@__crt_stdio_output@@@2@@__crt_stdio_output@@AEAA_NXZ 0000000180050aa0     libucrt:output.obj
 0002:00014aa0       $unwind$??4?$_Yarn@D@std@@QEAAAEAV01@PEBD@Z 0000000180050aa0     libcpmt:locale0.obj
 0002:00014aa0       $unwind$??_GDelivery@Callbacks@NodeKafka@@UEAAPEAXI@Z 0000000180050aa0     callbacks.obj
 0002:00014aa0       $unwind$?_Tidy@ios_base@std@@AEAAXXZ 0000000180050aa0     libcpmt:ios.obj
 0002:00014aa0       $unwind$?type_case_n@?$output_processor@_WV?$string_output_adapter@_W@__crt_stdio_output@@V?$standard_base@_WV?$string_output_adapter@_W@__crt_stdio_output@@@2@@__crt_stdio_output@@AEAA_NXZ 0000000180050aa0     libucrt:output.obj
 0002:00014aa0       $unwind$?type_case_s@?$output_processor@_WV?$string_output_adapter@_W@__crt_stdio_output@@V?$standard_base@_WV?$string_output_adapter@_W@__crt_stdio_output@@@2@@__crt_stdio_output@@AEAA_NXZ 0000000180050aa0     libucrt:output.obj
 0002:00014aa0       $unwind$?Add@DeliveryReportDispatcher@Callbacks@NodeKafka@@QEAAXAEBVDeliveryReport@23@@Z 0000000180050aa0     callbacks.obj
 0002:00014aa0       $unwind$?type_case_Z@?$output_processor@_WV?$string_output_adapter@_W@__crt_stdio_output@@V?$standard_base@_WV?$string_output_adapter@_W@__crt_stdio_output@@@2@@__crt_stdio_output@@AEAA_NXZ 0000000180050aa0     libucrt:output.obj
 0002:00014aa0       $unwind$__acrt_LocaleNameToLCID 0000000180050aa0     libucrt:winapi_thunks.obj
 0002:00014aa0       $unwind$?type_case_n@?$output_processor@_WV?$stream_output_adapter@_W@__crt_stdio_output@@V?$standard_base@_WV?$stream_output_adapter@_W@__crt_stdio_output@@@2@@__crt_stdio_output@@AEAA_NXZ 0000000180050aa0     libucrt:output.obj
 0002:00014aa0       $unwind$memcpy_s           0000000180050aa0     libucrt:cfout.obj
 0002:00014aa0       $unwind$??_GEvent@Callbacks@NodeKafka@@UEAAPEAXI@Z 0000000180050aa0     callbacks.obj
 0002:00014ab0       $unwind$__std_exception_copy 0000000180050ab0     libvcruntime:std_exception.obj
 0002:00014ab0       $unwind$_free_osfhnd       0000000180050ab0     libucrt:osfinfo.obj
 0002:00014ab0       $unwind$_wcstombs_s_l      0000000180050ab0     libucrt:wcstombs.obj
 0002:00014ab0       $unwind$?assign@?$basic_string@DU?$char_traits@D@std@@V?$allocator@D@2@@std@@QEAAAEAV12@AEBV12@_K1@Z 0000000180050ab0     binding.obj
 0002:00014ab0       $unwind$?initialize_stdio_handles_nolock@@YAXXZ 0000000180050ab0     libucrt:ioinit.obj
 0002:00014ac4       $unwind$??_GKafkaConsumerConsume@Workers@NodeKafka@@UEAAPEAXI@Z 0000000180050ac4     workers.obj
 0002:00014ac4       $unwind$??0event_t@Callbacks@NodeKafka@@QEAA@AEBU012@@Z 0000000180050ac4     callbacks.obj
 0002:00014ac4       $unwind$__acrt_GetSystemTimePreciseAsFileTime 0000000180050ac4     libucrt:winapi_thunks.obj
 0002:00014ac4       $unwind$_fclose_nolock     0000000180050ac4     libucrt:fclose.obj
 0002:00014ac4       $unwind$?<helper_func_cdecl>@<lambda_e2bb8337c48846e80c921ea5ddadc92d>@@CAHPEA_W@Z 0000000180050ac4     libucrt:winapi_thunks.obj
 0002:00014ac4       $unwind$?try_cor_exit_process@@YAXI@Z 0000000180050ac4     libucrt:exit.obj
 0002:00014ac4       $unwind$??_Gbad_array_new_length@std@@UEAAPEAXI@Z 0000000180050ac4     LIBCMT:throw_bad_alloc.obj
 0002:00014ac4       $unwind$fgetpos            0000000180050ac4     libucrt:fgetpos.obj
 0002:00014ac4       $unwind$?__SetUnwindTryBlock@@YAXPEA_KPEAU_xDISPATCHER_CONTEXT@@PEBU_s_FuncInfo@@H@Z 0000000180050ac4     libvcruntime:ehstate.obj
 0002:00014ac4       $unwind$?_Assign_rv@?$basic_string@DU?$char_traits@D@std@@V?$allocator@D@2@@std@@QEAAX$$QEAV12@@Z 0000000180050ac4     callbacks.obj
 0002:00014ac4       $unwind$_updatetlocinfoEx_nolock 0000000180050ac4     libucrt:locale_refcounting.obj
 0002:00014ac4       $unwind$??_GKafkaConsumerConsumeNum@Workers@NodeKafka@@UEAAPEAXI@Z 0000000180050ac4     workers.obj
 0002:00014ac4       $unwind$__acrt_FlsGetValue 0000000180050ac4     libucrt:winapi_thunks.obj
 0002:00014ac4       $unwind$__acrt_FlsFree     0000000180050ac4     libucrt:winapi_thunks.obj
 0002:00014ac4       $unwind$__acrt_FlsAlloc    0000000180050ac4     libucrt:winapi_thunks.obj
 0002:00014ac4       $unwind$??_Gout_of_range@std@@UEAAPEAXI@Z 0000000180050ac4     libcpmt:xthrow.obj
 0002:00014ac4       $unwind$??4?$basic_string@DU?$char_traits@D@std@@V?$allocator@D@2@@std@@QEAAAEAV01@$$QEAV01@@Z 0000000180050ac4     callbacks.obj
 0002:00014ac4       $unwind$??_Glength_error@std@@UEAAPEAXI@Z 0000000180050ac4     libcpmt:xthrow.obj
 0002:00014ac4       $unwind$??_Glogic_error@std@@UEAAPEAXI@Z 0000000180050ac4     libcpmt:xthrow.obj
 0002:00014ac4       $unwind$??_Gbad_alloc@std@@UEAAPEAXI@Z 0000000180050ac4     libcpmt:xthrow.obj
 0002:00014ac4       $unwind$??_GPartitioner@Callbacks@NodeKafka@@UEAAPEAXI@Z 0000000180050ac4     callbacks.obj
 0002:00014ac4       $unwind$??_GKafkaConsumerConsumeLoop@Workers@NodeKafka@@UEAAPEAXI@Z 0000000180050ac4     workers.obj
 0002:00014ac4       $unwind$??_GKafkaConsumerCommitted@Workers@NodeKafka@@UEAAPEAXI@Z 0000000180050ac4     workers.obj
 0002:00014ac4       $unwind$??_Gexception@std@@UEAAPEAXI@Z 0000000180050ac4     libcpmt:xthrow.obj
 0002:00014ac4       $unwind$??_GOffsetCommit@Callbacks@NodeKafka@@UEAAPEAXI@Z 0000000180050ac4     callbacks.obj
 0002:00014ac4       $unwind$??1_Init_locks@std@@QEAA@XZ 0000000180050ac4     libcpmt:xlock.obj
 0002:00014ac4       $unwind$??1KafkaConsumerCommitted@Workers@NodeKafka@@UEAA@XZ 0000000180050ac4     workers.obj
 0002:00014ac4       $unwind$__acrt_getptd      0000000180050ac4     libucrt:per_thread_data.obj
 0002:00014ac4       $unwind$??_GRebalance@Callbacks@NodeKafka@@UEAAPEAXI@Z 0000000180050ac4     callbacks.obj
 0002:00014ac4       $unwind$?replace_current_thread_locale_nolock@@YAXQEAU__acrt_ptd@@QEAU__crt_locale_data@@@Z 0000000180050ac4     libucrt:per_thread_data.obj
 0002:00014ac4       $unwind$_Deletegloballocale 0000000180050ac4     libcpmt:locale0.obj
 0002:00014ac4       $unwind$?_New_Locimp@_Locimp@locale@std@@CAPEAV123@_N@Z 0000000180050ac4     libcpmt:locale0.obj
 0002:00014ac4       $unwind$?_Locinfo_ctor@_Locinfo@std@@SAXPEAV12@PEBD@Z 0000000180050ac4     libcpmt:locale0.obj
 0002:00014ac4       $unwind$??_GKafkaConsumerDisconnect@Workers@NodeKafka@@UEAAPEAXI@Z 0000000180050ac4     workers.obj
 0002:00014ac4       $unwind$??0DeliveryReport@Callbacks@NodeKafka@@QEAA@AEBV012@@Z 0000000180050ac4     callbacks.obj
 0002:00014ac4       $unwind$__acrt_errno_map_os_error 0000000180050ac4     libucrt:errno.obj
 0002:00014ac4       $unwind$GetLcidFromLanguage 0000000180050ac4     libucrt:getqloc_downlevel.obj
 0002:00014ac4       $unwind$__acrt_get_parent_window 0000000180050ac4     libucrt:winapi_thunks.obj
 0002:00014ac4       $unwind$?force_decimal_point@__crt_stdio_output@@YAXPEADQEAU__crt_locale_pointers@@@Z 0000000180050ac4     libucrt:output.obj
 0002:00014ac4       $unwind$??0sentry@?$basic_ostream@DU?$char_traits@D@std@@@std@@QEAA@AEAV12@@Z 0000000180050ac4     common.obj
 0002:00014ac4       $unwind$_realloc_base      0000000180050ac4     libucrt:realloc_base.obj
 0002:00014ac4       $unwind$??_GKafkaConsumerConnect@Workers@NodeKafka@@UEAAPEAXI@Z 0000000180050ac4     workers.obj
 0002:00014ac4       $unwind$??0_LocaleUpdate@@QEAA@QEAU__crt_locale_pointers@@@Z 0000000180050ac4     libucrt:output.obj
 0002:00014ac4       $unwind$_callnewh          0000000180050ac4     libucrt:new_handler.obj
 0002:00014ac4       $unwind$??_Gbad_exception@std@@UEAAPEAXI@Z 0000000180050ac4     libvcruntime:frame.obj
 0002:00014ac4       $unwind$_ungetc_nolock     0000000180050ac4     libucrt:ungetc.obj
 0002:00014ac4       $unwind$__vcrt_FlsGetValue 0000000180050ac4     libvcruntime:winapi_downlevel.obj
 0002:00014ac4       $unwind$??_GProducerFlush@Workers@NodeKafka@@UEAAPEAXI@Z 0000000180050ac4     workers.obj
 0002:00014ac4       $unwind$??$common_xtox@K_W@@YAHKQEA_W_KI_N@Z 0000000180050ac4     libucrt:xtoa.obj
 0002:00014ac4       $unwind$??_G?$basic_filebuf@DU?$char_traits@D@std@@@std@@UEAAPEAXI@Z 0000000180050ac4     libcpmt:cerr.obj
 0002:00014ac4       $unwind$__vcrt_FlsFree     0000000180050ac4     libvcruntime:winapi_downlevel.obj
 0002:00014ac4       $unwind$?erase@?$basic_string@DU?$char_traits@D@std@@V?$allocator@D@2@@std@@QEAAAEAV12@_K0@Z 0000000180050ac4     binding.obj
 0002:00014ac4       $unwind$?internal_isupper_l@@YA_NHQEAU__crt_locale_pointers@@@Z 0000000180050ac4     libucrt:tolower_toupper.obj
 0002:00014ac4       $unwind$?push_back@?$vector@PEAVTopicPartition@RdKafka@@V?$allocator@PEAVTopicPartition@RdKafka@@@std@@@std@@QEAAX$$QEAPEAVTopicPartition@RdKafka@@@Z 0000000180050ac4     common.obj
 0002:00014ac4       $unwind$__vcrt_FlsAlloc    0000000180050ac4     libvcruntime:winapi_downlevel.obj
 0002:00014ac4       $unwind$?pbackfail@?$basic_filebuf@DU?$char_traits@D@std@@@std@@MEAAHH@Z 0000000180050ac4     libcpmt:cerr.obj
 0002:00014ac4       $unwind$?push_back@?$vector@V?$basic_string@DU?$char_traits@D@std@@V?$allocator@D@2@@std@@V?$allocator@V?$basic_string@DU?$char_traits@D@std@@V?$allocator@D@2@@std@@@2@@std@@QEAAXAEBV?$basic_string@DU?$char_traits@D@std@@V?$allocator@D@2@@2@@Z 0000000180050ac4     common.obj
 0002:00014ac4       $unwind$??_GProducerDisconnect@Workers@NodeKafka@@UEAAPEAXI@Z 0000000180050ac4     workers.obj
 0002:00014ac4       $unwind$??_GKafkaConsumerSeek@Workers@NodeKafka@@UEAAPEAXI@Z 0000000180050ac4     workers.obj
 0002:00014ac4       $unwind$??_G?$basic_streambuf@DU?$char_traits@D@std@@@std@@UEAAPEAXI@Z 0000000180050ac4     libcpmt:cerr.obj
 0002:00014ac4       $unwind$?uflow@?$basic_streambuf@DU?$char_traits@D@std@@@std@@MEAAHXZ 0000000180050ac4     libcpmt:cerr.obj
 0002:00014ac4       $unwind$__acrt_stdio_begin_temporary_buffering_nolock 0000000180050ac4     libucrt:_sftbuf.obj
 0002:00014ac4       $unwind$??_Gbad_cast@std@@UEAAPEAXI@Z 0000000180050ac4     libcpmt:cerr.obj
 0002:00014ac4       $unwind$?push_back@?$vector@PEAVMessage@RdKafka@@V?$allocator@PEAVMessage@RdKafka@@@std@@@std@@QEAAXAEBQEAVMessage@RdKafka@@@Z 0000000180050ac4     workers.obj
 0002:00014ac4       $unwind$__acrt_IsValidLocaleName 0000000180050ac4     libucrt:winapi_thunks.obj
 0002:00014ac4       $unwind$wcsncat_s          0000000180050ac4     libucrt:wcsncat_s.obj
 0002:00014ac4       $unwind$wcsncpy_s          0000000180050ac4     libucrt:wcsncpy_s.obj
 0002:00014ac4       $unwind$??_G?$ctype@D@std@@MEAAPEAXI@Z 0000000180050ac4     common.obj
 0002:00014ac4       $unwind$??1_Locinfo@std@@QEAA@XZ 0000000180050ac4     common.obj
 0002:00014ac4       $unwind$??_GProducerConnect@Workers@NodeKafka@@UEAAPEAXI@Z 0000000180050ac4     workers.obj
 0002:00014ac4       $unwind$??1Connection@NodeKafka@@MEAA@XZ 0000000180050ac4     connection.obj
 0002:00014ac4       $unwind$??_GConnection@NodeKafka@@MEAAPEAXI@Z 0000000180050ac4     connection.obj
 0002:00014ac4       $unwind$??_GObjectWrap@Nan@@UEAAPEAXI@Z 0000000180050ac4     connection.obj
 0002:00014ac4       $unwind$__acrt_invoke_user_matherr 0000000180050ac4     libucrt:matherr.obj
 0002:00014ac4       $unwind$__acrt_locale_initialize_time 0000000180050ac4     libucrt:inittime.obj
 0002:00014ac4       $unwind$?push_back@?$vector@PEAVTopicPartition@RdKafka@@V?$allocator@PEAVTopicPartition@RdKafka@@@std@@@std@@QEAAXAEBQEAVTopicPartition@RdKafka@@@Z 0000000180050ac4     kafka-consumer.obj
 0002:00014ac4       $unwind$?DloadAcquireSectionWriteAccess@@YAXXZ 0000000180050ac4     DelayImp:delayhlp.obj
 0002:00014ac4       $unwind$?DloadGetSRWLockFunctionPointers@@YAEXZ 0000000180050ac4     DelayImp:delayhlp.obj
 0002:00014ac4       $unwind$__acrt_uninitialize_lowio 0000000180050ac4     libucrt:ioinit.obj
 0002:00014ac4       $unwind$GetLcidFromLangCountry 0000000180050ac4     libucrt:getqloc_downlevel.obj
 0002:00014ac4       $unwind$?ActivateDispatchers@KafkaConsumer@NodeKafka@@UEAAXXZ 0000000180050ac4     kafka-consumer.obj
 0002:00014ac4       $unwind$??_GConnectionQueryWatermarkOffsets@Workers@NodeKafka@@UEAAPEAXI@Z 0000000180050ac4     workers.obj
 0002:00014ac4       $unwind$?push_back@?$vector@PEAVMessage@RdKafka@@V?$allocator@PEAVMessage@RdKafka@@@std@@@std@@QEAAX$$QEAPEAVMessage@RdKafka@@@Z 0000000180050ac4     workers.obj
 0002:00014ac4       $unwind$??_GKafkaConsumer@NodeKafka@@MEAAPEAXI@Z 0000000180050ac4     kafka-consumer.obj
 0002:00014ac4       $unwind$_close_nolock      0000000180050ac4     libucrt:close.obj
 0002:00014ac4       $unwind$??$common_initialize_environment_nolock@D@@YAHXZ 0000000180050ac4     libucrt:environment_initialization.obj
 0002:00014ac4       $unwind$_FindAndUnlinkFrame 0000000180050ac4     libvcruntime:trnsctrl.obj
 0002:00014ac4       $unwind$??1Producer@NodeKafka@@MEAA@XZ 0000000180050ac4     producer.obj
 0002:00014ac4       $unwind$?ExFilterRethrow@@YAHPEAU_EXCEPTION_POINTERS@@PEAUEHExceptionRecord@@PEAH@Z 0000000180050ac4     libvcruntime:frame.obj
 0002:00014ac4       $unwind$??_GProducer@NodeKafka@@MEAAPEAXI@Z 0000000180050ac4     producer.obj
 0002:00014ac4       $unwind$GetLocaleNameFromLanguage 0000000180050ac4     libucrt:get_qualified_locale.obj
 0002:00014ac4       $unwind$GetLocaleNameFromLangCountry 0000000180050ac4     libucrt:get_qualified_locale.obj
 0002:00014ac4       $unwind$??_GAsyncWorker@Nan@@UEAAPEAXI@Z 0000000180050ac4     workers.obj
 0002:00014ac4       $unwind$??_GConnectionMetadata@Workers@NodeKafka@@UEAAPEAXI@Z 0000000180050ac4     workers.obj
 0002:00014ac4       $unwind$??_Gbad_typeid@std@@UEAAPEAXI@Z 0000000180050ac4     libvcruntime:rtti.obj
 0002:00014ac4       $unwind$??_GErrorAwareWorker@Workers@NodeKafka@@UEAAPEAXI@Z 0000000180050ac4     workers.obj
 0002:00014ac4       $unwind$??_G__non_rtti_object@std@@UEAAPEAXI@Z 0000000180050ac4     libvcruntime:rtti.obj
 0002:00014ac4       $unwind$??0MessageWorker@Workers@NodeKafka@@QEAA@PEAVCallback@Nan@@@Z 0000000180050ac4     workers.obj
 0002:00014ac4       $unwind$strncpy_s          0000000180050ac4     libucrt:strncpy_s.obj
 0002:00014ac4       $unwind$??_GTopic@NodeKafka@@EEAAPEAXI@Z 0000000180050ac4     topic.obj
 0002:00014ac4       $unwind$??_GMessageWorker@Workers@NodeKafka@@UEAAPEAXI@Z 0000000180050ac4     workers.obj
 0002:00014ac4       $unwind$??_GOffsetsForTimes@Handle@Workers@NodeKafka@@UEAAPEAXI@Z 0000000180050ac4     workers.obj
 0002:00014ac4       $unwind$??1OffsetsForTimes@Handle@Workers@NodeKafka@@UEAA@XZ 0000000180050ac4     workers.obj
 0002:00014ad0       $unwind$?_Copy@?$basic_string@DU?$char_traits@D@std@@V?$allocator@D@2@@std@@QEAAX_K0@Z 0000000180050ad0     binding.obj
 0002:00014ae4       $unwind$?RefreshAssignments@KafkaConsumer@NodeKafka@@QEAA?AVBaton@2@XZ 0000000180050ae4     kafka-consumer.obj
 0002:00014ae4       $unwind$?New@Nan@@YA?AV?$MaybeLocal@VString@v8@@@v8@@AEBV?$basic_string@DU?$char_traits@D@std@@V?$allocator@D@2@@std@@@Z 0000000180050ae4     callbacks.obj
 0002:00014ae4       $unwind$?CommitSync@KafkaConsumer@NodeKafka@@QEAA?AVBaton@2@V?$vector@PEAVTopicPartition@RdKafka@@V?$allocator@PEAVTopicPartition@RdKafka@@@std@@@std@@@Z 0000000180050ae4     kafka-consumer.obj
 0002:00014af4       $unwind$??0AsyncResource@Nan@@QEAA@PEBDV?$Local@VObject@v8@@@v8@@@Z 0000000180050af4     callbacks.obj
 0002:00014b04       $unwind$??RCallback@Nan@@QEBA?AV?$Local@VValue@v8@@@v8@@V?$Local@VObject@v8@@@3@HQEAV23@@Z 0000000180050b04     callbacks.obj
 0002:00014b18       $unwind$?Call@Callback@Nan@@QEBA?AV?$Local@VValue@v8@@@v8@@HQEAV34@@Z 0000000180050b18     callbacks.obj
 0002:00014b38       $unwind$?Call_@Callback@Nan@@AEBA?AV?$MaybeLocal@VValue@v8@@@v8@@PEAVIsolate@4@V?$Local@VObject@v8@@@4@HQEAV?$Local@VValue@v8@@@4@PEAVAsyncResource@2@@Z 0000000180050b38     callbacks.obj
 0002:00014b44       $unwind$??0rebalance_event_t@Callbacks@NodeKafka@@QEAA@W4ErrorCode@RdKafka@@V?$vector@PEAVTopicPartition@RdKafka@@V?$allocator@PEAVTopicPartition@RdKafka@@@std@@@std@@@Z 0000000180050b44     callbacks.obj
 0002:00014b5c       $chain$1$??0rebalance_event_t@Callbacks@NodeKafka@@QEAA@W4ErrorCode@RdKafka@@V?$vector@PEAVTopicPartition@RdKafka@@V?$allocator@PEAVTopicPartition@RdKafka@@@std@@@std@@@Z 0000000180050b5c     callbacks.obj
 0002:00014b74       $chain$4$??0rebalance_event_t@Callbacks@NodeKafka@@QEAA@W4ErrorCode@RdKafka@@V?$vector@PEAVTopicPartition@RdKafka@@V?$allocator@PEAVTopicPartition@RdKafka@@@std@@@std@@@Z 0000000180050b74     callbacks.obj
 0002:00014b90       $chain$5$??0rebalance_event_t@Callbacks@NodeKafka@@QEAA@W4ErrorCode@RdKafka@@V?$vector@PEAVTopicPartition@RdKafka@@V?$allocator@PEAVTopicPartition@RdKafka@@@std@@@std@@@Z 0000000180050b90     callbacks.obj
 0002:00014ba0       $chain$6$??0rebalance_event_t@Callbacks@NodeKafka@@QEAA@W4ErrorCode@RdKafka@@V?$vector@PEAVTopicPartition@RdKafka@@V?$allocator@PEAVTopicPartition@RdKafka@@@std@@@std@@@Z 0000000180050ba0     callbacks.obj
 0002:00014bb0       $unwind$??0offset_commit_event_t@Callbacks@NodeKafka@@QEAA@W4ErrorCode@RdKafka@@AEBV?$vector@PEAVTopicPartition@RdKafka@@V?$allocator@PEAVTopicPartition@RdKafka@@@std@@@std@@@Z 0000000180050bb0     callbacks.obj
 0002:00014bcc       $chain$2$??0offset_commit_event_t@Callbacks@NodeKafka@@QEAA@W4ErrorCode@RdKafka@@AEBV?$vector@PEAVTopicPartition@RdKafka@@V?$allocator@PEAVTopicPartition@RdKafka@@@std@@@std@@@Z 0000000180050bcc     callbacks.obj
 0002:00014be8       $chain$3$??0offset_commit_event_t@Callbacks@NodeKafka@@QEAA@W4ErrorCode@RdKafka@@AEBV?$vector@PEAVTopicPartition@RdKafka@@V?$allocator@PEAVTopicPartition@RdKafka@@@std@@@std@@@Z 0000000180050be8     callbacks.obj
 0002:00014bf8       $unwind$?TopicPartitionListToV8Array@Callbacks@NodeKafka@@YA?AV?$Local@VArray@v8@@@v8@@V?$vector@Uevent_topic_partition_t@Callbacks@NodeKafka@@V?$allocator@Uevent_topic_partition_t@Callbacks@NodeKafka@@@std@@@std@@@Z 0000000180050bf8     callbacks.obj
 0002:00014c10       $chain$4$?TopicPartitionListToV8Array@Callbacks@NodeKafka@@YA?AV?$Local@VArray@v8@@@v8@@V?$vector@Uevent_topic_partition_t@Callbacks@NodeKafka@@V?$allocator@Uevent_topic_partition_t@Callbacks@NodeKafka@@@std@@@std@@@Z 0000000180050c10     callbacks.obj
 0002:00014c34       $chain$5$?TopicPartitionListToV8Array@Callbacks@NodeKafka@@YA?AV?$Local@VArray@v8@@@v8@@V?$vector@Uevent_topic_partition_t@Callbacks@NodeKafka@@V?$allocator@Uevent_topic_partition_t@Callbacks@NodeKafka@@@std@@@std@@@Z 0000000180050c34     callbacks.obj
 0002:00014c44       $unwind$??1Dispatcher@Callbacks@NodeKafka@@QEAA@XZ 0000000180050c44     callbacks.obj
 0002:00014c50       $chain$1$??1Dispatcher@Callbacks@NodeKafka@@QEAA@XZ 0000000180050c50     callbacks.obj
 0002:00014c68       $chain$2$??1Dispatcher@Callbacks@NodeKafka@@QEAA@XZ 0000000180050c68     callbacks.obj
 0002:00014c7c       $chain$3$??1Dispatcher@Callbacks@NodeKafka@@QEAA@XZ 0000000180050c7c     callbacks.obj
 0002:00014c8c       $chain$4$??1Dispatcher@Callbacks@NodeKafka@@QEAA@XZ 0000000180050c8c     callbacks.obj
 0002:00014c9c       $unwind$?Dispatch@Dispatcher@Callbacks@NodeKafka@@QEAAXHQEAV?$Local@VValue@v8@@@v8@@@Z 0000000180050c9c     callbacks.obj
 0002:00014ca8       $chain$0$?Dispatch@Dispatcher@Callbacks@NodeKafka@@QEAAXHQEAV?$Local@VValue@v8@@@v8@@@Z 0000000180050ca8     callbacks.obj
 0002:00014cbc       $chain$1$?Dispatch@Dispatcher@Callbacks@NodeKafka@@QEAAXHQEAV?$Local@VValue@v8@@@v8@@@Z 0000000180050cbc     callbacks.obj
 0002:00014cd0       $chain$2$?Dispatch@Dispatcher@Callbacks@NodeKafka@@QEAAXHQEAV?$Local@VValue@v8@@@v8@@@Z 0000000180050cd0     callbacks.obj
 0002:00014ce0       $chain$3$?Dispatch@Dispatcher@Callbacks@NodeKafka@@QEAAXHQEAV?$Local@VValue@v8@@@v8@@@Z 0000000180050ce0     callbacks.obj
 0002:00014cf0       $unwind$??_G?$vector@V?$basic_string@DU?$char_traits@D@std@@V?$allocator@D@2@@std@@V?$allocator@V?$basic_string@DU?$char_traits@D@std@@V?$allocator@D@2@@std@@@2@@std@@QEAAPEAXI@Z 0000000180050cf0     kafka-consumer.obj
 0002:00014cf0       $unwind$__acrt_is_packaged_app 0000000180050cf0     libucrt:winapi_thunks.obj
 0002:00014cf0       $unwind$?ActivateDispatchers@Producer@NodeKafka@@UEAAXXZ 0000000180050cf0     producer.obj
 0002:00014cf0       $unwind$??1RebalanceDispatcher@Callbacks@NodeKafka@@QEAA@XZ 0000000180050cf0     callbacks.obj
 0002:00014cf0       $unwind$?push_back@?$vector@V?$Persistent@VFunction@v8@@U?$CopyablePersistentTraits@VFunction@v8@@@2@@v8@@V?$allocator@V?$Persistent@VFunction@v8@@U?$CopyablePersistentTraits@VFunction@v8@@@2@@v8@@@std@@@std@@QEAAX$$QEAV?$Persistent@VFunction@v8@@U?$CopyablePersistentTraits@VFunction@v8@@@2@@v8@@@Z 0000000180050cf0     callbacks.obj
 0002:00014cf0       $unwind$iswctype           0000000180050cf0     libucrt:iswctype.obj
 0002:00014cf0       $unwind$?listen@Conf@NodeKafka@@QEAAXXZ 0000000180050cf0     config.obj
 0002:00014cf0       $unwind$?AddCallback@DeliveryReportDispatcher@Callbacks@NodeKafka@@QEAAXV?$Local@VFunction@v8@@@v8@@@Z 0000000180050cf0     callbacks.obj
 0002:00014cf0       $unwind$??1OffsetCommitDispatcher@Callbacks@NodeKafka@@QEAA@XZ 0000000180050cf0     callbacks.obj
 0002:00014cf0       $unwind$?AddCallback@Dispatcher@Callbacks@NodeKafka@@QEAAXV?$Local@VFunction@v8@@@v8@@@Z 0000000180050cf0     callbacks.obj
 0002:00014cfc       $unwind$??0event_t@Callbacks@NodeKafka@@QEAA@AEBVEvent@RdKafka@@@Z 0000000180050cfc     callbacks.obj
 0002:00014d18       $unwind$?event_cb@Event@Callbacks@NodeKafka@@UEAAXAEAV1RdKafka@@@Z 0000000180050d18     callbacks.obj
 0002:00014d2c       $unwind$ProcessCodePage    0000000180050d2c     libucrt:getqloc_downlevel.obj
 0002:00014d2c       $unwind$TestDefaultLanguage 0000000180050d2c     libucrt:getqloc_downlevel.obj
 0002:00014d2c       $unwind$?_Reallocate@?$vector@PEAVTopicPartition@RdKafka@@V?$allocator@PEAVTopicPartition@RdKafka@@@std@@@std@@IEAAX_K@Z 0000000180050d2c     common.obj
 0002:00014d2c       $unwind$??R<lambda_b721fa326cdb32351d23dfa67958c160>@@QEBAHXZ 0000000180050d2c     libucrt:setvbuf.obj
 0002:00014d2c       $unwind$?type_case_c_tchar@?$output_processor@_WV?$stream_output_adapter@_W@__crt_stdio_output@@V?$standard_base@_WV?$stream_output_adapter@_W@__crt_stdio_output@@@2@@__crt_stdio_output@@AEAA_N_W@Z 0000000180050d2c     libucrt:output.obj
 0002:00014d2c       $unwind$??0ConnectionQueryWatermarkOffsets@Workers@NodeKafka@@QEAA@PEAVCallback@Nan@@PEAVConnection@2@V?$basic_string@DU?$char_traits@D@std@@V?$allocator@D@2@@std@@HH@Z 0000000180050d2c     workers.obj
 0002:00014d2c       $unwind$?do_tolower@?$ctype@D@std@@MEBAPEBDPEADPEBD@Z 0000000180050d2c     common.obj
 0002:00014d2c       $unwind$?do_toupper@?$ctype@D@std@@MEBAPEBDPEADPEBD@Z 0000000180050d2c     common.obj
 0002:00014d2c       $unwind$?_Reallocate@?$vector@PEAVMessage@RdKafka@@V?$allocator@PEAVMessage@RdKafka@@@std@@@std@@IEAAX_K@Z 0000000180050d2c     workers.obj
 0002:00014d2c       $unwind$?Add@EventDispatcher@Callbacks@NodeKafka@@QEAAXAEBUevent_t@23@@Z 0000000180050d2c     callbacks.obj
 0002:00014d2c       $unwind$?type_case_c_tchar@?$output_processor@_WV?$string_output_adapter@_W@__crt_stdio_output@@V?$standard_base@_WV?$string_output_adapter@_W@__crt_stdio_output@@@2@@__crt_stdio_output@@AEAA_N_W@Z 0000000180050d2c     libucrt:output.obj
 0002:00014d2c       $unwind$ProcessCodePage    0000000180050d2c     libucrt:get_qualified_locale.obj
 0002:00014d3c       $chain$0$?Add@EventDispatcher@Callbacks@NodeKafka@@QEAAXAEBUevent_t@23@@Z 0000000180050d3c     callbacks.obj
 0002:00014d50       $chain$1$?Add@EventDispatcher@Callbacks@NodeKafka@@QEAAXAEBUevent_t@23@@Z 0000000180050d50     callbacks.obj
 0002:00014d60       $unwind$?Flush@EventDispatcher@Callbacks@NodeKafka@@UEAAXXZ 0000000180050d60     callbacks.obj
 0002:00014d70       $chain$3$?Flush@EventDispatcher@Callbacks@NodeKafka@@UEAAXXZ 0000000180050d70     callbacks.obj
 0002:00014d90       $chain$4$?Flush@EventDispatcher@Callbacks@NodeKafka@@UEAAXXZ 0000000180050d90     callbacks.obj
 0002:00014da4       $chain$5$?Flush@EventDispatcher@Callbacks@NodeKafka@@UEAAXXZ 0000000180050da4     callbacks.obj
 0002:00014db4       $chain$6$?Flush@EventDispatcher@Callbacks@NodeKafka@@UEAAXXZ 0000000180050db4     callbacks.obj
 0002:00014dc4       $unwind$?Flush@DeliveryReportDispatcher@Callbacks@NodeKafka@@UEAAXXZ 0000000180050dc4     callbacks.obj
 0002:00014ddc       $chain$2$?Flush@DeliveryReportDispatcher@Callbacks@NodeKafka@@UEAAXXZ 0000000180050ddc     callbacks.obj
 0002:00014df8       $chain$5$?Flush@DeliveryReportDispatcher@Callbacks@NodeKafka@@UEAAXXZ 0000000180050df8     callbacks.obj
 0002:00014e14       $chain$6$?Flush@DeliveryReportDispatcher@Callbacks@NodeKafka@@UEAAXXZ 0000000180050e14     callbacks.obj
 0002:00014e24       $chain$7$?Flush@DeliveryReportDispatcher@Callbacks@NodeKafka@@UEAAXXZ 0000000180050e24     callbacks.obj
 0002:00014e34       $unwind$??0DeliveryReport@Callbacks@NodeKafka@@QEAA@AEAVMessage@RdKafka@@_N@Z 0000000180050e34     callbacks.obj
 0002:00014e50       $unwind$?dr_cb@Delivery@Callbacks@NodeKafka@@UEAAXAEAVMessage@RdKafka@@@Z 0000000180050e50     callbacks.obj
 0002:00014e64       $chain$0$??1RebalanceDispatcher@Callbacks@NodeKafka@@QEAA@XZ 0000000180050e64     callbacks.obj
 0002:00014e78       $chain$1$??1RebalanceDispatcher@Callbacks@NodeKafka@@QEAA@XZ 0000000180050e78     callbacks.obj
 0002:00014e88       $unwind$?Flush@RebalanceDispatcher@Callbacks@NodeKafka@@UEAAXXZ 0000000180050e88     callbacks.obj
 0002:00014ea0       $unwind$?rebalance_cb@Rebalance@Callbacks@NodeKafka@@UEAAXPEAVKafkaConsumer@RdKafka@@W4ErrorCode@5@AEAV?$vector@PEAVTopicPartition@RdKafka@@V?$allocator@PEAVTopicPartition@RdKafka@@@std@@@std@@@Z 0000000180050ea0     callbacks.obj
 0002:00014eac       $chain$0$??1OffsetCommitDispatcher@Callbacks@NodeKafka@@QEAA@XZ 0000000180050eac     callbacks.obj
 0002:00014ec0       $chain$1$??1OffsetCommitDispatcher@Callbacks@NodeKafka@@QEAA@XZ 0000000180050ec0     callbacks.obj
 0002:00014ed0       $unwind$?Flush@OffsetCommitDispatcher@Callbacks@NodeKafka@@UEAAXXZ 0000000180050ed0     callbacks.obj
 0002:00014edc       $chain$0$?Flush@OffsetCommitDispatcher@Callbacks@NodeKafka@@UEAAXXZ 0000000180050edc     callbacks.obj
 0002:00014ef0       $chain$5$?Flush@OffsetCommitDispatcher@Callbacks@NodeKafka@@UEAAXXZ 0000000180050ef0     callbacks.obj
 0002:00014f14       $chain$6$?Flush@OffsetCommitDispatcher@Callbacks@NodeKafka@@UEAAXXZ 0000000180050f14     callbacks.obj
 0002:00014f30       $chain$7$?Flush@OffsetCommitDispatcher@Callbacks@NodeKafka@@UEAAXXZ 0000000180050f30     callbacks.obj
 0002:00014f40       $unwind$?NodeOnEvent@Connection@NodeKafka@@KAXAEBV?$FunctionCallbackInfo@VValue@v8@@@Nan@@@Z 0000000180050f40     connection.obj
 0002:00014f40       $unwind$?HandleOKCallback@KafkaConsumerSeek@Workers@NodeKafka@@UEAAXXZ 0000000180050f40     workers.obj
 0002:00014f40       $unwind$?HandleOKCallback@ProducerFlush@Workers@NodeKafka@@UEAAXXZ 0000000180050f40     workers.obj
 0002:00014f40       $unwind$?getSystemCP@@YAHH@Z 0000000180050f40     libucrt:mbctype.obj
 0002:00014f40       $unwind$isdigit            0000000180050f40     libucrt:_ctype.obj
 0002:00014f40       $unwind$?offset_commit_cb@OffsetCommit@Callbacks@NodeKafka@@UEAAXW4ErrorCode@RdKafka@@AEAV?$vector@PEAVTopicPartition@RdKafka@@V?$allocator@PEAVTopicPartition@RdKafka@@@std@@@std@@@Z 0000000180050f40     callbacks.obj
 0002:00014f40       $unwind$_isleadbyte_l      0000000180050f40     libucrt:_wctype.obj
 0002:00014f40       $unwind$isupper            0000000180050f40     libucrt:_ctype.obj
 0002:00014f40       $unwind$islower            0000000180050f40     libucrt:_ctype.obj
 0002:00014f40       $unwind$?NodePoll@Producer@NodeKafka@@CAXAEBV?$FunctionCallbackInfo@VValue@v8@@@Nan@@@Z 0000000180050f40     producer.obj
 0002:00014f48       $unwind$?partitioner_cb@Partitioner@Callbacks@NodeKafka@@UEAAHPEBVTopic@RdKafka@@PEBV?$basic_string@DU?$char_traits@D@std@@V?$allocator@D@2@@std@@HPEAX@Z 0000000180050f48     callbacks.obj
 0002:00014f64       $chain$0$?partitioner_cb@Partitioner@Callbacks@NodeKafka@@UEAAHPEBVTopic@RdKafka@@PEBV?$basic_string@DU?$char_traits@D@std@@V?$allocator@D@2@@std@@HPEAX@Z 0000000180050f64     callbacks.obj
 0002:00014f78       $chain$1$?partitioner_cb@Partitioner@Callbacks@NodeKafka@@UEAAHPEBVTopic@RdKafka@@PEBV?$basic_string@DU?$char_traits@D@std@@V?$allocator@D@2@@std@@HPEAX@Z 0000000180050f78     callbacks.obj
 0002:00014f88       $chain$2$?partitioner_cb@Partitioner@Callbacks@NodeKafka@@UEAAHPEBVTopic@RdKafka@@PEBV?$basic_string@DU?$char_traits@D@std@@V?$allocator@D@2@@std@@HPEAX@Z 0000000180050f88     callbacks.obj
 0002:00014f9c       $chain$0$?push_back@?$vector@V?$Persistent@VFunction@v8@@U?$CopyablePersistentTraits@VFunction@v8@@@2@@v8@@V?$allocator@V?$Persistent@VFunction@v8@@U?$CopyablePersistentTraits@VFunction@v8@@@2@@v8@@@std@@@std@@QEAAX$$QEAV?$Persistent@VFunction@v8@@U?$CopyablePersistentTraits@VFunction@v8@@@2@@v8@@@Z 0000000180050f9c     callbacks.obj
 0002:00014fb0       $chain$1$?push_back@?$vector@V?$Persistent@VFunction@v8@@U?$CopyablePersistentTraits@VFunction@v8@@@2@@v8@@V?$allocator@V?$Persistent@VFunction@v8@@U?$CopyablePersistentTraits@VFunction@v8@@@2@@v8@@@std@@@std@@QEAAX$$QEAV?$Persistent@VFunction@v8@@U?$CopyablePersistentTraits@VFunction@v8@@@2@@v8@@@Z 0000000180050fb0     callbacks.obj
 0002:00014fc0       $unwind$??0?$vector@PEAVTopicPartition@RdKafka@@V?$allocator@PEAVTopicPartition@RdKafka@@@std@@@std@@QEAA@AEBV01@@Z 0000000180050fc0     callbacks.obj
 0002:00014fd0       $chain$0$??0?$vector@PEAVTopicPartition@RdKafka@@V?$allocator@PEAVTopicPartition@RdKafka@@@std@@@std@@QEAA@AEBV01@@Z 0000000180050fd0     callbacks.obj
 0002:00014fe4       $chain$1$??0?$vector@PEAVTopicPartition@RdKafka@@V?$allocator@PEAVTopicPartition@RdKafka@@@std@@@std@@QEAA@AEBV01@@Z 0000000180050fe4     callbacks.obj
 0002:00014ff4       $unwind$?_Tidy@?$vector@VDeliveryReport@Callbacks@NodeKafka@@V?$allocator@VDeliveryReport@Callbacks@NodeKafka@@@std@@@std@@IEAAXXZ 0000000180050ff4     callbacks.obj
 0002:00014ff4       $unwind$?_Tidy@?$vector@Uevent_t@Callbacks@NodeKafka@@V?$allocator@Uevent_t@Callbacks@NodeKafka@@@std@@@std@@IEAAXXZ 0000000180050ff4     callbacks.obj
 0002:00014ff4       $unwind$??1?$vector@V?$basic_string@DU?$char_traits@D@std@@V?$allocator@D@2@@std@@V?$allocator@V?$basic_string@DU?$char_traits@D@std@@V?$allocator@D@2@@std@@@2@@std@@QEAA@XZ 0000000180050ff4     common.obj
 0002:00014ff4       $unwind$?_Tidy@?$vector@Uevent_topic_partition_t@Callbacks@NodeKafka@@V?$allocator@Uevent_topic_partition_t@Callbacks@NodeKafka@@@std@@@std@@IEAAXXZ 0000000180050ff4     callbacks.obj
 0002:00015000       $chain$0$?_Tidy@?$vector@Uevent_topic_partition_t@Callbacks@NodeKafka@@V?$allocator@Uevent_topic_partition_t@Callbacks@NodeKafka@@@std@@@std@@IEAAXXZ 0000000180051000     callbacks.obj
 0002:00015014       $chain$1$?_Tidy@?$vector@Uevent_topic_partition_t@Callbacks@NodeKafka@@V?$allocator@Uevent_topic_partition_t@Callbacks@NodeKafka@@@std@@@std@@IEAAXXZ 0000000180051014     callbacks.obj
 0002:00015024       $chain$0$?_Tidy@?$vector@VDeliveryReport@Callbacks@NodeKafka@@V?$allocator@VDeliveryReport@Callbacks@NodeKafka@@@std@@@std@@IEAAXXZ 0000000180051024     callbacks.obj
